 opencv

 Timestamp is 5aa70de4 (Tue Mar 13 12:31:48 2018)

 Preferred load address is 0000000180000000

 Start         Length     Name                   Class
 0001:00000000 000002d0H .text$di                CODE
 0001:000002d0 00046840H .text$mn                CODE
 0001:00046b10 00000020H .text$mn$00             CODE
 0001:00046b30 00004950H .text$x                 CODE
 0001:0004b480 0000028cH .text$yd                CODE
 0002:00000000 000007d8H .idata$5                DATA
 0002:000007d8 00000010H .00cfg                  DATA
 0002:000007e8 00000008H .CRT$XCA                DATA
 0002:000007f0 00000018H .CRT$XCC                DATA
 0002:00000808 00000010H .CRT$XCL                DATA
 0002:00000818 00000070H .CRT$XCU                DATA
 0002:00000888 00000008H .CRT$XCZ                DATA
 0002:00000890 00000008H .CRT$XIA                DATA
 0002:00000898 00000030H .CRT$XIC                DATA
 0002:000008c8 00000008H .CRT$XIZ                DATA
 0002:000008d0 00000008H .CRT$XLA                DATA
 0002:000008d8 00000008H .CRT$XLZ                DATA
 0002:000008e0 00000008H .CRT$XPA                DATA
 0002:000008e8 00000010H .CRT$XPX                DATA
 0002:000008f8 00000008H .CRT$XPXA               DATA
 0002:00000900 00000008H .CRT$XPZ                DATA
 0002:00000908 00000008H .CRT$XTA                DATA
 0002:00000910 00000010H .CRT$XTZ                DATA
 0002:00000920 00013ce0H .rdata                  DATA
 0002:00014600 00000028H .rdata$T                DATA
 0002:00014628 00000404H .rdata$r                DATA
 0002:00014a2c 000004acH .rdata$zzzdbg           DATA
 0002:00014ed8 00000008H .rtc$IAA                DATA
 0002:00014ee0 00000008H .rtc$IZZ                DATA
 0002:00014ee8 00000008H .rtc$TAA                DATA
 0002:00014ef0 00000010H .rtc$TZZ                DATA
 0002:00014f00 00009c68H .xdata                  DATA
 0002:0001eb68 00000244H .xdata$x                DATA
 0002:0001edac 00000020H .didat$2                DATA
 0002:0001edcc 00000024H .didat$3                DATA
 0002:0001edf0 000002e8H .didat$4                DATA
 0002:0001f0d8 000016e8H .didat$6                DATA
 0002:000207c0 000002f0H .didat$7                DATA
 0002:00020ab0 00000050H .edata                  DATA
 0002:00020b00 000000c8H .idata$2                DATA
 0002:00020bc8 00000018H .idata$3                DATA
 0002:00020be0 000007d8H .idata$4                DATA
 0002:000213b8 00002f40H .idata$6                DATA
 0003:00000000 00000a90H .data                   DATA
 0003:00000a90 00000168H .data$r                 DATA
 0003:00000bf8 000002e8H .didat$5                DATA
 0003:00000ee0 0000186cH .bss                    DATA
 0004:00000000 000030fcH .pdata                  DATA
 0005:00000000 00000088H .gfids$x                DATA
 0005:00000088 0000008cH .gfids$y                DATA
 0006:00000000 00000004H .tls                    DATA
 0006:00000004 00000004H .tls$                   DATA
 0006:00000008 00000001H .tls$ZZZ                DATA
 0007:00000000 00000060H .rsrc$01                DATA
 0007:00000060 00000180H .rsrc$02                DATA

  Address         Publics by Value              Rva+Base               Lib:Object

 0000:00000000       __guard_iat_table          0000000000000000     <absolute>
 0000:00000000       __dynamic_value_reloc_table 0000000000000000     <absolute>
 0000:00000000       __guard_iat_count          0000000000000000     <absolute>
 0000:00000000       __guard_longjmp_table      0000000000000000     <absolute>
 0000:00000000       __guard_longjmp_count      0000000000000000     <absolute>
 0000:00000000       __guard_fids_count         0000000000000000     <absolute>
 0000:00000000       ___safe_se_handler_table   0000000000000000     <absolute>
 0000:00000000       ___safe_se_handler_count   0000000000000000     <absolute>
 0000:00000000       __guard_fids_table         0000000000000000     <absolute>
 0000:00000100       __guard_flags              0000000000000100     <absolute>
 0000:00000000       __ImageBase                0000000180000000     <linker-defined>
 0001:000002d0       __local_stdio_printf_options 00000001800012d0 f i init.obj
 0001:000002e0       ??1HandleScope@Nan@@QEAA@XZ 00000001800012e0 f i init.obj
 0001:00000300       init                       0000000180001300 f   init.obj
 0001:00000430       ??1?$basic_string@DU?$char_traits@D@std@@V?$allocator@D@2@@std@@QEAA@XZ 0000000180001430 f i init.obj
 0001:000004c0       ?assign@?$basic_string@DU?$char_traits@D@std@@V?$allocator@D@2@@std@@QEAAAEAV12@PEBD_K@Z 00000001800014c0 f i init.obj
 0001:000005f0       ?assign@?$basic_string@DU?$char_traits@D@std@@V?$allocator@D@2@@std@@QEAAAEAV12@AEBV12@_K1@Z 00000001800015f0 f i init.obj
 0001:00000720       ?_Assign_rv@?$basic_string@DU?$char_traits@D@std@@V?$allocator@D@2@@std@@QEAAX$$QEAV12@@Z 0000000180001720 f i init.obj
 0001:000007a0       ?erase@?$basic_string@DU?$char_traits@D@std@@V?$allocator@D@2@@std@@QEAAAEAV12@_K0@Z 00000001800017a0 f i init.obj
 0001:00000870       ?_Copy@?$basic_string@DU?$char_traits@D@std@@V?$allocator@D@2@@std@@QEAAX_K0@Z 0000000180001870 f i init.obj
 0001:000009f0       printf                     00000001800019f0 f i Matrix.obj
 0001:00000a50       ??3@YAXPEAX0@Z             0000000180001a50 f i Matrix.obj
 0001:00000a50       __except_validate_context_record 0000000180001a50 f i libvcruntime:jbcxrval.obj
 0001:00000a50       _guard_check_icall_nop     0000000180001a50 f i LIBCMT:guard_support.obj
 0001:00000a60       ??0Mat@cv@@QEAA@HHH@Z      0000000180001a60 f i Matrix.obj
 0001:00000ae0       ??0Mat@cv@@QEAA@AEBV01@@Z  0000000180001ae0 f i Matrix.obj
 0001:00000bc0       ??1Mat@cv@@QEAA@XZ         0000000180001bc0 f i Matrix.obj
 0001:00000c00       ??4Mat@cv@@QEAAAEAV01@AEBV01@@Z 0000000180001c00 f i Matrix.obj
 0001:00000cc0       ?clone@Mat@cv@@QEBA?AV12@XZ 0000000180001cc0 f i Matrix.obj
 0001:00000d60       ?release@Mat@cv@@QEAAXXZ   0000000180001d60 f i Matrix.obj
 0001:00000dd0       ??RMat@cv@@QEBA?AV01@AEBV?$Rect_@H@1@@Z 0000000180001dd0 f i Matrix.obj
 0001:00000e10       ??BMatExpr@cv@@QEBA?AVMat@1@XZ 0000000180001e10 f i Matrix.obj
 0001:00000f70       ?NewInstance@Nan@@YA?AV?$MaybeLocal@VObject@v8@@@v8@@V?$Local@VObjectTemplate@v8@@@3@@Z 0000000180001f70 f i Matrix.obj
 0001:00000ff0       ?convert@?$ToFactory@VInteger@v8@@@imp@Nan@@SA?AV?$MaybeLocal@VInteger@v8@@@v8@@V?$Local@VValue@v8@@@5@@Z 0000000180001ff0 f i Matrix.obj
 0001:00001080       ?New@?$Factory@VFunctionTemplate@v8@@@imp@Nan@@SA?AV?$Local@VFunctionTemplate@v8@@@v8@@P6AXAEBV?$FunctionCallbackInfo@VValue@v8@@@3@@ZV?$Local@VValue@v8@@@5@V?$Local@VSignature@v8@@@5@@Z 0000000180002080 f i Matrix.obj
 0001:00001200       ??1EscapableHandleScope@Nan@@QEAA@XZ 0000000180002200 f i Matrix.obj
 0001:00001230       ?ThrowError@Nan@@YAXPEBD@Z 0000000180002230 f i Matrix.obj
 0001:000012d0       ?ThrowTypeError@Nan@@YAXPEBD@Z 00000001800022d0 f i Matrix.obj
 0001:00001370       ??0Utf8String@Nan@@QEAA@V?$Local@VValue@v8@@@v8@@@Z 0000000180002370 f i Matrix.obj
 0001:00001480       ??1Utf8String@Nan@@QEAA@XZ 0000000180002480 f i Matrix.obj
 0001:000014b0       ??0AsyncResource@Nan@@QEAA@PEBDV?$Local@VObject@v8@@@v8@@@Z 00000001800024b0 f i Matrix.obj
 0001:00001570       ?Call@Callback@Nan@@QEBA?AV?$Local@VValue@v8@@@v8@@HQEAV34@@Z 0000000180002570 f i Matrix.obj
 0001:00001620       ?Call_@Callback@Nan@@AEBA?AV?$MaybeLocal@VValue@v8@@@v8@@PEAVIsolate@4@V?$Local@VObject@v8@@@4@HQEAV?$Local@VValue@v8@@@4@PEAVAsyncResource@2@@Z 0000000180002620 f i Matrix.obj
 0001:00001730       ?Call_@Callback@Nan@@AEBA?AV?$Local@VValue@v8@@@v8@@PEAVIsolate@4@V?$Local@VObject@v8@@@4@HQEAV34@@Z 0000000180002730 f i Matrix.obj
 0001:000017f0       ??1?$Persistent@VFunction@v8@@V?$NonCopyablePersistentTraits@VFunction@v8@@@2@@Nan@@QEAA@XZ 00000001800027f0 f i Matrix.obj
 0001:000017f0       ??1?$Persistent@VObject@v8@@V?$NonCopyablePersistentTraits@VObject@v8@@@2@@Nan@@QEAA@XZ 00000001800027f0 f i Matrix.obj
 0001:00001810       ??0AsyncWorker@Nan@@QEAA@PEAVCallback@1@PEBD@Z 0000000180002810 f i Matrix.obj
 0001:00001900       ??1AsyncWorker@Nan@@UEAA@XZ 0000000180002900 f i Matrix.obj
 0001:00001a10       ?WorkComplete@AsyncWorker@Nan@@UEAAXXZ 0000000180002a10 f i Matrix.obj
 0001:00001ab0       ?Destroy@AsyncWorker@Nan@@UEAAXXZ 0000000180002ab0 f i Matrix.obj
 0001:00001ad0       ?HandleOKCallback@AsyncWorker@Nan@@MEAAXXZ 0000000180002ad0 f i Matrix.obj
 0001:00001b70       ?HandleErrorCallback@AsyncWorker@Nan@@MEAAXXZ 0000000180002b70 f i Matrix.obj
 0001:00001c70       ??_EAsyncWorker@Nan@@UEAAPEAXI@Z 0000000180002c70 f i * CIL library *:* CIL module *
 0001:00001c70       ??_GAsyncWorker@Nan@@UEAAPEAXI@Z 0000000180002c70 f i Matrix.obj
 0001:00001cb0       ?AsyncExecute@Nan@@YAXPEAUuv_work_s@@@Z 0000000180002cb0 f i Matrix.obj
 0001:00001cc0       ?AsyncExecuteComplete@Nan@@YAXPEAUuv_work_s@@@Z 0000000180002cc0 f i Matrix.obj
 0001:00001cf0       ?SetPrototypeMethod@Nan@@YAXV?$Local@VFunctionTemplate@v8@@@v8@@PEBDP6AXAEBV?$FunctionCallbackInfo@VValue@v8@@@1@@Z@Z 0000000180002cf0 f i Matrix.obj
 0001:00001e00       ??1ObjectWrap@Nan@@UEAA@XZ 0000000180002e00 f i Matrix.obj
 0001:00001e80       ?Wrap@ObjectWrap@Nan@@IEAAXV?$Local@VObject@v8@@@v8@@@Z 0000000180002e80 f i Matrix.obj
 0001:00001f60       ?Ref@ObjectWrap@Nan@@MEAAXXZ 0000000180002f60 f i Matrix.obj
 0001:00001fa0       ?Unref@ObjectWrap@Nan@@MEAAXXZ 0000000180002fa0 f i Matrix.obj
 0001:00002050       ?WeakCallback@ObjectWrap@Nan@@CAXAEBV?$WeakCallbackInfo@VObjectWrap@Nan@@@v8@@@Z 0000000180003050 f i Matrix.obj
 0001:000020e0       ??_EObjectWrap@Nan@@UEAAPEAXI@Z 00000001800030e0 f i * CIL library *:* CIL module *
 0001:000020e0       ??_GObjectWrap@Nan@@UEAAPEAXI@Z 00000001800030e0 f i Matrix.obj
 0001:00002120       ??_GMatrix@node_opencv@@UEAAPEAXI@Z 0000000180003120 f i Matrix.obj
 0001:00002120       ??_EMatrix@node_opencv@@UEAAPEAXI@Z 0000000180003120 f i * CIL library *:* CIL module *
 0001:00002190       ??1Matrix@node_opencv@@UEAA@XZ 0000000180003190 f i Matrix.obj
 0001:000021e0       ?Init@Matrix@@SAXV?$Local@VObject@v8@@@v8@@@Z 00000001800031e0 f   Matrix.obj
 0001:00002bf0       ?New@Matrix@@SAXAEBV?$FunctionCallbackInfo@VValue@v8@@@Nan@@@Z 0000000180003bf0 f   Matrix.obj
 0001:00003160       ??0Matrix@@QEAA@XZ         0000000180004160 f   Matrix.obj
 0001:00003290       ??_EMatrix@@UEAAPEAXI@Z    0000000180004290 f i * CIL library *:* CIL module *
 0001:00003290       ??_GMatrix@@UEAAPEAXI@Z    0000000180004290 f i Matrix.obj
 0001:00003300       ??0Matrix@@QEAA@HH@Z       0000000180004300 f   Matrix.obj
 0001:00003440       ??0Matrix@@QEAA@HHH@Z      0000000180004440 f   Matrix.obj
 0001:00003590       ??0Matrix@@QEAA@VMat@cv@@V?$Rect_@H@2@@Z 0000000180004590 f   Matrix.obj
 0001:000036b0       ??0Matrix@@QEAA@HHHV?$Local@VObject@v8@@@v8@@@Z 00000001800046b0 f   Matrix.obj
 0001:000039d0       ?Empty@Matrix@@SAXAEBV?$FunctionCallbackInfo@VValue@v8@@@Nan@@@Z 00000001800049d0 f   Matrix.obj
 0001:00003aa0       ?DblGet@Matrix@@SANVMat@cv@@HH@Z 0000000180004aa0 f   Matrix.obj
 0001:00003bc0       ?Pixel@Matrix@@SAXAEBV?$FunctionCallbackInfo@VValue@v8@@@Nan@@@Z 0000000180004bc0 f   Matrix.obj
 0001:00003f30       ?Get@Matrix@@SAXAEBV?$FunctionCallbackInfo@VValue@v8@@@Nan@@@Z 0000000180004f30 f   Matrix.obj
 0001:00004060       ?Set@Matrix@@SAXAEBV?$FunctionCallbackInfo@VValue@v8@@@Nan@@@Z 0000000180005060 f   Matrix.obj
 0001:00004270       ?Put@Matrix@@SAXAEBV?$FunctionCallbackInfo@VValue@v8@@@Nan@@@Z 0000000180005270 f   Matrix.obj
 0001:00004360       ?GetData@Matrix@@SAXAEBV?$FunctionCallbackInfo@VValue@v8@@@Nan@@@Z 0000000180005360 f   Matrix.obj
 0001:00004600       ?Brightness@Matrix@@SAXAEBV?$FunctionCallbackInfo@VValue@v8@@@Nan@@@Z 0000000180005600 f   Matrix.obj
 0001:00004d30       ??1MatExpr@cv@@QEAA@XZ     0000000180005d30 f i Matrix.obj
 0001:00004dc0       ?Normalize@Matrix@@SAXAEBV?$FunctionCallbackInfo@VValue@v8@@@Nan@@@Z 0000000180005dc0 f   Matrix.obj
 0001:00005170       ?Norm@Matrix@@SAXAEBV?$FunctionCallbackInfo@VValue@v8@@@Nan@@@Z 0000000180006170 f   Matrix.obj
 0001:00005510       ?Size@Matrix@@SAXAEBV?$FunctionCallbackInfo@VValue@v8@@@Nan@@@Z 0000000180006510 f   Matrix.obj
 0001:00005620       ?Clone@Matrix@@SAXAEBV?$FunctionCallbackInfo@VValue@v8@@@Nan@@@Z 0000000180006620 f   Matrix.obj
 0001:00005760       ?Crop@Matrix@@SAXAEBV?$FunctionCallbackInfo@VValue@v8@@@Nan@@@Z 0000000180006760 f   Matrix.obj
 0001:00005a40       ?Row@Matrix@@SAXAEBV?$FunctionCallbackInfo@VValue@v8@@@Nan@@@Z 0000000180006a40 f   Matrix.obj
 0001:00005b90       ?PixelRow@Matrix@@SAXAEBV?$FunctionCallbackInfo@VValue@v8@@@Nan@@@Z 0000000180006b90 f   Matrix.obj
 0001:00005d70       ?Col@Matrix@@SAXAEBV?$FunctionCallbackInfo@VValue@v8@@@Nan@@@Z 0000000180006d70 f   Matrix.obj
 0001:00005eb0       ?PixelCol@Matrix@@SAXAEBV?$FunctionCallbackInfo@VValue@v8@@@Nan@@@Z 0000000180006eb0 f   Matrix.obj
 0001:00006090       ?Width@Matrix@@SAXAEBV?$FunctionCallbackInfo@VValue@v8@@@Nan@@@Z 0000000180007090 f   Matrix.obj
 0001:00006130       ?Height@Matrix@@SAXAEBV?$FunctionCallbackInfo@VValue@v8@@@Nan@@@Z 0000000180007130 f   Matrix.obj
 0001:000061d0       ?Channels@Matrix@@SAXAEBV?$FunctionCallbackInfo@VValue@v8@@@Nan@@@Z 00000001800071d0 f   Matrix.obj
 0001:00006270       ?ToBuffer@Matrix@@SAXAEBV?$FunctionCallbackInfo@VValue@v8@@@Nan@@@Z 0000000180007270 f   Matrix.obj
 0001:00006930       ??0AsyncToBufferWorker@@QEAA@PEAVCallback@Nan@@PEAVMatrix@@V?$basic_string@DU?$char_traits@D@std@@V?$allocator@D@2@@std@@V?$vector@HV?$allocator@H@std@@@5@@Z 0000000180007930 f i Matrix.obj
 0001:00006a30       ??1AsyncToBufferWorker@@UEAA@XZ 0000000180007a30 f i Matrix.obj
 0001:00006ab0       ?Execute@AsyncToBufferWorker@@UEAAXXZ 0000000180007ab0 f i Matrix.obj
 0001:00006b40       ?HandleOKCallback@AsyncToBufferWorker@@UEAAXXZ 0000000180007b40 f i Matrix.obj
 0001:00006db0       ??_EAsyncToBufferWorker@@UEAAPEAXI@Z 0000000180007db0 f i * CIL library *:* CIL module *
 0001:00006db0       ??_GAsyncToBufferWorker@@UEAAPEAXI@Z 0000000180007db0 f i Matrix.obj
 0001:00006df0       ??1TryCatch@Nan@@QEAA@XZ   0000000180007df0 f i Matrix.obj
 0001:00006e10       ?ToBufferAsync@Matrix@@SAXAEBV?$FunctionCallbackInfo@VValue@v8@@@Nan@@@Z 0000000180007e10 f   Matrix.obj
 0001:00007340       ?Ellipse@Matrix@@SAXAEBV?$FunctionCallbackInfo@VValue@v8@@@Nan@@@Z 0000000180008340 f   Matrix.obj
 0001:00007e80       ?Rectangle@Matrix@@SAXAEBV?$FunctionCallbackInfo@VValue@v8@@@Nan@@@Z 0000000180008e80 f   Matrix.obj
 0001:00008170       ?Line@Matrix@@SAXAEBV?$FunctionCallbackInfo@VValue@v8@@@Nan@@@Z 0000000180009170 f   Matrix.obj
 0001:00008460       ?FillPoly@Matrix@@SAXAEBV?$FunctionCallbackInfo@VValue@v8@@@Nan@@@Z 0000000180009460 f   Matrix.obj
 0001:00008890       ?Save@Matrix@@SAXAEBV?$FunctionCallbackInfo@VValue@v8@@@Nan@@@Z 0000000180009890 f   Matrix.obj
 0001:00008b10       ??0AsyncSaveWorker@@QEAA@PEAVCallback@Nan@@PEAVMatrix@@PEAD@Z 0000000180009b10 f i Matrix.obj
 0001:00008ba0       ?Execute@AsyncSaveWorker@@UEAAXXZ 0000000180009ba0 f i Matrix.obj
 0001:00008c30       ?HandleOKCallback@AsyncSaveWorker@@UEAAXXZ 0000000180009c30 f i Matrix.obj
 0001:00008d30       ??_GAsyncSaveWorker@@UEAAPEAXI@Z 0000000180009d30 f i Matrix.obj
 0001:00008d30       ??_EAsyncSaveWorker@@UEAAPEAXI@Z 0000000180009d30 f i * CIL library *:* CIL module *
 0001:00008d90       ?SaveAsync@Matrix@@SAXAEBV?$FunctionCallbackInfo@VValue@v8@@@Nan@@@Z 0000000180009d90 f   Matrix.obj
 0001:00008f70       ?Zeros@Matrix@@SAXAEBV?$FunctionCallbackInfo@VValue@v8@@@Nan@@@Z 0000000180009f70 f   Matrix.obj
 0001:00009270       ?Ones@Matrix@@SAXAEBV?$FunctionCallbackInfo@VValue@v8@@@Nan@@@Z 000000018000a270 f   Matrix.obj
 0001:00009570       ?Eye@Matrix@@SAXAEBV?$FunctionCallbackInfo@VValue@v8@@@Nan@@@Z 000000018000a570 f   Matrix.obj
 0001:00009870       ?ConvertGrayscale@Matrix@@SAXAEBV?$FunctionCallbackInfo@VValue@v8@@@Nan@@@Z 000000018000a870 f   Matrix.obj
 0001:00009950       ?ConvertHSVscale@Matrix@@SAXAEBV?$FunctionCallbackInfo@VValue@v8@@@Nan@@@Z 000000018000a950 f   Matrix.obj
 0001:00009ac0       ?GaussianBlur@Matrix@@SAXAEBV?$FunctionCallbackInfo@VValue@v8@@@Nan@@@Z 000000018000aac0 f   Matrix.obj
 0001:00009d20       ?MedianBlur@Matrix@@SAXAEBV?$FunctionCallbackInfo@VValue@v8@@@Nan@@@Z 000000018000ad20 f   Matrix.obj
 0001:00009ed0       ?BilateralFilter@Matrix@@SAXAEBV?$FunctionCallbackInfo@VValue@v8@@@Nan@@@Z 000000018000aed0 f   Matrix.obj
 0001:0000a130       ?Sobel@Matrix@@SAXAEBV?$FunctionCallbackInfo@VValue@v8@@@Nan@@@Z 000000018000b130 f   Matrix.obj
 0001:0000a390       ?Copy@Matrix@@SAXAEBV?$FunctionCallbackInfo@VValue@v8@@@Nan@@@Z 000000018000b390 f   Matrix.obj
 0001:0000a480       ?Flip@Matrix@@SAXAEBV?$FunctionCallbackInfo@VValue@v8@@@Nan@@@Z 000000018000b480 f   Matrix.obj
 0001:0000a600       ?ROI@Matrix@@SAXAEBV?$FunctionCallbackInfo@VValue@v8@@@Nan@@@Z 000000018000b600 f   Matrix.obj
 0001:0000a810       ?Ptr@Matrix@@SAXAEBV?$FunctionCallbackInfo@VValue@v8@@@Nan@@@Z 000000018000b810 f   Matrix.obj
 0001:0000a920       ?AbsDiff@Matrix@@SAXAEBV?$FunctionCallbackInfo@VValue@v8@@@Nan@@@Z 000000018000b920 f   Matrix.obj
 0001:0000aa60       ?AddWeighted@Matrix@@SAXAEBV?$FunctionCallbackInfo@VValue@v8@@@Nan@@@Z 000000018000ba60 f   Matrix.obj
 0001:0000ac40       ?BitwiseXor@Matrix@@SAXAEBV?$FunctionCallbackInfo@VValue@v8@@@Nan@@@Z 000000018000bc40 f   Matrix.obj
 0001:0000ae20       ?BitwiseNot@Matrix@@SAXAEBV?$FunctionCallbackInfo@VValue@v8@@@Nan@@@Z 000000018000be20 f   Matrix.obj
 0001:0000afa0       ?BitwiseAnd@Matrix@@SAXAEBV?$FunctionCallbackInfo@VValue@v8@@@Nan@@@Z 000000018000bfa0 f   Matrix.obj
 0001:0000b180       ?CountNonZero@Matrix@@SAXAEBV?$FunctionCallbackInfo@VValue@v8@@@Nan@@@Z 000000018000c180 f   Matrix.obj
 0001:0000b240       ?Moments@Matrix@@SAXAEBV?$FunctionCallbackInfo@VValue@v8@@@Nan@@@Z 000000018000c240 f   Matrix.obj
 0001:0000bc70       ?Canny@Matrix@@SAXAEBV?$FunctionCallbackInfo@VValue@v8@@@Nan@@@Z 000000018000cc70 f   Matrix.obj
 0001:0000bda0       ?Dilate@Matrix@@SAXAEBV?$FunctionCallbackInfo@VValue@v8@@@Nan@@@Z 000000018000cda0 f   Matrix.obj
 0001:0000bf90       ?Erode@Matrix@@SAXAEBV?$FunctionCallbackInfo@VValue@v8@@@Nan@@@Z 000000018000cf90 f   Matrix.obj
 0001:0000c180       ?FindContours@Matrix@@SAXAEBV?$FunctionCallbackInfo@VValue@v8@@@Nan@@@Z 000000018000d180 f   Matrix.obj
 0001:0000c380       ?DrawContour@Matrix@@SAXAEBV?$FunctionCallbackInfo@VValue@v8@@@Nan@@@Z 000000018000d380 f   Matrix.obj
 0001:0000c630       ?DrawAllContours@Matrix@@SAXAEBV?$FunctionCallbackInfo@VValue@v8@@@Nan@@@Z 000000018000d630 f   Matrix.obj
 0001:0000c8b0       ?GoodFeaturesToTrack@Matrix@@SAXAEBV?$FunctionCallbackInfo@VValue@v8@@@Nan@@@Z 000000018000d8b0 f   Matrix.obj
 0001:0000cbe0       ?HoughLinesP@Matrix@@SAXAEBV?$FunctionCallbackInfo@VValue@v8@@@Nan@@@Z 000000018000dbe0 f   Matrix.obj
 0001:0000d050       ?HoughCircles@Matrix@@SAXAEBV?$FunctionCallbackInfo@VValue@v8@@@Nan@@@Z 000000018000e050 f   Matrix.obj
 0001:0000d560       ?setColor@@YA?AV?$Scalar_@N@cv@@V?$Local@VObject@v8@@@v8@@@Z 000000018000e560 f   Matrix.obj
 0001:0000d630       ?setRect@@YAPEAV?$Rect_@H@cv@@V?$Local@VObject@v8@@@v8@@AEAV12@@Z 000000018000e630 f   Matrix.obj
 0001:0000d780       ?Resize@Matrix@@SAXAEBV?$FunctionCallbackInfo@VValue@v8@@@Nan@@@Z 000000018000e780 f   Matrix.obj
 0001:0000d9e0       ?Rotate@Matrix@@SAXAEBV?$FunctionCallbackInfo@VValue@v8@@@Nan@@@Z 000000018000e9e0 f   Matrix.obj
 0001:0000df70       ?GetRotationMatrix2D@Matrix@@SAXAEBV?$FunctionCallbackInfo@VValue@v8@@@Nan@@@Z 000000018000ef70 f   Matrix.obj
 0001:0000e1e0       ?WarpAffine@Matrix@@SAXAEBV?$FunctionCallbackInfo@VValue@v8@@@Nan@@@Z 000000018000f1e0 f   Matrix.obj
 0001:0000e4e0       ?PyrDown@Matrix@@SAXAEBV?$FunctionCallbackInfo@VValue@v8@@@Nan@@@Z 000000018000f4e0 f   Matrix.obj
 0001:0000e580       ?PyrUp@Matrix@@SAXAEBV?$FunctionCallbackInfo@VValue@v8@@@Nan@@@Z 000000018000f580 f   Matrix.obj
 0001:0000e620       ?inRange@Matrix@@SAXAEBV?$FunctionCallbackInfo@VValue@v8@@@Nan@@@Z 000000018000f620 f   Matrix.obj
 0001:0000e8d0       ?AdjustROI@Matrix@@SAXAEBV?$FunctionCallbackInfo@VValue@v8@@@Nan@@@Z 000000018000f8d0 f   Matrix.obj
 0001:0000ea20       ?LocateROI@Matrix@@SAXAEBV?$FunctionCallbackInfo@VValue@v8@@@Nan@@@Z 000000018000fa20 f   Matrix.obj
 0001:0000eb90       ?Threshold@Matrix@@SAXAEBV?$FunctionCallbackInfo@VValue@v8@@@Nan@@@Z 000000018000fb90 f   Matrix.obj
 0001:0000f0c0       ?AdaptiveThreshold@Matrix@@SAXAEBV?$FunctionCallbackInfo@VValue@v8@@@Nan@@@Z 00000001800100c0 f   Matrix.obj
 0001:0000f310       ?MeanStdDev@Matrix@@SAXAEBV?$FunctionCallbackInfo@VValue@v8@@@Nan@@@Z 0000000180010310 f   Matrix.obj
 0001:0000f510       ?CopyTo@Matrix@@SAXAEBV?$FunctionCallbackInfo@VValue@v8@@@Nan@@@Z 0000000180010510 f   Matrix.obj
 0001:0000f6a0       ?ConvertTo@Matrix@@SAXAEBV?$FunctionCallbackInfo@VValue@v8@@@Nan@@@Z 00000001800106a0 f   Matrix.obj
 0001:0000f8a0       ?CvtColor@Matrix@@SAXAEBV?$FunctionCallbackInfo@VValue@v8@@@Nan@@@Z 00000001800108a0 f   Matrix.obj
 0001:0000fc70       ?Split@Matrix@@SAXAEBV?$FunctionCallbackInfo@VValue@v8@@@Nan@@@Z 0000000180010c70 f   Matrix.obj
 0001:0000ff10       ?Merge@Matrix@@SAXAEBV?$FunctionCallbackInfo@VValue@v8@@@Nan@@@Z 0000000180010f10 f   Matrix.obj
 0001:00010120       ?EqualizeHist@Matrix@@SAXAEBV?$FunctionCallbackInfo@VValue@v8@@@Nan@@@Z 0000000180011120 f   Matrix.obj
 0001:000101a0       ?FloodFill@Matrix@@SAXAEBV?$FunctionCallbackInfo@VValue@v8@@@Nan@@@Z 00000001800111a0 f   Matrix.obj
 0001:00010770       ?TemplateMatches@Matrix@@SAXAEBV?$FunctionCallbackInfo@VValue@v8@@@Nan@@@Z 0000000180011770 f   Matrix.obj
 0001:000113b0       ??1?$Mat_@H@cv@@QEAA@XZ    00000001800123b0 f i Matrix.obj
 0001:000113f0       ?MatchTemplateByMatrix@Matrix@@SAXAEBV?$FunctionCallbackInfo@VValue@v8@@@Nan@@@Z 00000001800123f0 f   Matrix.obj
 0001:000115e0       ?MatchTemplate@Matrix@@SAXAEBV?$FunctionCallbackInfo@VValue@v8@@@Nan@@@Z 00000001800125e0 f   Matrix.obj
 0001:00011c90       ?MinMaxLoc@Matrix@@SAXAEBV?$FunctionCallbackInfo@VValue@v8@@@Nan@@@Z 0000000180012c90 f   Matrix.obj
 0001:00012140       ?PushBack@Matrix@@SAXAEBV?$FunctionCallbackInfo@VValue@v8@@@Nan@@@Z 0000000180013140 f   Matrix.obj
 0001:00012200       ?PutText@Matrix@@SAXAEBV?$FunctionCallbackInfo@VValue@v8@@@Nan@@@Z 0000000180013200 f   Matrix.obj
 0001:000126f0       ?GetPerspectiveTransform@Matrix@@SAXAEBV?$FunctionCallbackInfo@VValue@v8@@@Nan@@@Z 00000001800136f0 f   Matrix.obj
 0001:00012b10       ?WarpPerspective@Matrix@@SAXAEBV?$FunctionCallbackInfo@VValue@v8@@@Nan@@@Z 0000000180013b10 f   Matrix.obj
 0001:00012ee0       ?CopyWithMask@Matrix@@SAXAEBV?$FunctionCallbackInfo@VValue@v8@@@Nan@@@Z 0000000180013ee0 f   Matrix.obj
 0001:00012fe0       ?SetWithMask@Matrix@@SAXAEBV?$FunctionCallbackInfo@VValue@v8@@@Nan@@@Z 0000000180013fe0 f   Matrix.obj
 0001:00013170       ?MeanWithMask@Matrix@@SAXAEBV?$FunctionCallbackInfo@VValue@v8@@@Nan@@@Z 0000000180014170 f   Matrix.obj
 0001:00013350       ?Mean@Matrix@@SAXAEBV?$FunctionCallbackInfo@VValue@v8@@@Nan@@@Z 0000000180014350 f   Matrix.obj
 0001:00013500       ?Shift@Matrix@@SAXAEBV?$FunctionCallbackInfo@VValue@v8@@@Nan@@@Z 0000000180014500 f   Matrix.obj
 0001:00013890       ?Reshape@Matrix@@SAXAEBV?$FunctionCallbackInfo@VValue@v8@@@Nan@@@Z 0000000180014890 f   Matrix.obj
 0001:00013ae0       ?Release@Matrix@@SAXAEBV?$FunctionCallbackInfo@VValue@v8@@@Nan@@@Z 0000000180014ae0 f   Matrix.obj
 0001:00013b40       ?Subtract@Matrix@@SAXAEBV?$FunctionCallbackInfo@VValue@v8@@@Nan@@@Z 0000000180014b40 f   Matrix.obj
 0001:00013c50       ??1?$vector@V?$Vec@M$02@cv@@V?$allocator@V?$Vec@M$02@cv@@@std@@@std@@QEAA@XZ 0000000180014c50 f i Matrix.obj
 0001:00013d00       ??1?$Persistent@VObject@v8@@V?$NonCopyablePersistentTraits@VObject@v8@@@2@@v8@@QEAA@XZ 0000000180014d00 f i Matrix.obj
 0001:00013d00       ??1?$Persistent@VFunction@v8@@V?$NonCopyablePersistentTraits@VFunction@v8@@@2@@v8@@QEAA@XZ 0000000180014d00 f i Matrix.obj
 0001:00013d00       ??1?$Persistent@VFunctionTemplate@v8@@V?$NonCopyablePersistentTraits@VFunctionTemplate@v8@@@2@@v8@@QEAA@XZ 0000000180014d00 f i Matrix.obj
 0001:00013d20       ??1?$vector@V?$Rect_@H@cv@@V?$allocator@V?$Rect_@H@cv@@@std@@@std@@QEAA@XZ 0000000180014d20 f i CascadeClassifierWrap.obj
 0001:00013d20       ??1?$vector@V?$Vec@H$03@cv@@V?$allocator@V?$Vec@H$03@cv@@@std@@@std@@QEAA@XZ 0000000180014d20 f i Matrix.obj
 0001:00013d20       ??1?$vector@UDMatch@cv@@V?$allocator@UDMatch@cv@@@std@@@std@@QEAA@XZ 0000000180014d20 f i Features2d.obj
 0001:00013d60       ??1?$vector@V?$Point_@M@cv@@V?$allocator@V?$Point_@M@cv@@@std@@@std@@QEAA@XZ 0000000180014d60 f i Matrix.obj
 0001:00013d60       ??1?$vector@V?$Point_@H@cv@@V?$allocator@V?$Point_@H@cv@@@std@@@std@@QEAA@XZ 0000000180014d60 f i Contours.obj
 0001:00013da0       ?push_back@?$vector@HV?$allocator@H@std@@@std@@QEAAX$$QEAH@Z 0000000180014da0 f i Matrix.obj
 0001:00013da0       ?push_back@?$vector@HV?$allocator@H@std@@@std@@QEAAXAEBH@Z 0000000180014da0 f i Matrix.obj
 0001:00013f00       ??1?$vector@HV?$allocator@H@std@@@std@@QEAA@XZ 0000000180014f00 f i Matrix.obj
 0001:00013f40       ??0?$vector@HV?$allocator@H@std@@@std@@QEAA@AEBV01@@Z 0000000180014f40 f i Matrix.obj
 0001:00013ff0       ??1?$vector@VMat@cv@@V?$allocator@VMat@cv@@@std@@@std@@QEAA@XZ 0000000180014ff0 f i Matrix.obj
 0001:00014000       ?push_back@?$vector@VMat@cv@@V?$allocator@VMat@cv@@@std@@@std@@QEAAXAEBVMat@cv@@@Z 0000000180015000 f i FaceRecognizer.obj
 0001:00014000       ?push_back@?$vector@VMat@cv@@V?$allocator@VMat@cv@@@std@@@std@@QEAAX$$QEAVMat@cv@@@Z 0000000180015000 f i Matrix.obj
 0001:00014220       ??4?$vector@EV?$allocator@E@std@@@std@@QEAAAEAV01@AEBV01@@Z 0000000180015220 f i Matrix.obj
 0001:00014340       ??1?$vector@EV?$allocator@E@std@@@std@@QEAA@XZ 0000000180015340 f i Matrix.obj
 0001:00014350       ?deallocate@?$_Wrap_alloc@V?$allocator@E@std@@@std@@QEAAXPEAE_K@Z 0000000180015350 f i Matrix.obj
 0001:000143b0       ?_Tidy@?$vector@VMat@cv@@V?$allocator@VMat@cv@@@std@@@std@@IEAAXXZ 00000001800153b0 f i Matrix.obj
 0001:00014440       ?_Tidy@?$vector@EV?$allocator@E@std@@@std@@IEAAXXZ 0000000180015440 f i Matrix.obj
 0001:000144b0       ?_Buy@?$vector@EV?$allocator@E@std@@@std@@IEAA_N_K@Z 00000001800154b0 f i Matrix.obj
 0001:00014530       ?deallocate@?$_Wrap_alloc@V?$allocator@V?$Point_@H@cv@@@std@@@std@@QEAAXPEAV?$Point_@H@cv@@_K@Z 0000000180015530 f i Contours.obj
 0001:00014530       ?deallocate@?$_Wrap_alloc@V?$allocator@V?$Point_@M@cv@@@std@@@std@@QEAAXPEAV?$Point_@M@cv@@_K@Z 0000000180015530 f i Matrix.obj
 0001:000145a0       ?allocate@?$_Wrap_alloc@V?$allocator@V?$Point_@H@cv@@@std@@@std@@QEAAPEAV?$Point_@H@cv@@_K@Z 00000001800155a0 f i Contours.obj
 0001:000145a0       ?allocate@?$_Wrap_alloc@V?$allocator@V?$Point_@M@cv@@@std@@@std@@QEAAPEAV?$Point_@M@cv@@_K@Z 00000001800155a0 f i Matrix.obj
 0001:00014610       ?deallocate@?$_Wrap_alloc@V?$allocator@V?$Vec@H$03@cv@@@std@@@std@@QEAAXPEAV?$Vec@H$03@cv@@_K@Z 0000000180015610 f i Matrix.obj
 0001:00014610       ?deallocate@?$_Wrap_alloc@V?$allocator@UDMatch@cv@@@std@@@std@@QEAAXPEAUDMatch@cv@@_K@Z 0000000180015610 f i Features2d.obj
 0001:00014610       ?deallocate@?$_Wrap_alloc@V?$allocator@V?$Rect_@H@cv@@@std@@@std@@QEAAXPEAV?$Rect_@H@cv@@_K@Z 0000000180015610 f i CascadeClassifierWrap.obj
 0001:00014680       ?deallocate@?$_Wrap_alloc@V?$allocator@VMat@cv@@@std@@@std@@QEAAXPEAVMat@cv@@_K@Z 0000000180015680 f i Matrix.obj
 0001:000146f0       ?allocate@?$_Wrap_alloc@V?$allocator@VMat@cv@@@std@@@std@@QEAAPEAVMat@cv@@_K@Z 00000001800156f0 f i Matrix.obj
 0001:00014760       ?deallocate@?$_Wrap_alloc@V?$allocator@H@std@@@std@@QEAAXPEAH_K@Z 0000000180015760 f i Matrix.obj
 0001:000147d0       ?allocate@?$_Wrap_alloc@V?$allocator@H@std@@@std@@QEAAPEAH_K@Z 00000001800157d0 f i Matrix.obj
 0001:00014840       ?_Reallocate@?$vector@HV?$allocator@H@std@@@std@@IEAAX_K@Z 0000000180015840 f i Matrix.obj
 0001:00014920       ?_Reallocate@?$vector@VMat@cv@@V?$allocator@VMat@cv@@@std@@@std@@IEAAX_K@Z 0000000180015920 f i Matrix.obj
 0001:00014aa0       ??$New@VBoolean@v8@@_N@Nan@@YA?AV?$Local@VBoolean@v8@@@v8@@_N@Z 0000000180015aa0 f i Matrix.obj
 0001:00014af0       ??$New@VNumber@v8@@N@Nan@@YA?AV?$Local@VNumber@v8@@@v8@@N@Z 0000000180015af0 f i Matrix.obj
 0001:00014b30       ??$New@VString@v8@@PEBD@Nan@@YA?AV?$MaybeLocal@VString@v8@@@v8@@PEBD@Z 0000000180015b30 f i Matrix.obj
 0001:00014b70       ??$New@VObject@v8@@@Nan@@YA?AV?$Local@VObject@v8@@@v8@@XZ 0000000180015b70 f i Matrix.obj
 0001:00014ba0       ??$SetMethod@VFunctionTemplate@v8@@VLocal@2@@Nan@@YAXV?$Local@VFunctionTemplate@v8@@@v8@@PEBDP6AXAEBV?$FunctionCallbackInfo@VValue@v8@@@0@@Z@Z 0000000180015ba0 f i Matrix.obj
 0001:00014c70       ??$Unwrap@VStereoSGBM@@@ObjectWrap@Nan@@SAPEAVStereoSGBM@@V?$Local@VObject@v8@@@v8@@@Z 0000000180015c70 f i Stereo.obj
 0001:00014c70       ??$Unwrap@VBackgroundSubtractorWrap@@@ObjectWrap@Nan@@SAPEAVBackgroundSubtractorWrap@@V?$Local@VObject@v8@@@v8@@@Z 0000000180015c70 f i BackgroundSubtractor.obj
 0001:00014c70       ??$Unwrap@VNamedWindow@@@ObjectWrap@Nan@@SAPEAVNamedWindow@@V?$Local@VObject@v8@@@v8@@@Z 0000000180015c70 f i HighGUI.obj
 0001:00014c70       ??$Unwrap@VPoint@@@ObjectWrap@Nan@@SAPEAVPoint@@V?$Local@VObject@v8@@@v8@@@Z 0000000180015c70 f i Point.obj
 0001:00014c70       ??$Unwrap@VMatrix@@@ObjectWrap@Nan@@SAPEAVMatrix@@V?$Local@VObject@v8@@@v8@@@Z 0000000180015c70 f i Matrix.obj
 0001:00014c70       ??$Unwrap@VVideoCaptureWrap@@@ObjectWrap@Nan@@SAPEAVVideoCaptureWrap@@V?$Local@VObject@v8@@@v8@@@Z 0000000180015c70 f i VideoCaptureWrap.obj
 0001:00014c70       ??$Unwrap@VContour@@@ObjectWrap@Nan@@SAPEAVContour@@V?$Local@VObject@v8@@@v8@@@Z 0000000180015c70 f i Matrix.obj
 0001:00014c70       ??$Unwrap@VCascadeClassifierWrap@@@ObjectWrap@Nan@@SAPEAVCascadeClassifierWrap@@V?$Local@VObject@v8@@@v8@@@Z 0000000180015c70 f i CascadeClassifierWrap.obj
 0001:00014c70       ??$Unwrap@VStereoBM@@@ObjectWrap@Nan@@SAPEAVStereoBM@@V?$Local@VObject@v8@@@v8@@@Z 0000000180015c70 f i Stereo.obj
 0001:00014c70       ??$Unwrap@VTrackedObject@@@ObjectWrap@Nan@@SAPEAVTrackedObject@@V?$Local@VObject@v8@@@v8@@@Z 0000000180015c70 f i CamShift.obj
 0001:00014c70       ??$Unwrap@VStereoGC@@@ObjectWrap@Nan@@SAPEAVStereoGC@@V?$Local@VObject@v8@@@v8@@@Z 0000000180015c70 f i Stereo.obj
 0001:00014c70       ??$Unwrap@VFaceRecognizerWrap@@@ObjectWrap@Nan@@SAPEAVFaceRecognizerWrap@@V?$Local@VObject@v8@@@v8@@@Z 0000000180015c70 f i FaceRecognizer.obj
 0001:00014cf0       ??$New@VArray@v8@@_K@Nan@@YA?AV?$Local@VArray@v8@@@v8@@_K@Z 0000000180015cf0 f i Matrix.obj
 0001:00014d30       ??$New@VNumber@v8@@M@Nan@@YA?AV?$Local@VNumber@v8@@@v8@@M@Z 0000000180015d30 f i Matrix.obj
 0001:00014d70       ??$New@VNumber@v8@@I@Nan@@YA?AV?$Local@VNumber@v8@@@v8@@I@Z 0000000180015d70 f i Matrix.obj
 0001:00014db0       ??$end@H@Mat@cv@@QEAA?AV?$MatIterator_@H@1@XZ 0000000180015db0 f i Matrix.obj
 0001:00014ef0       ??$_Uninitialized_default_fill_n1@PEAVMat@cv@@_KV?$allocator@VMat@cv@@@std@@@std@@YAXPEAVMat@cv@@_KAEAU?$_Wrap_alloc@V?$allocator@VMat@cv@@@std@@@0@U?$integral_constant@_N$0A@@0@@Z 0000000180015ef0 f i Matrix.obj
 0001:00014f70       sprintf                    0000000180015f70 f i OpenCV.obj
 0001:00014fd0       ??0Mat@cv@@QEAA@HHHPEAX_K@Z 0000000180015fd0 f i OpenCV.obj
 0001:00015090       ?GetFunction@Nan@@YA?AV?$MaybeLocal@VFunction@v8@@@v8@@V?$Local@VFunctionTemplate@v8@@@3@@Z 0000000180016090 f i OpenCV.obj
 0001:00015110       ?Error@Nan@@YA?AV?$Local@VValue@v8@@@v8@@PEBD@Z 0000000180016110 f i OpenCV.obj
 0001:000151c0       ?Init@OpenCV@@SAXV?$Local@VObject@v8@@@v8@@@Z 00000001800161c0 f   OpenCV.obj
 0001:000152e0       ?ReadImage@OpenCV@@SAXAEBV?$FunctionCallbackInfo@VValue@v8@@@Nan@@@Z 00000001800162e0 f   OpenCV.obj
 0001:00015950       ??$SetMethod@VObject@v8@@VLocal@2@@Nan@@YAXV?$Local@VObject@v8@@@v8@@PEBDP6AXAEBV?$FunctionCallbackInfo@VValue@v8@@@0@@Z@Z 0000000180016950 f i OpenCV.obj
 0001:00015a10       ??$SetMethodAux@V?$Local@VObject@v8@@@v8@@@imp@Nan@@YAXV?$Local@VObject@v8@@@v8@@V?$Local@VString@v8@@@3@V?$Local@VFunctionTemplate@v8@@@3@ZZ 0000000180016a10 f i OpenCV.obj
 0001:00015a60       ?SetErrorMessage@AsyncWorker@Nan@@IEAAXPEBD@Z 0000000180016a60 f i CascadeClassifierWrap.obj
 0001:00015ac0       ?Init@CascadeClassifierWrap@@SAXV?$Local@VObject@v8@@@v8@@@Z 0000000180016ac0 f   CascadeClassifierWrap.obj
 0001:00015c30       ?New@CascadeClassifierWrap@@SAXAEBV?$FunctionCallbackInfo@VValue@v8@@@Nan@@@Z 0000000180016c30 f   CascadeClassifierWrap.obj
 0001:00015cf0       ??0CascadeClassifierWrap@@QEAA@PEAVValue@v8@@@Z 0000000180016cf0 f   CascadeClassifierWrap.obj
 0001:00016060       ??_GCascadeClassifierWrap@@UEAAPEAXI@Z 0000000180017060 f i CascadeClassifierWrap.obj
 0001:00016060       ??_ECascadeClassifierWrap@@UEAAPEAXI@Z 0000000180017060 f i * CIL library *:* CIL module *
 0001:000160c0       ??0AsyncDetectMultiScale@@QEAA@PEAVCallback@Nan@@PEAVCascadeClassifierWrap@@PEAVMatrix@@NHHH@Z 00000001800170c0 f i CascadeClassifierWrap.obj
 0001:00016160       ?Execute@AsyncDetectMultiScale@@UEAAXXZ 0000000180017160 f i CascadeClassifierWrap.obj
 0001:00016480       ?HandleOKCallback@AsyncDetectMultiScale@@UEAAXXZ 0000000180017480 f i CascadeClassifierWrap.obj
 0001:000167b0       ??_EAsyncDetectMultiScale@@UEAAPEAXI@Z 00000001800177b0 f i * CIL library *:* CIL module *
 0001:000167b0       ??_GAsyncDetectMultiScale@@UEAAPEAXI@Z 00000001800177b0 f i CascadeClassifierWrap.obj
 0001:00016840       ?DetectMultiScale@CascadeClassifierWrap@@SAXAEBV?$FunctionCallbackInfo@VValue@v8@@@Nan@@@Z 0000000180017840 f   CascadeClassifierWrap.obj
 0001:00016b20       ??4?$basic_string@DU?$char_traits@D@std@@V?$allocator@D@2@@std@@QEAAAEAV01@$$QEAV01@@Z 0000000180017b20 f i CascadeClassifierWrap.obj
 0001:00016bd0       ?_Buy@?$vector@V?$Rect_@H@cv@@V?$allocator@V?$Rect_@H@cv@@@std@@@std@@IEAA_N_K@Z 0000000180017bd0 f i CascadeClassifierWrap.obj
 0001:00016c70       ??$_Copy_unchecked@PEAV?$Rect_@H@cv@@PEAV12@@std@@YAPEAV?$Rect_@H@cv@@PEAV12@00@Z 0000000180017c70 f i CascadeClassifierWrap.obj
 0001:00016cc0       ??$_Ucopy@PEAV?$Vec@H$03@cv@@@?$vector@V?$Vec@H$03@cv@@V?$allocator@V?$Vec@H$03@cv@@@std@@@std@@IEAAPEAV?$Vec@H$03@cv@@PEAV23@00@Z 0000000180017cc0 f i Contours.obj
 0001:00016cc0       ??$_Ucopy@PEAV?$Rect_@H@cv@@@?$vector@V?$Rect_@H@cv@@V?$allocator@V?$Rect_@H@cv@@@std@@@std@@IEAAPEAV?$Rect_@H@cv@@PEAV23@00@Z 0000000180017cc0 f i CascadeClassifierWrap.obj
 0001:00016d30       ?Init@Contour@@SAXV?$Local@VObject@v8@@@v8@@@Z 0000000180017d30 f   Contours.obj
 0001:00016ff0       ?New@Contour@@SAXAEBV?$FunctionCallbackInfo@VValue@v8@@@Nan@@@Z 0000000180017ff0 f   Contours.obj
 0001:00017120       ??_EContour@@UEAAPEAXI@Z   0000000180018120 f i * CIL library *:* CIL module *
 0001:00017120       ??_GContour@@UEAAPEAXI@Z   0000000180018120 f i Contours.obj
 0001:00017160       ??1Contour@@UEAA@XZ        0000000180018160 f i Contours.obj
 0001:000171f0       ?Point@Contour@@SAXAEBV?$FunctionCallbackInfo@VValue@v8@@@Nan@@@Z 00000001800181f0 f   Contours.obj
 0001:000173f0       ?Points@Contour@@SAXAEBV?$FunctionCallbackInfo@VValue@v8@@@Nan@@@Z 00000001800183f0 f   Contours.obj
 0001:00017620       ?Size@Contour@@SAXAEBV?$FunctionCallbackInfo@VValue@v8@@@Nan@@@Z 0000000180018620 f   Contours.obj
 0001:000176f0       ?CornerCount@Contour@@SAXAEBV?$FunctionCallbackInfo@VValue@v8@@@Nan@@@Z 00000001800186f0 f   Contours.obj
 0001:000177e0       ?Area@Contour@@SAXAEBV?$FunctionCallbackInfo@VValue@v8@@@Nan@@@Z 00000001800187e0 f   Contours.obj
 0001:000179a0       ?ArcLength@Contour@@SAXAEBV?$FunctionCallbackInfo@VValue@v8@@@Nan@@@Z 00000001800189a0 f   Contours.obj
 0001:00017b90       ?ApproxPolyDP@Contour@@SAXAEBV?$FunctionCallbackInfo@VValue@v8@@@Nan@@@Z 0000000180018b90 f   Contours.obj
 0001:00017e40       ?ConvexHull@Contour@@SAXAEBV?$FunctionCallbackInfo@VValue@v8@@@Nan@@@Z 0000000180018e40 f   Contours.obj
 0001:000180c0       ?BoundingRect@Contour@@SAXAEBV?$FunctionCallbackInfo@VValue@v8@@@Nan@@@Z 00000001800190c0 f   Contours.obj
 0001:00018440       ?MinAreaRect@Contour@@SAXAEBV?$FunctionCallbackInfo@VValue@v8@@@Nan@@@Z 0000000180019440 f   Contours.obj
 0001:00018a50       ?FitEllipse@Contour@@SAXAEBV?$FunctionCallbackInfo@VValue@v8@@@Nan@@@Z 0000000180019a50 f   Contours.obj
 0001:00018f30       ?IsConvex@Contour@@SAXAEBV?$FunctionCallbackInfo@VValue@v8@@@Nan@@@Z 0000000180019f30 f   Contours.obj
 0001:000190e0       ?Moments@Contour@@SAXAEBV?$FunctionCallbackInfo@VValue@v8@@@Nan@@@Z 000000018001a0e0 f   Contours.obj
 0001:00019390       ?Hierarchy@Contour@@SAXAEBV?$FunctionCallbackInfo@VValue@v8@@@Nan@@@Z 000000018001a390 f   Contours.obj
 0001:00019580       ?Serialize@Contour@@SAXAEBV?$FunctionCallbackInfo@VValue@v8@@@Nan@@@Z 000000018001a580 f   Contours.obj
 0001:00019aa0       ?Deserialize@Contour@@SAXAEBV?$FunctionCallbackInfo@VValue@v8@@@Nan@@@Z 000000018001aaa0 f   Contours.obj
 0001:00019e70       ??4?$vector@V?$Vec@H$03@cv@@V?$allocator@V?$Vec@H$03@cv@@@std@@@std@@QEAAAEAV01@AEBV01@@Z 000000018001ae70 f i Contours.obj
 0001:00019fd0       ?push_back@?$vector@V?$Vec@H$03@cv@@V?$allocator@V?$Vec@H$03@cv@@@std@@@std@@QEAAX$$QEAV?$Vec@H$03@cv@@@Z 000000018001afd0 f i Contours.obj
 0001:0001a160       ?push_back@?$vector@V?$vector@V?$Point_@H@cv@@V?$allocator@V?$Point_@H@cv@@@std@@@std@@V?$allocator@V?$vector@V?$Point_@H@cv@@V?$allocator@V?$Point_@H@cv@@@std@@@std@@@2@@std@@QEAAXAEBV?$vector@V?$Point_@H@cv@@V?$allocator@V?$Point_@H@cv@@@std@@@2@@Z 000000018001b160 f i Contours.obj
 0001:0001a380       ??4?$vector@V?$vector@V?$Point_@H@cv@@V?$allocator@V?$Point_@H@cv@@@std@@@std@@V?$allocator@V?$vector@V?$Point_@H@cv@@V?$allocator@V?$Point_@H@cv@@@std@@@std@@@2@@std@@QEAAAEAV01@AEBV01@@Z 000000018001b380 f i Contours.obj
 0001:0001a560       ??1?$vector@V?$vector@V?$Point_@H@cv@@V?$allocator@V?$Point_@H@cv@@@std@@@std@@V?$allocator@V?$vector@V?$Point_@H@cv@@V?$allocator@V?$Point_@H@cv@@@std@@@std@@@2@@std@@QEAA@XZ 000000018001b560 f i Contours.obj
 0001:0001a570       ?push_back@?$vector@V?$Point_@H@cv@@V?$allocator@V?$Point_@H@cv@@@std@@@std@@QEAAX$$QEAV?$Point_@H@cv@@@Z 000000018001b570 f i Contours.obj
 0001:0001a6f0       ??0?$vector@V?$Point_@H@cv@@V?$allocator@V?$Point_@H@cv@@@std@@@std@@QEAA@AEBV01@@Z 000000018001b6f0 f i Contours.obj
 0001:0001a7c0       ?deallocate@?$_Wrap_alloc@V?$allocator@V?$vector@V?$Point_@H@cv@@V?$allocator@V?$Point_@H@cv@@@std@@@std@@@std@@@std@@QEAAXPEAV?$vector@V?$Point_@H@cv@@V?$allocator@V?$Point_@H@cv@@@std@@@2@_K@Z 000000018001b7c0 f i Contours.obj
 0001:0001a7c0       ?deallocate@?$_Wrap_alloc@V?$allocator@V?$vector@V?$Point_@M@cv@@V?$allocator@V?$Point_@M@cv@@@std@@@std@@@std@@@std@@QEAAXPEAV?$vector@V?$Point_@M@cv@@V?$allocator@V?$Point_@M@cv@@@std@@@2@_K@Z 000000018001b7c0 f i Calib3D.obj
 0001:0001a7c0       ?deallocate@?$_Wrap_alloc@V?$allocator@V?$vector@V?$Point3_@M@cv@@V?$allocator@V?$Point3_@M@cv@@@std@@@std@@@std@@@std@@QEAAXPEAV?$vector@V?$Point3_@M@cv@@V?$allocator@V?$Point3_@M@cv@@@std@@@2@_K@Z 000000018001b7c0 f i Calib3D.obj
 0001:0001a830       ?_Tidy@?$vector@V?$vector@V?$Point_@H@cv@@V?$allocator@V?$Point_@H@cv@@@std@@@std@@V?$allocator@V?$vector@V?$Point_@H@cv@@V?$allocator@V?$Point_@H@cv@@@std@@@std@@@2@@std@@IEAAXXZ 000000018001b830 f i Contours.obj
 0001:0001a830       ??1?$vector@V?$vector@V?$Point_@M@cv@@V?$allocator@V?$Point_@M@cv@@@std@@@std@@V?$allocator@V?$vector@V?$Point_@M@cv@@V?$allocator@V?$Point_@M@cv@@@std@@@std@@@2@@std@@QEAA@XZ 000000018001b830 f i Calib3D.obj
 0001:0001a8e0       ?_Destroy@?$vector@V?$vector@V?$Point_@H@cv@@V?$allocator@V?$Point_@H@cv@@@std@@@std@@V?$allocator@V?$vector@V?$Point_@H@cv@@V?$allocator@V?$Point_@H@cv@@@std@@@std@@@2@@std@@IEAAXPEAV?$vector@V?$Point_@H@cv@@V?$allocator@V?$Point_@H@cv@@@std@@@2@0@Z 000000018001b8e0 f i Contours.obj
 0001:0001a940       ?clear@?$vector@V?$vector@V?$Point_@H@cv@@V?$allocator@V?$Point_@H@cv@@@std@@@std@@V?$allocator@V?$vector@V?$Point_@H@cv@@V?$allocator@V?$Point_@H@cv@@@std@@@std@@@2@@std@@QEAAXXZ 000000018001b940 f i Contours.obj
 0001:0001a9d0       ?_Buy@?$vector@V?$Point_@H@cv@@V?$allocator@V?$Point_@H@cv@@@std@@@std@@IEAA_N_K@Z 000000018001b9d0 f i Contours.obj
 0001:0001aa30       ?allocate@?$_Wrap_alloc@V?$allocator@V?$Vec@H$03@cv@@@std@@@std@@QEAAPEAV?$Vec@H$03@cv@@_K@Z 000000018001ba30 f i Contours.obj
 0001:0001aaa0       ?_Reallocate@?$vector@V?$Vec@H$03@cv@@V?$allocator@V?$Vec@H$03@cv@@@std@@@std@@IEAAX_K@Z 000000018001baa0 f i Contours.obj
 0001:0001abb0       ?allocate@?$_Wrap_alloc@V?$allocator@V?$vector@V?$Point_@H@cv@@V?$allocator@V?$Point_@H@cv@@@std@@@std@@@std@@@std@@QEAAPEAV?$vector@V?$Point_@H@cv@@V?$allocator@V?$Point_@H@cv@@@std@@@2@_K@Z 000000018001bbb0 f i Contours.obj
 0001:0001ac20       ?_Reallocate@?$vector@V?$vector@V?$Point_@H@cv@@V?$allocator@V?$Point_@H@cv@@@std@@@std@@V?$allocator@V?$vector@V?$Point_@H@cv@@V?$allocator@V?$Point_@H@cv@@@std@@@std@@@2@@std@@IEAAX_K@Z 000000018001bc20 f i Contours.obj
 0001:0001ac20       ?_Reallocate@?$vector@V?$vector@V?$Point_@M@cv@@V?$allocator@V?$Point_@M@cv@@@std@@@std@@V?$allocator@V?$vector@V?$Point_@M@cv@@V?$allocator@V?$Point_@M@cv@@@std@@@std@@@2@@std@@IEAAX_K@Z 000000018001bc20 f i Calib3D.obj
 0001:0001adc0       ?_Reallocate@?$vector@V?$Point_@H@cv@@V?$allocator@V?$Point_@H@cv@@@std@@@std@@IEAAX_K@Z 000000018001bdc0 f i Contours.obj
 0001:0001adc0       ?_Reallocate@?$vector@V?$Point_@M@cv@@V?$allocator@V?$Point_@M@cv@@@std@@@std@@IEAAX_K@Z 000000018001bdc0 f i Calib3D.obj
 0001:0001aec0       ??$_Copy_unchecked@PEAV?$vector@V?$Point_@H@cv@@V?$allocator@V?$Point_@H@cv@@@std@@@std@@PEAV12@@std@@YAPEAV?$vector@V?$Point_@H@cv@@V?$allocator@V?$Point_@H@cv@@@std@@@0@PEAV10@00@Z 000000018001bec0 f i Contours.obj
 0001:0001af10       ??$_Ucopy@PEAV?$vector@V?$Point_@H@cv@@V?$allocator@V?$Point_@H@cv@@@std@@@std@@@?$vector@V?$vector@V?$Point_@H@cv@@V?$allocator@V?$Point_@H@cv@@@std@@@std@@V?$allocator@V?$vector@V?$Point_@H@cv@@V?$allocator@V?$Point_@H@cv@@@std@@@std@@@2@@std@@IEAAPEAV?$vector@V?$Point_@H@cv@@V?$allocator@V?$Point_@H@cv@@@std@@@1@PEAV21@00@Z 000000018001bf10 f i Contours.obj
 0001:0001af80       ??4?$vector@V?$Point_@H@cv@@V?$allocator@V?$Point_@H@cv@@@std@@@std@@QEAAAEAV01@AEBV01@@Z 000000018001bf80 f i Contours.obj
 0001:0001b2a0       ?SetAccessor@Nan@@YAXV?$Local@VObjectTemplate@v8@@@v8@@V?$Local@VString@v8@@@3@P6AX1AEBV?$PropertyCallbackInfo@VValue@v8@@@1@@ZP6AX1V?$Local@VValue@v8@@@3@AEBV?$PropertyCallbackInfo@X@1@@Z4W4AccessControl@3@W4PropertyAttribute@3@V?$Local@VAccessorSignature@v8@@@3@@Z 000000018001c2a0 f i Point.obj
 0001:0001b400       ?Init@Point@@SAXV?$Local@VObject@v8@@@v8@@@Z 000000018001c400 f   Point.obj
 0001:0001b620       ?New@Point@@SAXAEBV?$FunctionCallbackInfo@VValue@v8@@@Nan@@@Z 000000018001c620 f   Point.obj
 0001:0001b7b0       ?GetX@Point@@SAXV?$Local@VString@v8@@@v8@@AEBV?$PropertyCallbackInfo@VValue@v8@@@Nan@@@Z 000000018001c7b0 f   Point.obj
 0001:0001b850       ?GetY@Point@@SAXV?$Local@VString@v8@@@v8@@AEBV?$PropertyCallbackInfo@VValue@v8@@@Nan@@@Z 000000018001c850 f   Point.obj
 0001:0001b8f0       ?RaiseImmutable@Point@@SAXV?$Local@VString@v8@@@v8@@V?$Local@VValue@v8@@@3@AEBV?$PropertyCallbackInfo@X@Nan@@@Z 000000018001c8f0 f   Point.obj
 0001:0001b910       ?Dot@Point@@SAXAEBV?$FunctionCallbackInfo@VValue@v8@@@Nan@@@Z 000000018001c910 f   Point.obj
 0001:0001b9f0       ??_GStereoGC@@UEAAPEAXI@Z  000000018001c9f0 f i Stereo.obj
 0001:0001b9f0       ??_EStereoGC@@UEAAPEAXI@Z  000000018001c9f0 f i * CIL library *:* CIL module *
 0001:0001b9f0       ??_EPoint@@UEAAPEAXI@Z     000000018001c9f0 f i * CIL library *:* CIL module *
 0001:0001b9f0       ??_GPoint@@UEAAPEAXI@Z     000000018001c9f0 f i Point.obj
 0001:0001ba40       ?Init@VideoCaptureWrap@@SAXV?$Local@VObject@v8@@@v8@@@Z 000000018001ca40 f   VideoCaptureWrap.obj
 0001:0001bc70       ?New@VideoCaptureWrap@@SAXAEBV?$FunctionCallbackInfo@VValue@v8@@@Nan@@@Z 000000018001cc70 f   VideoCaptureWrap.obj
 0001:0001be90       ??0VideoCaptureWrap@@QEAA@H@Z 000000018001ce90 f   VideoCaptureWrap.obj
 0001:0001bf40       ??_GVideoCaptureWrap@@UEAAPEAXI@Z 000000018001cf40 f i VideoCaptureWrap.obj
 0001:0001bf40       ??_EVideoCaptureWrap@@UEAAPEAXI@Z 000000018001cf40 f i * CIL library *:* CIL module *
 0001:0001bfa0       ??0VideoCaptureWrap@@QEAA@AEBV?$basic_string@DU?$char_traits@D@std@@V?$allocator@D@2@@std@@@Z 000000018001cfa0 f   VideoCaptureWrap.obj
 0001:0001c060       ?SetWidth@VideoCaptureWrap@@SAXAEBV?$FunctionCallbackInfo@VValue@v8@@@Nan@@@Z 000000018001d060 f   VideoCaptureWrap.obj
 0001:0001c120       ?GetFrameCount@VideoCaptureWrap@@SAXAEBV?$FunctionCallbackInfo@VValue@v8@@@Nan@@@Z 000000018001d120 f   VideoCaptureWrap.obj
 0001:0001c1d0       ?SetHeight@VideoCaptureWrap@@SAXAEBV?$FunctionCallbackInfo@VValue@v8@@@Nan@@@Z 000000018001d1d0 f   VideoCaptureWrap.obj
 0001:0001c270       ?SetPosition@VideoCaptureWrap@@SAXAEBV?$FunctionCallbackInfo@VValue@v8@@@Nan@@@Z 000000018001d270 f   VideoCaptureWrap.obj
 0001:0001c310       ?GetFrameAt@VideoCaptureWrap@@SAXAEBV?$FunctionCallbackInfo@VValue@v8@@@Nan@@@Z 000000018001d310 f   VideoCaptureWrap.obj
 0001:0001c3b0       ?Release@VideoCaptureWrap@@SAXAEBV?$FunctionCallbackInfo@VValue@v8@@@Nan@@@Z 000000018001d3b0 f   VideoCaptureWrap.obj
 0001:0001c410       ??0AsyncVCWorker@@QEAA@PEAVCallback@Nan@@PEAVVideoCaptureWrap@@_NH@Z 000000018001d410 f i VideoCaptureWrap.obj
 0001:0001c4e0       ?Execute@AsyncVCWorker@@UEAAXXZ 000000018001d4e0 f i VideoCaptureWrap.obj
 0001:0001c560       ?HandleOKCallback@AsyncVCWorker@@UEAAXXZ 000000018001d560 f i VideoCaptureWrap.obj
 0001:0001c680       ??_EAsyncVCWorker@@UEAAPEAXI@Z 000000018001d680 f i * CIL library *:* CIL module *
 0001:0001c680       ??_GAsyncVCWorker@@UEAAPEAXI@Z 000000018001d680 f i VideoCaptureWrap.obj
 0001:0001c710       ?Read@VideoCaptureWrap@@SAXAEBV?$FunctionCallbackInfo@VValue@v8@@@Nan@@@Z 000000018001d710 f   VideoCaptureWrap.obj
 0001:0001c840       ?ReadSync@VideoCaptureWrap@@SAXAEBV?$FunctionCallbackInfo@VValue@v8@@@Nan@@@Z 000000018001d840 f   VideoCaptureWrap.obj
 0001:0001c910       ?Execute@AsyncGrabWorker@@UEAAXXZ 000000018001d910 f i VideoCaptureWrap.obj
 0001:0001c970       ??_GAsyncGrabWorker@@UEAAPEAXI@Z 000000018001d970 f i VideoCaptureWrap.obj
 0001:0001c970       ??_EAsyncGrabWorker@@UEAAPEAXI@Z 000000018001d970 f i * CIL library *:* CIL module *
 0001:0001c9c0       ?Grab@VideoCaptureWrap@@SAXAEBV?$FunctionCallbackInfo@VValue@v8@@@Nan@@@Z 000000018001d9c0 f   VideoCaptureWrap.obj
 0001:0001caf0       ?Retrieve@VideoCaptureWrap@@SAXAEBV?$FunctionCallbackInfo@VValue@v8@@@Nan@@@Z 000000018001daf0 f   VideoCaptureWrap.obj
 0001:0001cc70       ?Init@TrackedObject@@SAXV?$Local@VObject@v8@@@v8@@@Z 000000018001dc70 f   CamShift.obj
 0001:0001cde0       ?New@TrackedObject@@SAXAEBV?$FunctionCallbackInfo@VValue@v8@@@Nan@@@Z 000000018001dde0 f   CamShift.obj
 0001:0001d3d0       ?update_chann_image@@YAXPEAVTrackedObject@@VMat@cv@@@Z 000000018001e3d0 f   CamShift.obj
 0001:0001d580       ??0TrackedObject@@QEAA@VMat@cv@@V?$Rect_@H@2@H@Z 000000018001e580 f   CamShift.obj
 0001:0001d900       ??_ETrackedObject@@UEAAPEAXI@Z 000000018001e900 f i * CIL library *:* CIL module *
 0001:0001d900       ??_GTrackedObject@@UEAAPEAXI@Z 000000018001e900 f i CamShift.obj
 0001:0001d940       ??1TrackedObject@@UEAA@XZ  000000018001e940 f i CamShift.obj
 0001:0001da30       ?Track@TrackedObject@@SAXAEBV?$FunctionCallbackInfo@VValue@v8@@@Nan@@@Z 000000018001ea30 f   CamShift.obj
 0001:0001de30       ?Init@NamedWindow@@SAXV?$Local@VObject@v8@@@v8@@@Z 000000018001ee30 f   HighGUI.obj
 0001:0001dfd0       ?New@NamedWindow@@SAXAEBV?$FunctionCallbackInfo@VValue@v8@@@Nan@@@Z 000000018001efd0 f   HighGUI.obj
 0001:0001e320       ??0NamedWindow@@QEAA@AEBV?$basic_string@DU?$char_traits@D@std@@V?$allocator@D@2@@std@@H@Z 000000018001f320 f   HighGUI.obj
 0001:0001e460       ??_ENamedWindow@@UEAAPEAXI@Z 000000018001f460 f i * CIL library *:* CIL module *
 0001:0001e460       ??_GNamedWindow@@UEAAPEAXI@Z 000000018001f460 f i HighGUI.obj
 0001:0001e4c0       ?Show@NamedWindow@@SAXAEBV?$FunctionCallbackInfo@VValue@v8@@@Nan@@@Z 000000018001f4c0 f   HighGUI.obj
 0001:0001e5a0       ?Destroy@NamedWindow@@SAXAEBV?$FunctionCallbackInfo@VValue@v8@@@Nan@@@Z 000000018001f5a0 f   HighGUI.obj
 0001:0001e620       ?BlockingWaitKey@NamedWindow@@SAXAEBV?$FunctionCallbackInfo@VValue@v8@@@Nan@@@Z 000000018001f620 f   HighGUI.obj
 0001:0001e6e0       ?fromMatrixOrFilename@@YA?AVMat@cv@@V?$Local@VValue@v8@@@v8@@@Z 000000018001f6e0 f   FaceRecognizer.obj
 0001:0001e910       ?Init@FaceRecognizerWrap@@SAXV?$Local@VObject@v8@@@v8@@@Z 000000018001f910 f   FaceRecognizer.obj
 0001:0001ebe0       ?New@FaceRecognizerWrap@@SAXAEBV?$FunctionCallbackInfo@VValue@v8@@@Nan@@@Z 000000018001fbe0 f   FaceRecognizer.obj
 0001:0001ed60       ?CreateLBPH@FaceRecognizerWrap@@SAXAEBV?$FunctionCallbackInfo@VValue@v8@@@Nan@@@Z 000000018001fd60 f   FaceRecognizer.obj
 0001:0001f090       ?CreateEigen@FaceRecognizerWrap@@SAXAEBV?$FunctionCallbackInfo@VValue@v8@@@Nan@@@Z 0000000180020090 f   FaceRecognizer.obj
 0001:0001f2c0       ?CreateFisher@FaceRecognizerWrap@@SAXAEBV?$FunctionCallbackInfo@VValue@v8@@@Nan@@@Z 00000001800202c0 f   FaceRecognizer.obj
 0001:0001f4f0       ??0FaceRecognizerWrap@@QEAA@V?$Ptr@VFaceRecognizer@cv@@@cv@@H@Z 00000001800204f0 f   FaceRecognizer.obj
 0001:0001f5a0       ??_GFaceRecognizerWrap@@UEAAPEAXI@Z 00000001800205a0 f i FaceRecognizer.obj
 0001:0001f5a0       ??_EFaceRecognizerWrap@@UEAAPEAXI@Z 00000001800205a0 f i * CIL library *:* CIL module *
 0001:0001f630       ?UnwrapTrainingData@@YA?AV?$Local@VValue@v8@@@v8@@AEBV?$FunctionCallbackInfo@VValue@v8@@@Nan@@PEAV?$vector@VMat@cv@@V?$allocator@VMat@cv@@@std@@@std@@PEAV?$vector@HV?$allocator@H@std@@@6@@Z 0000000180020630 f   FaceRecognizer.obj
 0001:0001fa10       ?TrainSync@FaceRecognizerWrap@@SAXAEBV?$FunctionCallbackInfo@VValue@v8@@@Nan@@@Z 0000000180020a10 f   FaceRecognizer.obj
 0001:0001fb50       ??0TrainASyncWorker@@QEAA@PEAVCallback@Nan@@V?$Ptr@VFaceRecognizer@cv@@@cv@@V?$vector@VMat@cv@@V?$allocator@VMat@cv@@@std@@@std@@V?$vector@HV?$allocator@H@std@@@6@@Z 0000000180020b50 f i FaceRecognizer.obj
 0001:0001fc50       ??1TrainASyncWorker@@UEAA@XZ 0000000180020c50 f i FaceRecognizer.obj
 0001:0001fd20       ?Execute@TrainASyncWorker@@UEAAXXZ 0000000180020d20 f i FaceRecognizer.obj
 0001:0001fd80       ??_ETrainASyncWorker@@UEAAPEAXI@Z 0000000180020d80 f i * CIL library *:* CIL module *
 0001:0001fd80       ??_GTrainASyncWorker@@UEAAPEAXI@Z 0000000180020d80 f i FaceRecognizer.obj
 0001:0001fdc0       ?Train@FaceRecognizerWrap@@SAXAEBV?$FunctionCallbackInfo@VValue@v8@@@Nan@@@Z 0000000180020dc0 f   FaceRecognizer.obj
 0001:00020020       ?UpdateSync@FaceRecognizerWrap@@SAXAEBV?$FunctionCallbackInfo@VValue@v8@@@Nan@@@Z 0000000180021020 f   FaceRecognizer.obj
 0001:00020190       ?PredictSync@FaceRecognizerWrap@@SAXAEBV?$FunctionCallbackInfo@VValue@v8@@@Nan@@@Z 0000000180021190 f   FaceRecognizer.obj
 0001:00020400       ??0PredictASyncWorker@@QEAA@PEAVCallback@Nan@@V?$Ptr@VFaceRecognizer@cv@@@cv@@VMat@4@@Z 0000000180021400 f i FaceRecognizer.obj
 0001:00020510       ??1PredictASyncWorker@@UEAA@XZ 0000000180021510 f i FaceRecognizer.obj
 0001:000205c0       ?Execute@PredictASyncWorker@@UEAAXXZ 00000001800215c0 f i FaceRecognizer.obj
 0001:00020610       ?HandleOKCallback@PredictASyncWorker@@UEAAXXZ 0000000180021610 f i FaceRecognizer.obj
 0001:000207f0       ??_GPredictASyncWorker@@UEAAPEAXI@Z 00000001800217f0 f i FaceRecognizer.obj
 0001:000207f0       ??_EPredictASyncWorker@@UEAAPEAXI@Z 00000001800217f0 f i * CIL library *:* CIL module *
 0001:00020830       ?Predict@FaceRecognizerWrap@@SAXAEBV?$FunctionCallbackInfo@VValue@v8@@@Nan@@@Z 0000000180021830 f   FaceRecognizer.obj
 0001:00020aa0       ?SaveSync@FaceRecognizerWrap@@SAXAEBV?$FunctionCallbackInfo@VValue@v8@@@Nan@@@Z 0000000180021aa0 f   FaceRecognizer.obj
 0001:00020c80       ?LoadSync@FaceRecognizerWrap@@SAXAEBV?$FunctionCallbackInfo@VValue@v8@@@Nan@@@Z 0000000180021c80 f   FaceRecognizer.obj
 0001:00020e60       ?GetMat@FaceRecognizerWrap@@SAXAEBV?$FunctionCallbackInfo@VValue@v8@@@Nan@@@Z 0000000180021e60 f   FaceRecognizer.obj
 0001:00021150       ??0?$vector@VMat@cv@@V?$allocator@VMat@cv@@@std@@@std@@QEAA@AEBV01@@Z 0000000180022150 f i FaceRecognizer.obj
 0001:00021240       ??1?$Ptr@VDescriptorMatcher@cv@@@cv@@QEAA@XZ 0000000180022240 f i Features2d.obj
 0001:00021240       ??1?$Ptr@VFaceRecognizer@cv@@@cv@@QEAA@XZ 0000000180022240 f i FaceRecognizer.obj
 0001:00021240       ??1?$Ptr@VBackgroundSubtractor@cv@@@cv@@QEAA@XZ 0000000180022240 f i BackgroundSubtractor.obj
 0001:000212a0       ??4?$Ptr@VBackgroundSubtractor@cv@@@cv@@QEAAAEAV01@AEBV01@@Z 00000001800222a0 f i BackgroundSubtractor.obj
 0001:000212a0       ??4?$Ptr@VFaceRecognizer@cv@@@cv@@QEAAAEAV01@AEBV01@@Z 00000001800222a0 f i FaceRecognizer.obj
 0001:00021330       ??0AsyncDetectSimilarity@@QEAA@PEAVCallback@Nan@@VMat@cv@@1@Z 0000000180022330 f i Features2d.obj
 0001:00021400       ??1AsyncDetectSimilarity@@UEAA@XZ 0000000180022400 f i Features2d.obj
 0001:00021490       ?Execute@AsyncDetectSimilarity@@UEAAXXZ 0000000180022490 f i Features2d.obj
 0001:00021d00       ?HandleOKCallback@AsyncDetectSimilarity@@UEAAXXZ 0000000180022d00 f i Features2d.obj
 0001:00021db0       ??_EAsyncDetectSimilarity@@UEAAPEAXI@Z 0000000180022db0 f i * CIL library *:* CIL module *
 0001:00021db0       ??_GAsyncDetectSimilarity@@UEAAPEAXI@Z 0000000180022db0 f i Features2d.obj
 0001:00021df0       ?Similarity@Features@@SAXAEBV?$FunctionCallbackInfo@VValue@v8@@@Nan@@@Z 0000000180022df0 f   Features2d.obj
 0001:00022050       ?push_back@?$vector@UDMatch@cv@@V?$allocator@UDMatch@cv@@@std@@@std@@QEAAXAEBUDMatch@cv@@@Z 0000000180023050 f i Features2d.obj
 0001:000221c0       ??1?$vector@VKeyPoint@cv@@V?$allocator@VKeyPoint@cv@@@std@@@std@@QEAA@XZ 00000001800231c0 f i Features2d.obj
 0001:00022270       ?_Reallocate@?$vector@UDMatch@cv@@V?$allocator@UDMatch@cv@@@std@@@std@@IEAAX_K@Z 0000000180023270 f i Features2d.obj
 0001:00022370       ??1?$Ptr@VDescriptorExtractor@cv@@@cv@@QEAA@XZ 0000000180023370 f i Features2d.obj
 0001:00022370       ??1?$Ptr@VFeatureDetector@cv@@@cv@@QEAA@XZ 0000000180023370 f i Features2d.obj
 0001:000223e0       ?Init@BackgroundSubtractorWrap@@SAXV?$Local@VObject@v8@@@v8@@@Z 00000001800233e0 f   BackgroundSubtractor.obj
 0001:000225e0       ?New@BackgroundSubtractorWrap@@SAXAEBV?$FunctionCallbackInfo@VValue@v8@@@Nan@@@Z 00000001800235e0 f   BackgroundSubtractor.obj
 0001:000226c0       ?CreateMOG@BackgroundSubtractorWrap@@SAXAEBV?$FunctionCallbackInfo@VValue@v8@@@Nan@@@Z 00000001800236c0 f   BackgroundSubtractor.obj
 0001:000227c0       ?ApplyMOG@BackgroundSubtractorWrap@@SAXAEBV?$FunctionCallbackInfo@VValue@v8@@@Nan@@@Z 00000001800237c0 f   BackgroundSubtractor.obj
 0001:00022e30       ??0BackgroundSubtractorWrap@@QEAA@V?$Ptr@VBackgroundSubtractor@cv@@@cv@@@Z 0000000180023e30 f   BackgroundSubtractor.obj
 0001:00022ed0       ??_GBackgroundSubtractorWrap@@UEAAPEAXI@Z 0000000180023ed0 f i BackgroundSubtractor.obj
 0001:00022ed0       ??_EBackgroundSubtractorWrap@@UEAAPEAXI@Z 0000000180023ed0 f i * CIL library *:* CIL module *
 0001:00022f60       ?Init@Constants@@SAXV?$Local@VObject@v8@@@v8@@@Z 0000000180023f60 f   Constants.obj
 0001:00024d30       ?matrixFromMat@@YA?AV?$Local@VObject@v8@@@v8@@AEAVMat@cv@@@Z 0000000180025d30 f i Calib3D.obj
 0001:00024da0       ?matFromMatrix@@YA?AVMat@cv@@V?$Local@VValue@v8@@@v8@@@Z 0000000180025da0 f i Calib3D.obj
 0001:00024e00       ?sizeFromArray@@YA?AV?$Size_@H@cv@@V?$Local@VValue@v8@@@v8@@@Z 0000000180025e00 f i Calib3D.obj
 0001:00024eb0       ?points2fFromArray@@YA?AV?$vector@V?$Point_@M@cv@@V?$allocator@V?$Point_@M@cv@@@std@@@std@@V?$Local@VValue@v8@@@v8@@@Z 0000000180025eb0 f i Calib3D.obj
 0001:00025070       ?points3fFromArray@@YA?AV?$vector@V?$Point3_@M@cv@@V?$allocator@V?$Point3_@M@cv@@@std@@@std@@V?$Local@VValue@v8@@@v8@@@Z 0000000180026070 f i Calib3D.obj
 0001:000252b0       ?points2fFromArrayOfArrays@@YA?AV?$vector@V?$vector@V?$Point_@M@cv@@V?$allocator@V?$Point_@M@cv@@@std@@@std@@V?$allocator@V?$vector@V?$Point_@M@cv@@V?$allocator@V?$Point_@M@cv@@@std@@@std@@@2@@std@@V?$Local@VValue@v8@@@v8@@@Z 00000001800262b0 f i Calib3D.obj
 0001:000253b0       ?points3fFromArrayOfArrays@@YA?AV?$vector@V?$vector@V?$Point3_@M@cv@@V?$allocator@V?$Point3_@M@cv@@@std@@@std@@V?$allocator@V?$vector@V?$Point3_@M@cv@@V?$allocator@V?$Point3_@M@cv@@@std@@@std@@@2@@std@@V?$Local@VValue@v8@@@v8@@@Z 00000001800263b0 f i Calib3D.obj
 0001:000254d0       ?Init@Calib3D@@SAXV?$Local@VObject@v8@@@v8@@@Z 00000001800264d0 f   Calib3D.obj
 0001:00025650       ?FindChessboardCorners@Calib3D@@SAXAEBV?$FunctionCallbackInfo@VValue@v8@@@Nan@@@Z 0000000180026650 f   Calib3D.obj
 0001:00025a50       ?DrawChessboardCorners@Calib3D@@SAXAEBV?$FunctionCallbackInfo@VValue@v8@@@Nan@@@Z 0000000180026a50 f   Calib3D.obj
 0001:00025ca0       ?CalibrateCamera@Calib3D@@SAXAEBV?$FunctionCallbackInfo@VValue@v8@@@Nan@@@Z 0000000180026ca0 f   Calib3D.obj
 0001:00026250       ?SolvePnP@Calib3D@@SAXAEBV?$FunctionCallbackInfo@VValue@v8@@@Nan@@@Z 0000000180027250 f   Calib3D.obj
 0001:00026780       ?GetOptimalNewCameraMatrix@Calib3D@@SAXAEBV?$FunctionCallbackInfo@VValue@v8@@@Nan@@@Z 0000000180027780 f   Calib3D.obj
 0001:00026a30       ?StereoCalibrate@Calib3D@@SAXAEBV?$FunctionCallbackInfo@VValue@v8@@@Nan@@@Z 0000000180027a30 f   Calib3D.obj
 0001:000277f0       ?StereoRectify@Calib3D@@SAXAEBV?$FunctionCallbackInfo@VValue@v8@@@Nan@@@Z 00000001800287f0 f   Calib3D.obj
 0001:000281b0       ?ComputeCorrespondEpilines@Calib3D@@SAXAEBV?$FunctionCallbackInfo@VValue@v8@@@Nan@@@Z 00000001800291b0 f   Calib3D.obj
 0001:000285f0       ?ReprojectImageTo3D@Calib3D@@SAXAEBV?$FunctionCallbackInfo@VValue@v8@@@Nan@@@Z 00000001800295f0 f   Calib3D.obj
 0001:00028850       ??1?$vector@V?$vector@V?$Point3_@M@cv@@V?$allocator@V?$Point3_@M@cv@@@std@@@std@@V?$allocator@V?$vector@V?$Point3_@M@cv@@V?$allocator@V?$Point3_@M@cv@@@std@@@std@@@2@@std@@QEAA@XZ 0000000180029850 f i Calib3D.obj
 0001:000288b0       ?push_back@?$vector@V?$vector@V?$Point3_@M@cv@@V?$allocator@V?$Point3_@M@cv@@@std@@@std@@V?$allocator@V?$vector@V?$Point3_@M@cv@@V?$allocator@V?$Point3_@M@cv@@@std@@@std@@@2@@std@@QEAAX$$QEAV?$vector@V?$Point3_@M@cv@@V?$allocator@V?$Point3_@M@cv@@@std@@@2@@Z 00000001800298b0 f i Calib3D.obj
 0001:00028b20       ??1?$vector@V?$Point3_@M@cv@@V?$allocator@V?$Point3_@M@cv@@@std@@@std@@QEAA@XZ 0000000180029b20 f i Calib3D.obj
 0001:00028b70       ?push_back@?$vector@V?$Point3_@M@cv@@V?$allocator@V?$Point3_@M@cv@@@std@@@std@@QEAAX$$QEAV?$Point3_@M@cv@@@Z 0000000180029b70 f i Calib3D.obj
 0001:00028d90       ?push_back@?$vector@V?$vector@V?$Point_@M@cv@@V?$allocator@V?$Point_@M@cv@@@std@@@std@@V?$allocator@V?$vector@V?$Point_@M@cv@@V?$allocator@V?$Point_@M@cv@@@std@@@std@@@2@@std@@QEAAX$$QEAV?$vector@V?$Point_@M@cv@@V?$allocator@V?$Point_@M@cv@@@std@@@2@@Z 0000000180029d90 f i Calib3D.obj
 0001:00029000       ?push_back@?$vector@V?$Point_@M@cv@@V?$allocator@V?$Point_@M@cv@@@std@@@std@@QEAAX$$QEAV?$Point_@M@cv@@@Z 000000018002a000 f i Calib3D.obj
 0001:00029180       ?_Reallocate@?$vector@V?$vector@V?$Point3_@M@cv@@V?$allocator@V?$Point3_@M@cv@@@std@@@std@@V?$allocator@V?$vector@V?$Point3_@M@cv@@V?$allocator@V?$Point3_@M@cv@@@std@@@std@@@2@@std@@IEAAX_K@Z 000000018002a180 f i Calib3D.obj
 0001:000292f0       ?deallocate@?$_Wrap_alloc@V?$allocator@V?$Point3_@M@cv@@@std@@@std@@QEAAXPEAV?$Point3_@M@cv@@_K@Z 000000018002a2f0 f i Calib3D.obj
 0001:00029360       ?_Reallocate@?$vector@V?$Point3_@M@cv@@V?$allocator@V?$Point3_@M@cv@@@std@@@std@@IEAAX_K@Z 000000018002a360 f i Calib3D.obj
 0001:000294a0       ??$_Destroy_range1@V?$allocator@V?$vector@V?$Point3_@M@cv@@V?$allocator@V?$Point3_@M@cv@@@std@@@std@@@std@@PEAV?$vector@V?$Point3_@M@cv@@V?$allocator@V?$Point3_@M@cv@@@std@@@2@@std@@YAXPEAV?$vector@V?$Point3_@M@cv@@V?$allocator@V?$Point3_@M@cv@@@std@@@0@0AEAU?$_Wrap_alloc@V?$allocator@V?$vector@V?$Point3_@M@cv@@V?$allocator@V?$Point3_@M@cv@@@std@@@std@@@std@@@0@U?$integral_constant@_N$0A@@0@@Z 000000018002a4a0 f i Calib3D.obj
 0001:00029530       ?Init@ImgProc@@SAXV?$Local@VObject@v8@@@v8@@@Z 000000018002a530 f   ImgProc.obj
 0001:00029640       ?Undistort@ImgProc@@SAXAEBV?$FunctionCallbackInfo@VValue@v8@@@Nan@@@Z 000000018002a640 f   ImgProc.obj
 0001:000299b0       ?InitUndistortRectifyMap@ImgProc@@SAXAEBV?$FunctionCallbackInfo@VValue@v8@@@Nan@@@Z 000000018002a9b0 f   ImgProc.obj
 0001:0002a060       ?Remap@ImgProc@@SAXAEBV?$FunctionCallbackInfo@VValue@v8@@@Nan@@@Z 000000018002b060 f   ImgProc.obj
 0001:0002a450       ?GetStructuringElement@ImgProc@@SAXAEBV?$FunctionCallbackInfo@VValue@v8@@@Nan@@@Z 000000018002b450 f   ImgProc.obj
 0001:0002a6d0       ??BMat@cv@@QEBA?AUCvMat@@XZ 000000018002b6d0 f i Stereo.obj
 0001:0002a7d0       ?Init@StereoBM@@SAXV?$Local@VObject@v8@@@v8@@@Z 000000018002b7d0 f   Stereo.obj
 0001:0002aaa0       ?New@StereoBM@@SAXAEBV?$FunctionCallbackInfo@VValue@v8@@@Nan@@@Z 000000018002baa0 f   Stereo.obj
 0001:0002ad40       ??0StereoBM@@QEAA@HHH@Z    000000018002bd40 f   Stereo.obj
 0001:0002ad90       ??_EStereoBM@@UEAAPEAXI@Z  000000018002bd90 f i * CIL library *:* CIL module *
 0001:0002ad90       ??_GStereoBM@@UEAAPEAXI@Z  000000018002bd90 f i Stereo.obj
 0001:0002ae30       ??1StereoBM@cv@@QEAA@XZ    000000018002be30 f i Stereo.obj
 0001:0002ae90       ?Compute@StereoBM@@SAXAEBV?$FunctionCallbackInfo@VValue@v8@@@Nan@@@Z 000000018002be90 f   Stereo.obj
 0001:0002b1a0       ?Init@StereoSGBM@@SAXV?$Local@VObject@v8@@@v8@@@Z 000000018002c1a0 f   Stereo.obj
 0001:0002b310       ?New@StereoSGBM@@SAXAEBV?$FunctionCallbackInfo@VValue@v8@@@Nan@@@Z 000000018002c310 f   Stereo.obj
 0001:0002c240       ??_GStereoSGBM@@UEAAPEAXI@Z 000000018002d240 f i Stereo.obj
 0001:0002c240       ??_EStereoSGBM@@UEAAPEAXI@Z 000000018002d240 f i * CIL library *:* CIL module *
 0001:0002c2a0       ??0StereoSGBM@@QEAA@HHHHHHHHHH_N@Z 000000018002d2a0 f   Stereo.obj
 0001:0002c350       ?Compute@StereoSGBM@@SAXAEBV?$FunctionCallbackInfo@VValue@v8@@@Nan@@@Z 000000018002d350 f   Stereo.obj
 0001:0002c630       ?Init@StereoGC@@SAXV?$Local@VObject@v8@@@v8@@@Z 000000018002d630 f   Stereo.obj
 0001:0002c7a0       ?New@StereoGC@@SAXAEBV?$FunctionCallbackInfo@VValue@v8@@@Nan@@@Z 000000018002d7a0 f   Stereo.obj
 0001:0002c990       ?Compute@StereoGC@@SAXAEBV?$FunctionCallbackInfo@VValue@v8@@@Nan@@@Z 000000018002d990 f   Stereo.obj
 0001:0002ccd0       ??1?$Ptr@UCvStereoBMState@@@cv@@QEAA@XZ 000000018002dcd0 f i Stereo.obj
 0001:0002cd20       ?Init@LDAWrap@@SAXV?$Local@VObject@v8@@@v8@@@Z 000000018002dd20 f   LDAWrap.obj
 0001:0002cf20       ?New@LDAWrap@@SAXAEBV?$FunctionCallbackInfo@VValue@v8@@@Nan@@@Z 000000018002df20 f   LDAWrap.obj
 0001:0002cff0       ??_ELDAWrap@@UEAAPEAXI@Z   000000018002dff0 f i * CIL library *:* CIL module *
 0001:0002cff0       ??_GLDAWrap@@UEAAPEAXI@Z   000000018002dff0 f i LDAWrap.obj
 0001:0002d040       ?SubspaceProject@LDAWrap@@SAXAEBV?$FunctionCallbackInfo@VValue@v8@@@Nan@@@Z 000000018002e040 f   LDAWrap.obj
 0001:0002d240       ?SubspaceReconstruct@LDAWrap@@SAXAEBV?$FunctionCallbackInfo@VValue@v8@@@Nan@@@Z 000000018002e240 f   LDAWrap.obj
 0001:0002d48c       __imp_load_?GetCurrent@Isolate@v8@@SAPEAV12@XZ 000000018002e48c f   node:node.exe
 0001:0002d498       __tailMerge_node_exe       000000018002e498 f i node:node.exe
 0001:0002d511       __imp_load_??1HandleScope@v8@@QEAA@XZ 000000018002e511 f   node:node.exe
 0001:0002d51d       __imp_load_??0HandleScope@v8@@QEAA@PEAVIsolate@1@@Z 000000018002e51d f   node:node.exe
 0001:0002d529       __imp_load_node_module_register 000000018002e529 f   node:node.exe
 0001:0002d535       __imp_load_uv_queue_work   000000018002e535 f   node:node.exe
 0001:0002d541       __imp_load_?Global@Context@v8@@QEAA?AV?$Local@VObject@v8@@@2@XZ 000000018002e541 f   node:node.exe
 0001:0002d54d       __imp_load_?Value@External@v8@@QEBAPEAXXZ 000000018002e54d f   node:node.exe
 0001:0002d559       __imp_load_?New@External@v8@@SA?AV?$Local@VExternal@v8@@@2@PEAVIsolate@2@PEAX@Z 000000018002e559 f   node:node.exe
 0001:0002d565       __imp_load_?NewFromUnsigned@Integer@v8@@SA?AV?$Local@VInteger@v8@@@2@PEAVIsolate@2@I@Z 000000018002e565 f   node:node.exe
 0001:0002d571       __imp_load_?New@Integer@v8@@SA?AV?$Local@VInteger@v8@@@2@PEAVIsolate@2@H@Z 000000018002e571 f   node:node.exe
 0001:0002d57d       __imp_load_?New@Signature@v8@@SA?AV?$Local@VSignature@v8@@@2@PEAVIsolate@2@V?$Local@VFunctionTemplate@v8@@@2@@Z 000000018002e57d f   node:node.exe
 0001:0002d589       __imp_load_?ThrowException@Isolate@v8@@QEAA?AV?$Local@VValue@v8@@@2@V32@@Z 000000018002e589 f   node:node.exe
 0001:0002d595       __imp_load_?GetCurrentContext@Isolate@v8@@QEAA?AV?$Local@VContext@v8@@@2@XZ 000000018002e595 f   node:node.exe
 0001:0002d5a1       __imp_load_?CreateHandle@HandleScope@v8@@KAPEAPEAVObject@internal@2@PEAVIsolate@42@PEAV342@@Z 000000018002e5a1 f   node:node.exe
 0001:0002d5ad       __imp_load_?CreateHandle@HandleScope@v8@@CAPEAPEAVObject@internal@2@PEAVHeapObject@42@PEAV342@@Z 000000018002e5ad f   node:node.exe
 0001:0002d5b9       __imp_load_?Set@Template@v8@@QEAAXV?$Local@VName@v8@@@2@V?$Local@VData@v8@@@2@W4PropertyAttribute@2@@Z 000000018002e5b9 f   node:node.exe
 0001:0002d5c5       __imp_load_?Error@Exception@v8@@SA?AV?$Local@VValue@v8@@@2@V?$Local@VString@v8@@@2@@Z 000000018002e5c5 f   node:node.exe
 0001:0002d5d1       __imp_load_?TypeError@Exception@v8@@SA?AV?$Local@VValue@v8@@@2@V?$Local@VString@v8@@@2@@Z 000000018002e5d1 f   node:node.exe
 0001:0002d5dd       __imp_load_?New@Array@v8@@SA?AV?$Local@VArray@v8@@@2@PEAVIsolate@2@H@Z 000000018002e5dd f   node:node.exe
 0001:0002d5e9       __imp_load_?Length@Array@v8@@QEBAIXZ 000000018002e5e9 f   node:node.exe
 0001:0002d5f5       __imp_load_?SetClassName@FunctionTemplate@v8@@QEAAXV?$Local@VString@v8@@@2@@Z 000000018002e5f5 f   node:node.exe
 0001:0002d601       __imp_load_?PrototypeTemplate@FunctionTemplate@v8@@QEAA?AV?$Local@VObjectTemplate@v8@@@2@XZ 000000018002e601 f   node:node.exe
 0001:0002d60d       __imp_load_?InstanceTemplate@FunctionTemplate@v8@@QEAA?AV?$Local@VObjectTemplate@v8@@@2@XZ 000000018002e60d f   node:node.exe
 0001:0002d619       __imp_load_?GetFunction@FunctionTemplate@v8@@QEAA?AV?$Local@VFunction@v8@@@2@XZ 000000018002e619 f   node:node.exe
 0001:0002d625       __imp_load_?New@FunctionTemplate@v8@@SA?AV?$Local@VFunctionTemplate@v8@@@2@PEAVIsolate@2@P6AXAEBV?$FunctionCallbackInfo@VValue@v8@@@2@@ZV?$Local@VValue@v8@@@2@V?$Local@VSignature@v8@@@2@HW4ConstructorBehavior@2@@Z 000000018002e625 f   node:node.exe
 0001:0002d631       __imp_load_?ToLocalEmpty@V8@v8@@CAXXZ 000000018002e631 f   node:node.exe
 0001:0002d63d       __imp_load_?ClearWeak@V8@v8@@CAPEAXPEAPEAVObject@internal@2@@Z 000000018002e63d f   node:node.exe
 0001:0002d649       __imp_load_?MakeWeak@V8@v8@@CAXPEAPEAVObject@internal@2@PEAXP6AXAEBV?$WeakCallbackInfo@X@2@@ZW4WeakCallbackType@2@@Z 000000018002e649 f   node:node.exe
 0001:0002d655       __imp_load_?DisposeGlobal@V8@v8@@CAXPEAPEAVObject@internal@2@@Z 000000018002e655 f   node:node.exe
 0001:0002d661       __imp_load_?GlobalizeReference@V8@v8@@CAPEAPEAVObject@internal@2@PEAVIsolate@42@PEAPEAV342@@Z 000000018002e661 f   node:node.exe
 0001:0002d66d       __imp_load_?Uint32Value@Value@v8@@QEBAIXZ 000000018002e66d f   node:node.exe
 0001:0002d679       __imp_load_?IntegerValue@Value@v8@@QEBA_JXZ 000000018002e679 f   node:node.exe
 0001:0002d685       __imp_load_?NumberValue@Value@v8@@QEBANXZ 000000018002e685 f   node:node.exe
 0001:0002d691       __imp_load_?BooleanValue@Value@v8@@QEBA_NXZ 000000018002e691 f   node:node.exe
 0001:0002d69d       __imp_load_?ToInteger@Value@v8@@QEBA?AV?$MaybeLocal@VInteger@v8@@@2@V?$Local@VContext@v8@@@2@@Z 000000018002e69d f   node:node.exe
 0001:0002d6a9       __imp_load_?IsInt32@Value@v8@@QEBA_NXZ 000000018002e6a9 f   node:node.exe
 0001:0002d6b5       __imp_load_?IsNumber@Value@v8@@QEBA_NXZ 000000018002e6b5 f   node:node.exe
 0001:0002d6c1       __imp_load_?IsObject@Value@v8@@QEBA_NXZ 000000018002e6c1 f   node:node.exe
 0001:0002d6cd       __imp_load_?IsArray@Value@v8@@QEBA_NXZ 000000018002e6cd f   node:node.exe
 0001:0002d6d9       __imp_load_?IsFunction@Value@v8@@QEBA_NXZ 000000018002e6d9 f   node:node.exe
 0001:0002d6e5       __imp_load_?HasCaught@TryCatch@v8@@QEBA_NXZ 000000018002e6e5 f   node:node.exe
 0001:0002d6f1       __imp_load_??1TryCatch@v8@@QEAA@XZ 000000018002e6f1 f   node:node.exe
 0001:0002d6fd       __imp_load_??0TryCatch@v8@@QEAA@PEAVIsolate@1@@Z 000000018002e6fd f   node:node.exe
 0001:0002d709       __imp_load_?Escape@EscapableHandleScope@v8@@AEAAPEAPEAVObject@internal@2@PEAPEAV342@@Z 000000018002e709 f   node:node.exe
 0001:0002d715       __imp_load_??0EscapableHandleScope@v8@@QEAA@PEAVIsolate@1@@Z 000000018002e715 f   node:node.exe
 0001:0002d721       __imp_load_??1Utf8Value@String@v8@@QEAA@XZ 000000018002e721 f   node:node.exe
 0001:0002d72d       __imp_load_??0Utf8Value@String@v8@@QEAA@V?$Local@VValue@v8@@@2@@Z 000000018002e72d f   node:node.exe
 0001:0002d739       __imp_load_?NewFromUtf8@String@v8@@SA?AV?$MaybeLocal@VString@v8@@@2@PEAVIsolate@2@PEBDW4NewStringType@2@H@Z 000000018002e739 f   node:node.exe
 0001:0002d745       __imp_load_?WriteUtf8@String@v8@@QEBAHPEADHPEAHH@Z 000000018002e745 f   node:node.exe
 0001:0002d751       __imp_load_?Length@String@v8@@QEBAHXZ 000000018002e751 f   node:node.exe
 0001:0002d75d       __imp_load_?Value@Int32@v8@@QEBAHXZ 000000018002e75d f   node:node.exe
 0001:0002d769       __imp_load_?New@Number@v8@@SA?AV?$Local@VNumber@v8@@@2@PEAVIsolate@2@N@Z 000000018002e769 f   node:node.exe
 0001:0002d775       __imp_load_?Value@Number@v8@@QEBANXZ 000000018002e775 f   node:node.exe
 0001:0002d781       __imp_load_?SlowGetAlignedPointerFromInternalField@Object@v8@@AEAAPEAXH@Z 000000018002e781 f   node:node.exe
 0001:0002d78d       __imp_load_?SlowGetInternalField@Object@v8@@AEAA?AV?$Local@VValue@v8@@@2@H@Z 000000018002e78d f   node:node.exe
 0001:0002d799       __imp_load_?New@Object@v8@@SA?AV?$Local@VObject@v8@@@2@PEAVIsolate@2@@Z 000000018002e799 f   node:node.exe
 0001:0002d7a5       __imp_load_?SetAlignedPointerInInternalField@Object@v8@@QEAAXHPEAX@Z 000000018002e7a5 f   node:node.exe
 0001:0002d7b1       __imp_load_?SetInternalField@Object@v8@@QEAAXHV?$Local@VValue@v8@@@2@@Z 000000018002e7b1 f   node:node.exe
 0001:0002d7bd       __imp_load_?InternalFieldCount@Object@v8@@QEAAHXZ 000000018002e7bd f   node:node.exe
 0001:0002d7c9       __imp_load_?Has@Object@v8@@QEAA_NV?$Local@VValue@v8@@@2@@Z 000000018002e7c9 f   node:node.exe
 0001:0002d7d5       __imp_load_?Get@Object@v8@@QEAA?AV?$Local@VValue@v8@@@2@V32@@Z 000000018002e7d5 f   node:node.exe
 0001:0002d7e1       __imp_load_?Get@Object@v8@@QEAA?AV?$Local@VValue@v8@@@2@I@Z 000000018002e7e1 f   node:node.exe
 0001:0002d7ed       __imp_load_?Set@Object@v8@@QEAA_NV?$Local@VValue@v8@@@2@0@Z 000000018002e7ed f   node:node.exe
 0001:0002d7f9       __imp_load_?Set@Object@v8@@QEAA_NIV?$Local@VValue@v8@@@2@@Z 000000018002e7f9 f   node:node.exe
 0001:0002d805       __imp_load_?NewInstance@Function@v8@@QEBA?AV?$Local@VObject@v8@@@2@HQEAV?$Local@VValue@v8@@@2@@Z 000000018002e805 f   node:node.exe
 0001:0002d811       __imp_load_?NewInstance@Function@v8@@QEBA?AV?$Local@VObject@v8@@@2@XZ 000000018002e811 f   node:node.exe
 0001:0002d81d       __imp_load_?SetInternalFieldCount@ObjectTemplate@v8@@QEAAXH@Z 000000018002e81d f   node:node.exe
 0001:0002d829       __imp_load_?NewInstance@ObjectTemplate@v8@@QEAA?AV?$MaybeLocal@VObject@v8@@@2@V?$Local@VContext@v8@@@2@@Z 000000018002e829 f   node:node.exe
 0001:0002d835       __imp_load_?New@ObjectTemplate@v8@@SA?AV?$Local@VObjectTemplate@v8@@@2@PEAVIsolate@2@V?$Local@VFunctionTemplate@v8@@@2@@Z 000000018002e835 f   node:node.exe
 0001:0002d841       __imp_load_?EmitAsyncDestroy@node@@YAXPEAVIsolate@v8@@Uasync_context@1@@Z 000000018002e841 f   node:node.exe
 0001:0002d84d       __imp_load_?FatalException@node@@YAXPEAVIsolate@v8@@AEBVTryCatch@3@@Z 000000018002e84d f   node:node.exe
 0001:0002d859       __imp_load_?HasInstance@Buffer@node@@YA_NV?$Local@VValue@v8@@@v8@@@Z 000000018002e859 f   node:node.exe
 0001:0002d865       __imp_load_?New@Buffer@node@@YA?AV?$MaybeLocal@VObject@v8@@@v8@@PEAVIsolate@4@_K@Z 000000018002e865 f   node:node.exe
 0001:0002d871       __imp_load_?New@Buffer@node@@YA?AV?$MaybeLocal@VObject@v8@@@v8@@PEAVIsolate@4@PEAD_K@Z 000000018002e871 f   node:node.exe
 0001:0002d87d       __imp_load_?Data@Buffer@node@@YAPEADV?$Local@VValue@v8@@@v8@@@Z 000000018002e87d f   node:node.exe
 0001:0002d889       __imp_load_?Data@Buffer@node@@YAPEADV?$Local@VObject@v8@@@v8@@@Z 000000018002e889 f   node:node.exe
 0001:0002d895       __imp_load_?Length@Buffer@node@@YA_KV?$Local@VValue@v8@@@v8@@@Z 000000018002e895 f   node:node.exe
 0001:0002d8a1       __imp_load_?MakeCallback@node@@YA?AV?$Local@VValue@v8@@@v8@@PEAVIsolate@3@V?$Local@VObject@v8@@@3@V?$Local@VFunction@v8@@@3@HPEAV23@@Z 000000018002e8a1 f   node:node.exe
 0001:0002d8ad       __imp_load_?MakeCallback@node@@YA?AV?$MaybeLocal@VValue@v8@@@v8@@PEAVIsolate@3@V?$Local@VObject@v8@@@3@V?$Local@VFunction@v8@@@3@HPEAV?$Local@VValue@v8@@@3@Uasync_context@1@@Z 000000018002e8ad f   node:node.exe
 0001:0002d8b9       __imp_load_?EmitAsyncInit@node@@YA?AUasync_context@1@PEAVIsolate@v8@@V?$Local@VObject@v8@@@4@V?$Local@VString@v8@@@4@N@Z 000000018002e8b9 f   node:node.exe
 0001:0002d8c5       __imp_load_uv_default_loop 000000018002e8c5 f   node:node.exe
 0001:0002d8d1       __imp_load_?ToInt32@Value@v8@@QEBA?AV?$Local@VInt32@v8@@@2@XZ 000000018002e8d1 f   node:node.exe
 0001:0002d8dd       __imp_load_?ToObject@Value@v8@@QEBA?AV?$Local@VObject@v8@@@2@XZ 000000018002e8dd f   node:node.exe
 0001:0002d8e9       __imp_load_?ToString@Value@v8@@QEBA?AV?$Local@VString@v8@@@2@XZ 000000018002e8e9 f   node:node.exe
 0001:0002d8f5       __imp_load_?ToNumber@Value@v8@@QEBA?AV?$Local@VNumber@v8@@@2@XZ 000000018002e8f5 f   node:node.exe
 0001:0002d901       __imp_load_??1EscapableHandleScope@v8@@QEAA@XZ 000000018002e901 f   node:node.exe
 0001:0002d90d       __imp_load_?GetFunction@FunctionTemplate@v8@@QEAA?AV?$MaybeLocal@VFunction@v8@@@2@V?$Local@VContext@v8@@@2@@Z 000000018002e90d f   node:node.exe
 0001:0002d919       __imp_load_?Call@Function@v8@@QEAA?AV?$Local@VValue@v8@@@2@V32@HQEAV32@@Z 000000018002e919 f   node:node.exe
 0001:0002d925       __imp_load_?Length@Buffer@node@@YA_KV?$Local@VObject@v8@@@v8@@@Z 000000018002e925 f   node:node.exe
 0001:0002d931       __imp_load_?SetAccessor@ObjectTemplate@v8@@QEAAXV?$Local@VName@v8@@@2@P6AX0AEBV?$PropertyCallbackInfo@VValue@v8@@@2@@ZP6AX0V?$Local@VValue@v8@@@2@AEBV?$PropertyCallbackInfo@X@2@@Z3W4AccessControl@2@W4PropertyAttribute@2@V?$Local@VAccessorSignature@v8@@@2@@Z 000000018002e931 f   node:node.exe
 0001:0002d93d       __imp_load_?Value@Boolean@v8@@QEBA_NXZ 000000018002e93d f   node:node.exe
 0001:0002d949       __imp_load_?ToBoolean@Value@v8@@QEBA?AV?$Local@VBoolean@v8@@@2@XZ 000000018002e949 f   node:node.exe
 0001:0002d956       ?clear@_OutputArray@cv@@UEBAXXZ 000000018002e956 f   opencv_core2413:opencv_core2413.dll
 0001:0002d95c       ?release@_OutputArray@cv@@UEBAXXZ 000000018002e95c f   opencv_core2413:opencv_core2413.dll
 0001:0002d962       ?create@_OutputArray@cv@@UEBAXV?$Size_@H@2@HH_NH@Z 000000018002e962 f   opencv_core2413:opencv_core2413.dll
 0001:0002d968       ?create@_OutputArray@cv@@UEBAXHHHH_NH@Z 000000018002e968 f   opencv_core2413:opencv_core2413.dll
 0001:0002d96e       ?create@_OutputArray@cv@@UEBAXHPEBHHH_NH@Z 000000018002e96e f   opencv_core2413:opencv_core2413.dll
 0001:0002d974       ?getMatRef@_OutputArray@cv@@UEBAAEAVMat@2@H@Z 000000018002e974 f   opencv_core2413:opencv_core2413.dll
 0001:0002d97a       ?needed@_OutputArray@cv@@UEBA_NXZ 000000018002e97a f   opencv_core2413:opencv_core2413.dll
 0001:0002d980       ?fixedType@_OutputArray@cv@@UEBA_NXZ 000000018002e980 f   opencv_core2413:opencv_core2413.dll
 0001:0002d986       ?fixedSize@_OutputArray@cv@@UEBA_NXZ 000000018002e986 f   opencv_core2413:opencv_core2413.dll
 0001:0002d98c       ?empty@_InputArray@cv@@UEBA_NXZ 000000018002e98c f   opencv_core2413:opencv_core2413.dll
 0001:0002d992       ?channels@_InputArray@cv@@UEBAHH@Z 000000018002e992 f   opencv_core2413:opencv_core2413.dll
 0001:0002d998       ?depth@_InputArray@cv@@UEBAHH@Z 000000018002e998 f   opencv_core2413:opencv_core2413.dll
 0001:0002d99e       ?type@_InputArray@cv@@UEBAHH@Z 000000018002e99e f   opencv_core2413:opencv_core2413.dll
 0001:0002d9a4       ?total@_InputArray@cv@@UEBA_KH@Z 000000018002e9a4 f   opencv_core2413:opencv_core2413.dll
 0001:0002d9aa       ?size@_InputArray@cv@@UEBA?AV?$Size_@H@2@H@Z 000000018002e9aa f   opencv_core2413:opencv_core2413.dll
 0001:0002d9b0       ?kind@_InputArray@cv@@UEBAHXZ 000000018002e9b0 f   opencv_core2413:opencv_core2413.dll
 0001:0002d9b6       ?getGpuMat@_InputArray@cv@@UEBA?AVGpuMat@gpu@2@XZ 000000018002e9b6 f   opencv_core2413:opencv_core2413.dll
 0001:0002d9bc       ?getGlTexture@_InputArray@cv@@UEBA?AVGlTexture@2@XZ 000000018002e9bc f   opencv_core2413:opencv_core2413.dll
 0001:0002d9c2       ?getGlBuffer@_InputArray@cv@@UEBA?AVGlBuffer@2@XZ 000000018002e9c2 f   opencv_core2413:opencv_core2413.dll
 0001:0002d9c8       ?getMatVector@_InputArray@cv@@UEBAXAEAV?$vector@VMat@cv@@V?$allocator@VMat@cv@@@std@@@std@@@Z 000000018002e9c8 f   opencv_core2413:opencv_core2413.dll
 0001:0002d9ce       ?getMat@_InputArray@cv@@UEBA?AVMat@2@H@Z 000000018002e9ce f   opencv_core2413:opencv_core2413.dll
 0001:0002d9d4       ??0_Init_locks@std@@QEAA@XZ 000000018002e9d4 f   libcpmt:xlock.obj
 0001:0002da20       ??1_Init_locks@std@@QEAA@XZ 000000018002ea20 f   libcpmt:xlock.obj
 0001:0002da64       ??_G_Fac_node@std@@QEAAPEAXI@Z 000000018002ea64 f i libcpmt:locale0.obj
 0001:0002daf0       ??0bad_alloc@std@@QEAA@AEBV01@@Z 000000018002eaf0 f i libcpmt:xthrow.obj
 0001:0002db30       ??0bad_alloc@std@@QEAA@XZ  000000018002eb30 f i libcpmt:xthrow.obj
 0001:0002db50       ??0exception@std@@QEAA@AEBV01@@Z 000000018002eb50 f i libcpmt:xthrow.obj
 0001:0002db88       ??0length_error@std@@QEAA@AEBV01@@Z 000000018002eb88 f i libcpmt:xthrow.obj
 0001:0002dbc8       ??0length_error@std@@QEAA@PEBD@Z 000000018002ebc8 f i libcpmt:xthrow.obj
 0001:0002dc14       ??0logic_error@std@@QEAA@AEBV01@@Z 000000018002ec14 f i libcpmt:xthrow.obj
 0001:0002dc54       ??0out_of_range@std@@QEAA@AEBV01@@Z 000000018002ec54 f i libcpmt:xthrow.obj
 0001:0002dc94       ??0out_of_range@std@@QEAA@PEBD@Z 000000018002ec94 f i libcpmt:xthrow.obj
 0001:0002dce0       ??1out_of_range@std@@UEAA@XZ 000000018002ece0 f i libcpmt:xthrow.obj
 0001:0002dce0       ??1bad_alloc@std@@UEAA@XZ  000000018002ece0 f i libcpmt:xthrow.obj
 0001:0002dce0       ??1bad_exception@std@@UEAA@XZ 000000018002ece0 f i libvcruntime:frame.obj
 0001:0002dce0       ??1bad_array_new_length@std@@UEAA@XZ 000000018002ece0 f i LIBCMT:throw_bad_alloc.obj
 0001:0002dce0       ??1length_error@std@@UEAA@XZ 000000018002ece0 f i libcpmt:xthrow.obj
 0001:0002dcf4       ?__scrt_throw_std_bad_alloc@@YAXXZ 000000018002ecf4 f   LIBCMT:throw_bad_alloc.obj
 0001:0002dcf4       ?_Xbad_alloc@std@@YAXXZ    000000018002ecf4 f   libcpmt:xthrow.obj
 0001:0002dd14       ?_Xlength_error@std@@YAXPEBD@Z 000000018002ed14 f   libcpmt:xthrow.obj
 0001:0002dd38       ?_Xout_of_range@std@@YAXPEBD@Z 000000018002ed38 f   libcpmt:xthrow.obj
 0001:0002dd5c       ?what@exception@std@@UEBAPEBDXZ 000000018002ed5c f i libcpmt:xthrow.obj
 0001:0002dd70       _Mtxdst                    000000018002ed70 f   libcpmt:xmtx.obj
 0001:0002dd78       _Mtxinit                   000000018002ed78 f   libcpmt:xmtx.obj
 0001:0002e258       __crtInitializeCriticalSectionEx 000000018002f258 f   libcpmt:winapisupp.obj
 0001:0002e2d0       __security_check_cookie    000000018002f2d0 f   LIBCMT:_amdsecgs_.obj
 0001:0002e43c       ??2@YAPEAX_K@Z             000000018002f43c f   LIBCMT:new_scalar.obj
 0001:0002e478       __scrt_acquire_startup_lock 000000018002f478 f   LIBCMT:utility.obj
 0001:0002e4b4       __scrt_dllmain_after_initialize_c 000000018002f4b4 f   LIBCMT:utility.obj
 0001:0002e4e8       __scrt_dllmain_before_initialize_c 000000018002f4e8 f   LIBCMT:utility.obj
 0001:0002e500       __scrt_dllmain_crt_thread_attach 000000018002f500 f   LIBCMT:utility.obj
 0001:0002e528       __scrt_dllmain_crt_thread_detach 000000018002f528 f   LIBCMT:utility.obj
 0001:0002e540       __scrt_dllmain_exception_filter 000000018002f540 f   LIBCMT:utility.obj
 0001:0002e5a4       __scrt_dllmain_uninitialize_c 000000018002f5a4 f   LIBCMT:utility.obj
 0001:0002e5d4       __scrt_dllmain_uninitialize_critical 000000018002f5d4 f   LIBCMT:utility.obj
 0001:0002e5e8       __scrt_initialize_crt      000000018002f5e8 f   LIBCMT:utility.obj
 0001:0002e634       __scrt_initialize_onexit_tables 000000018002f634 f   LIBCMT:utility.obj
 0001:0002e700       __scrt_is_nonwritable_in_current_image 000000018002f700 f   LIBCMT:utility.obj
 0001:0002e79c       __scrt_release_startup_lock 000000018002f79c f   LIBCMT:utility.obj
 0001:0002e7c0       __scrt_uninitialize_crt    000000018002f7c0 f   LIBCMT:utility.obj
 0001:0002e7ec       _onexit                    000000018002f7ec f   LIBCMT:utility.obj
 0001:0002e83c       atexit                     000000018002f83c f   LIBCMT:utility.obj
 0001:0002e854       ??3@YAXPEAX@Z              000000018002f854 f   LIBCMT:delete_scalar.obj
 0001:0002e85c       ??3@YAXPEAX_K@Z            000000018002f85c f   LIBCMT:delete_scalar_size.obj
 0001:0002e85c       ??_V@YAXPEAX@Z             000000018002f85c f   LIBCMT:delete_array.obj
 0001:0002e864       ??_Gtype_info@@UEAAPEAXI@Z 000000018002f864 f i LIBCMT:std_type_info_static.obj
 0001:0002e864       ??_Etype_info@@UEAAPEAXI@Z 000000018002f864 f i LIBCMT:std_type_info_static.obj
 0001:0002e890       ??_V@YAXPEAX_K@Z           000000018002f890 f   LIBCMT:delete_array_size.obj
 0001:0002e898       ??_U@YAPEAX_K@Z            000000018002f898 f   LIBCMT:new_array.obj
 0001:0002ebec       _DllMainCRTStartup         000000018002fbec f   LIBCMT:dll_dllmain.obj
 0001:0002ec2c       _guard_check_icall         000000018002fc2c f i LIBCMT:checkcfg.obj
 0001:0002ec34       __GSHandlerCheck           000000018002fc34 f   LIBCMT:_gshandler_.obj
 0001:0002ec54       __GSHandlerCheckCommon     000000018002fc54 f   LIBCMT:_gshandler_.obj
 0001:0002ecb0       __GSHandlerCheck_EH        000000018002fcb0 f   LIBCMT:gshandlereh.obj
 0001:0002ed40       _alloca_probe              000000018002fd40 f   LIBCMT:_chkstk_.obj
 0001:0002ed40       __chkstk                   000000018002fd40 f   LIBCMT:_chkstk_.obj
 0001:0002ed94       __raise_securityfailure    000000018002fd94 f   LIBCMT:gs_report.obj
 0001:0002edc8       __report_gsfailure         000000018002fdc8 f   LIBCMT:gs_report.obj
 0001:0002ee9c       __report_rangecheckfailure 000000018002fe9c f   LIBCMT:gs_report.obj
 0001:0002eeb0       __report_securityfailure   000000018002feb0 f   LIBCMT:gs_report.obj
 0001:0002f030       __crt_debugger_hook        0000000180030030 f   LIBCMT:utility_desktop.obj
 0001:0002f038       __scrt_fastfail            0000000180030038 f   LIBCMT:utility_desktop.obj
 0001:0002f180       ??0bad_array_new_length@std@@QEAA@AEBV01@@Z 0000000180030180 f i LIBCMT:throw_bad_alloc.obj
 0001:0002f1c0       ??0bad_array_new_length@std@@QEAA@XZ 00000001800301c0 f i LIBCMT:throw_bad_alloc.obj
 0001:0002f1e0       ?__scrt_throw_std_bad_array_new_length@@YAXXZ 00000001800301e0 f   LIBCMT:throw_bad_alloc.obj
 0001:0002f200       __isa_available_init       0000000180030200 f   LIBCMT:_cpu_disp_.obj
 0001:0002f3c8       DllMain                    00000001800303c8 f   LIBCMT:dll_dllmain_stub.obj
 0001:0002f3c8       _get_startup_argv_mode     00000001800303c8 f   LIBCMT:argv_mode.obj
 0001:0002f3d0       __scrt_is_ucrt_dll_in_use  00000001800303d0 f   LIBCMT:ucrt_detection.obj
 0001:0002f3dc       __security_init_cookie     00000001800303dc f   LIBCMT:gs_support.obj
 0001:0002f488       ?__scrt_initialize_type_info@@YAXXZ 0000000180030488 f   LIBCMT:tncleanup.obj
 0001:0002f498       ?__scrt_uninitialize_type_info@@YAXXZ 0000000180030498 f   LIBCMT:tncleanup.obj
 0001:0002f4a4       __local_stdio_scanf_options 00000001800304a4 f i LIBCMT:default_local_stdio_options.obj
 0001:0002f4ac       __scrt_initialize_default_local_stdio_options 00000001800304ac f   LIBCMT:default_local_stdio_options.obj
 0001:0002f4c8       __scrt_get_dyn_tls_init_callback 00000001800304c8 f   LIBCMT:dyn_tls_init.obj
 0001:0002f4d0       _RTC_Initialize            00000001800304d0 f   LIBCMT:_initsect_.obj
 0001:0002f51c       _RTC_Terminate             000000018003051c f   LIBCMT:_initsect_.obj
 0001:0002f580       memcpy                     0000000180030580 f   libvcruntime:memcpy.obj
 0001:0002f580       memmove                    0000000180030580 f   libvcruntime:memcpy.obj
 0001:0002f9b8       _purecall                  00000001800309b8 f   libvcruntime:purevirt.obj
 0001:0002f9f4       __DestructExceptionObject  00000001800309f4 f   libvcruntime:frame.obj
 0001:0002fa7c       ??0bad_exception@std@@QEAA@AEBV01@@Z 0000000180030a7c f i libvcruntime:frame.obj
 0001:0002fabc       ??0bad_exception@std@@QEAA@XZ 0000000180030abc f i libvcruntime:frame.obj
 0001:0002fadc       ??_Gout_of_range@std@@UEAAPEAXI@Z 0000000180030adc f i libcpmt:xthrow.obj
 0001:0002fadc       ??_Elogic_error@std@@UEAAPEAXI@Z 0000000180030adc f i libcpmt:xthrow.obj
 0001:0002fadc       ??_Gbad_array_new_length@std@@UEAAPEAXI@Z 0000000180030adc f i LIBCMT:throw_bad_alloc.obj
 0001:0002fadc       ??_Ebad_alloc@std@@UEAAPEAXI@Z 0000000180030adc f i libcpmt:xthrow.obj
 0001:0002fadc       ??_Glength_error@std@@UEAAPEAXI@Z 0000000180030adc f i libcpmt:xthrow.obj
 0001:0002fadc       ??_Eexception@std@@UEAAPEAXI@Z 0000000180030adc f i libcpmt:xthrow.obj
 0001:0002fadc       ??_Gexception@std@@UEAAPEAXI@Z 0000000180030adc f i libcpmt:xthrow.obj
 0001:0002fadc       ??_Elength_error@std@@UEAAPEAXI@Z 0000000180030adc f i libcpmt:xthrow.obj
 0001:0002fadc       ??_Gbad_alloc@std@@UEAAPEAXI@Z 0000000180030adc f i libcpmt:xthrow.obj
 0001:0002fadc       ??_Gbad_exception@std@@UEAAPEAXI@Z 0000000180030adc f i libvcruntime:frame.obj
 0001:0002fadc       ??_Eout_of_range@std@@UEAAPEAXI@Z 0000000180030adc f i libcpmt:xthrow.obj
 0001:0002fadc       ??_Glogic_error@std@@UEAAPEAXI@Z 0000000180030adc f i libcpmt:xthrow.obj
 0001:0002fadc       ??_Ebad_array_new_length@std@@UEAAPEAXI@Z 0000000180030adc f i LIBCMT:throw_bad_alloc.obj
 0001:0002fadc       ??_Ebad_exception@std@@UEAAPEAXI@Z 0000000180030adc f i libvcruntime:frame.obj
 0001:0003047c       ?_CallMemberFunction0@@YAXPEAXP6AX0@Z@Z 000000018003147c f i libvcruntime:frame.obj
 0001:00030480       ?_CallMemberFunction1@@YAXPEAXP6AX0@Z0@Z 0000000180031480 f i libvcruntime:frame.obj
 0001:0003048c       ?_CallMemberFunction2@@YAXPEAXP6AX0@Z0H@Z 000000018003148c f i libvcruntime:frame.obj
 0001:0003049c       __AdjustPointer            000000018003149c f   libvcruntime:frame.obj
 0001:000304c0       __BuildCatchObject         00000001800314c0 f   libvcruntime:frame.obj
 0001:00030584       __BuildCatchObjectHelper   0000000180031584 f   libvcruntime:frame.obj
 0001:00030764       __CxxCallCatchBlock        0000000180031764 f   libvcruntime:frame.obj
 0001:00030950       __FrameUnwindFilter        0000000180031950 f   libvcruntime:frame.obj
 0001:0003099c       __FrameUnwindToState       000000018003199c f   libvcruntime:frame.obj
 0001:00030b30       __InternalCxxFrameHandler  0000000180031b30 f   libvcruntime:frame.obj
 0001:00030d88       __TypeMatch                0000000180031d88 f   libvcruntime:frame.obj
 0001:00030ec8       __std_terminate            0000000180031ec8 f   libvcruntime:frame.obj
 0001:00030ed4       ?_ExecutionInCatch@@YAHPEAU_xDISPATCHER_CONTEXT@@PEBU_s_FuncInfo@@@Z 0000000180031ed4 f   libvcruntime:trnsctrl.obj
 0001:00030f48       ?_GetEstablisherFrame@@YAPEA_KPEA_KPEAU_xDISPATCHER_CONTEXT@@PEBU_s_FuncInfo@@0@Z 0000000180031f48 f   libvcruntime:trnsctrl.obj
 0001:00031014       ?_GetRangeOfTrysToCheck@@YAPEBU_s_TryBlockMapEntry@@PEA_KPEBU_s_FuncInfo@@HHPEAI2PEAU_xDISPATCHER_CONTEXT@@@Z 0000000180032014 f   libvcruntime:trnsctrl.obj
 0001:00031140       ?__FrameUnwindToEmptyState@@YAXPEA_KPEAU_xDISPATCHER_CONTEXT@@PEBU_s_FuncInfo@@@Z 0000000180032140 f   libvcruntime:trnsctrl.obj
 0001:000311d4       ?__SehTransFilter@@YAHPEAU_EXCEPTION_POINTERS@@PEAUEHExceptionRecord@@PEA_KPEAU_CONTEXT@@PEAU_xDISPATCHER_CONTEXT@@PEBU_s_FuncInfo@@PEAH@Z 00000001800321d4 f   libvcruntime:trnsctrl.obj
 0001:0003126c       _CallSETranslator          000000018003226c f   libvcruntime:trnsctrl.obj
 0001:000312c4       _CreateFrameInfo           00000001800322c4 f   libvcruntime:trnsctrl.obj
 0001:00031300       _FindAndUnlinkFrame        0000000180032300 f   libvcruntime:trnsctrl.obj
 0001:00031358       _GetImageBase              0000000180032358 f   libvcruntime:trnsctrl.obj
 0001:0003136c       _GetThrowImageBase         000000018003236c f   libvcruntime:trnsctrl.obj
 0001:00031380       _IsExceptionObjectToBeDestroyed 0000000180032380 f   libvcruntime:trnsctrl.obj
 0001:000313b0       _SetImageBase              00000001800323b0 f   libvcruntime:trnsctrl.obj
 0001:000313c8       _SetThrowImageBase         00000001800323c8 f   libvcruntime:trnsctrl.obj
 0001:000313e0       _UnwindNestedFrames        00000001800323e0 f   libvcruntime:trnsctrl.obj
 0001:00031504       __CxxFrameHandler3         0000000180032504 f   libvcruntime:trnsctrl.obj
 0001:00031584       __std_exception_copy       0000000180032584 f   libvcruntime:std_exception.obj
 0001:00031614       __std_exception_destroy    0000000180032614 f   libvcruntime:std_exception.obj
 0001:0003163c       _CxxThrowException         000000018003263c f   libvcruntime:throw.obj
 0001:00031730       memset                     0000000180032730 f   libvcruntime:memset.obj
 0001:000318e0       memcmp                     00000001800328e0 f   libvcruntime:memcmp.obj
 0001:00031b70       __vcrt_FlsAlloc            0000000180032b70 f   libvcruntime:winapi_downlevel.obj
 0001:00031bc4       __vcrt_FlsFree             0000000180032bc4 f   libvcruntime:winapi_downlevel.obj
 0001:00031c18       __vcrt_FlsGetValue         0000000180032c18 f   libvcruntime:winapi_downlevel.obj
 0001:00031c6c       __vcrt_FlsSetValue         0000000180032c6c f   libvcruntime:winapi_downlevel.obj
 0001:00031cd4       __vcrt_InitializeCriticalSectionEx 0000000180032cd4 f   libvcruntime:winapi_downlevel.obj
 0001:00031d4c       __vcrt_initialize_winapi_thunks 0000000180032d4c f   libvcruntime:winapi_downlevel.obj
 0001:00031d98       __vcrt_uninitialize_winapi_thunks 0000000180032d98 f   libvcruntime:winapi_downlevel.obj
 0001:00031dd8       __vcrt_initialize          0000000180032dd8 f   libvcruntime:initialization.obj
 0001:00031e0c       __vcrt_thread_attach       0000000180032e0c f   libvcruntime:initialization.obj
 0001:00031e20       __vcrt_thread_detach       0000000180032e20 f   libvcruntime:initialization.obj
 0001:00031e34       __vcrt_uninitialize        0000000180032e34 f   libvcruntime:initialization.obj
 0001:00031e54       __vcrt_uninitialize_critical 0000000180032e54 f   libvcruntime:initialization.obj
 0001:00031e64       __C_specific_handler       0000000180032e64 f   libvcruntime:_chandler_.obj
 0001:00032060       __std_type_info_compare    0000000180033060 f   libvcruntime:std_type_info.obj
 0001:00032088       __std_type_info_destroy_list 0000000180033088 f   libvcruntime:std_type_info.obj
 0001:000320b4       __vcrt_initialize_pure_virtual_call_handler 00000001800330b4 f   libvcruntime:purevirt_data.obj
 0001:000320d8       __vcrt_freefls             00000001800330d8 f   libvcruntime:per_thread_data.obj
 0001:000320f8       __vcrt_freeptd             00000001800330f8 f   libvcruntime:per_thread_data.obj
 0001:00032148       __vcrt_getptd              0000000180033148 f   libvcruntime:per_thread_data.obj
 0001:00032164       __vcrt_getptd_noexit       0000000180033164 f   libvcruntime:per_thread_data.obj
 0001:0003221c       __vcrt_initialize_ptd      000000018003321c f   libvcruntime:per_thread_data.obj
 0001:0003225c       __vcrt_uninitialize_ptd    000000018003325c f   libvcruntime:per_thread_data.obj
 0001:00032280       ?__GetCurrentState@@YAHPEA_KPEAU_xDISPATCHER_CONTEXT@@PEBU_s_FuncInfo@@@Z 0000000180033280 f   libvcruntime:ehstate.obj
 0001:000322a8       ?__GetUnwindTryBlock@@YAHPEA_KPEAU_xDISPATCHER_CONTEXT@@PEBU_s_FuncInfo@@@Z 00000001800332a8 f   libvcruntime:ehstate.obj
 0001:000322d4       ?__SetState@@YAXPEA_KPEAU_xDISPATCHER_CONTEXT@@PEBU_s_FuncInfo@@H@Z 00000001800332d4 f   libvcruntime:ehstate.obj
 0001:000322e0       ?__SetUnwindTryBlock@@YAXPEA_KPEAU_xDISPATCHER_CONTEXT@@PEBU_s_FuncInfo@@H@Z 00000001800332e0 f   libvcruntime:ehstate.obj
 0001:0003231c       ?__StateFromControlPc@@YAHPEBU_s_FuncInfo@@PEAU_xDISPATCHER_CONTEXT@@@Z 000000018003331c f   libvcruntime:ehstate.obj
 0001:00032324       ?__StateFromIp@@YAHPEBU_s_FuncInfo@@PEAU_xDISPATCHER_CONTEXT@@_J@Z 0000000180033324 f   libvcruntime:ehstate.obj
 0001:000323a0       _CallSettingFrame          00000001800333a0 f   libvcruntime:handlers.obj
 0001:000323f0       _local_unwind              00000001800333f0 f   libvcruntime:_jmpuwind_.obj
 0001:00032420       _NLG_Notify                0000000180033420 f   libvcruntime:_jmpuwind_.obj
 0001:00032440       __NLG_Dispatch2            0000000180033440 f   libvcruntime:_jmpuwind_.obj
 0001:00032450       __NLG_Return2              0000000180033450 f   libvcruntime:_jmpuwind_.obj
 0001:00032454       __vcrt_initialize_locks    0000000180033454 f   libvcruntime:locks.obj
 0001:0003249c       __vcrt_uninitialize_locks  000000018003349c f   libvcruntime:locks.obj
 0001:000324d4       abort                      00000001800334d4 f   libucrt:abort.obj
 0001:0003252c       __acrt_call_reportfault    000000018003352c f   libucrt:invalid_parameter.obj
 0001:00032688       __acrt_initialize_invalid_parameter_handler 0000000180033688 f   libucrt:invalid_parameter.obj
 0001:00032690       _invalid_parameter         0000000180033690 f   libucrt:invalid_parameter.obj
 0001:00032738       _invalid_parameter_noinfo  0000000180033738 f   libucrt:invalid_parameter.obj
 0001:00032758       _invalid_parameter_noinfo_noreturn 0000000180033758 f   libucrt:invalid_parameter.obj
 0001:00032788       _invoke_watson             0000000180033788 f   libucrt:invalid_parameter.obj
 0001:000327d0       ??$?RV<lambda_7b91131dde12e1c3dfc74ff76b3f2eac>@@AEAV<lambda_dd75445284c072d0bd3768540cc698fa>@@V<lambda_16bc4ecb55b4718497c16bceaea2ceaf>@@@?$__crt_seh_guarded_call@H@@QEAAH$$QEAV<lambda_7b91131dde12e1c3dfc74ff76b3f2eac>@@AEAV<lambda_dd75445284c072d0bd3768540cc698fa>@@$$QEAV<lambda_16bc4ecb55b4718497c16bceaea2ceaf>@@@Z 00000001800337d0 f i libucrt:output.obj
 0001:00032810       ??$?RV<lambda_aa279a7bcb127014629d5b1d62c7325d>@@AEAV<lambda_0a64b6a4deda75c01876f29c44fc5eb3>@@V<lambda_3323e69fbefe9d1a11713e670d47cdfa>@@@?$__crt_seh_guarded_call@H@@QEAAH$$QEAV<lambda_aa279a7bcb127014629d5b1d62c7325d>@@AEAV<lambda_0a64b6a4deda75c01876f29c44fc5eb3>@@$$QEAV<lambda_3323e69fbefe9d1a11713e670d47cdfa>@@@Z 0000000180033810 f i libucrt:output.obj
 0001:00032850       ??$ensure_buffer_is_big_enough@D@formatting_buffer@__crt_stdio_output@@QEAA_N_K@Z 0000000180033850 f i libucrt:output.obj
 0001:000328fc       ??$is_wide_character_specifier@D@__crt_stdio_output@@YA_N_KDW4length_modifier@0@@Z 00000001800338fc f i libucrt:output.obj
 0001:0003292c       ??$is_wide_character_specifier@_W@__crt_stdio_output@@YA_N_K_WW4length_modifier@0@@Z 000000018003392c f i libucrt:output.obj
 0001:00032970       ??$type_case_integer_parse_into_buffer@I@?$output_processor@DV?$string_output_adapter@D@__crt_stdio_output@@V?$standard_base@DV?$string_output_adapter@D@__crt_stdio_output@@@2@@__crt_stdio_output@@AEAAXII_N@Z 0000000180033970 f i libucrt:output.obj
 0001:00032970       ??$type_case_integer_parse_into_buffer@I@?$output_processor@_WV?$string_output_adapter@_W@__crt_stdio_output@@V?$standard_base@_WV?$string_output_adapter@_W@__crt_stdio_output@@@2@@__crt_stdio_output@@AEAAXII_N@Z 0000000180033970 f i libucrt:output.obj
 0001:00032970       ??$type_case_integer_parse_into_buffer@I@?$output_processor@DV?$stream_output_adapter@D@__crt_stdio_output@@V?$standard_base@DV?$stream_output_adapter@D@__crt_stdio_output@@@2@@__crt_stdio_output@@AEAAXII_N@Z 0000000180033970 f i libucrt:output.obj
 0001:00032970       ??$type_case_integer_parse_into_buffer@I@?$output_processor@_WV?$stream_output_adapter@_W@__crt_stdio_output@@V?$standard_base@_WV?$stream_output_adapter@_W@__crt_stdio_output@@@2@@__crt_stdio_output@@AEAAXII_N@Z 0000000180033970 f i libucrt:output.obj
 0001:00032a0c       ??$type_case_integer_parse_into_buffer@_K@?$output_processor@_WV?$string_output_adapter@_W@__crt_stdio_output@@V?$standard_base@_WV?$string_output_adapter@_W@__crt_stdio_output@@@2@@__crt_stdio_output@@AEAAX_KI_N@Z 0000000180033a0c f i libucrt:output.obj
 0001:00032a0c       ??$type_case_integer_parse_into_buffer@_K@?$output_processor@DV?$string_output_adapter@D@__crt_stdio_output@@V?$standard_base@DV?$string_output_adapter@D@__crt_stdio_output@@@2@@__crt_stdio_output@@AEAAX_KI_N@Z 0000000180033a0c f i libucrt:output.obj
 0001:00032a0c       ??$type_case_integer_parse_into_buffer@_K@?$output_processor@_WV?$stream_output_adapter@_W@__crt_stdio_output@@V?$standard_base@_WV?$stream_output_adapter@_W@__crt_stdio_output@@@2@@__crt_stdio_output@@AEAAX_KI_N@Z 0000000180033a0c f i libucrt:output.obj
 0001:00032a0c       ??$type_case_integer_parse_into_buffer@_K@?$output_processor@DV?$stream_output_adapter@D@__crt_stdio_output@@V?$standard_base@DV?$stream_output_adapter@D@__crt_stdio_output@@@2@@__crt_stdio_output@@AEAAX_KI_N@Z 0000000180033a0c f i libucrt:output.obj
 0001:00032aa8       ??$write_multiple_characters@V?$stream_output_adapter@D@__crt_stdio_output@@D@__crt_stdio_output@@YAXAEBV?$stream_output_adapter@D@0@DHQEAH@Z 0000000180033aa8 f i libucrt:output.obj
 0001:00032b2c       ??$write_multiple_characters@V?$stream_output_adapter@_W@__crt_stdio_output@@D@__crt_stdio_output@@YAXAEBV?$stream_output_adapter@_W@0@DHQEAH@Z 0000000180033b2c f i libucrt:output.obj
 0001:00032bbc       ??$write_multiple_characters@V?$string_output_adapter@D@__crt_stdio_output@@D@__crt_stdio_output@@YAXAEBV?$string_output_adapter@D@0@DHQEAH@Z 0000000180033bbc f i libucrt:output.obj
 0001:00032c18       ??$write_multiple_characters@V?$string_output_adapter@_W@__crt_stdio_output@@D@__crt_stdio_output@@YAXAEBV?$string_output_adapter@_W@0@DHQEAH@Z 0000000180033c18 f i libucrt:output.obj
 0001:00032c88       ??0?$output_processor@DV?$stream_output_adapter@D@__crt_stdio_output@@V?$standard_base@DV?$stream_output_adapter@D@__crt_stdio_output@@@2@@__crt_stdio_output@@QEAA@AEBV?$stream_output_adapter@D@1@_KQEBDQEAU__crt_locale_pointers@@QEAD@Z 0000000180033c88 f i libucrt:output.obj
 0001:00032c88       ??0?$output_processor@DV?$string_output_adapter@D@__crt_stdio_output@@V?$standard_base@DV?$string_output_adapter@D@__crt_stdio_output@@@2@@__crt_stdio_output@@QEAA@AEBV?$string_output_adapter@D@1@_KQEBDQEAU__crt_locale_pointers@@QEAD@Z 0000000180033c88 f i libucrt:output.obj
 0001:00032d04       ??0?$output_processor@_WV?$stream_output_adapter@_W@__crt_stdio_output@@V?$standard_base@_WV?$stream_output_adapter@_W@__crt_stdio_output@@@2@@__crt_stdio_output@@QEAA@AEBV?$stream_output_adapter@_W@1@_KQEB_WQEAU__crt_locale_pointers@@QEAD@Z 0000000180033d04 f i libucrt:output.obj
 0001:00032d04       ??0?$output_processor@_WV?$string_output_adapter@_W@__crt_stdio_output@@V?$standard_base@_WV?$string_output_adapter@_W@__crt_stdio_output@@@2@@__crt_stdio_output@@QEAA@AEBV?$string_output_adapter@_W@1@_KQEB_WQEAU__crt_locale_pointers@@QEAD@Z 0000000180033d04 f i libucrt:output.obj
 0001:00032d84       ??0_LocaleUpdate@@QEAA@QEAU__crt_locale_pointers@@@Z 0000000180033d84 f i libucrt:output.obj
 0001:00032ff4       ?force_decimal_point@__crt_stdio_output@@YAXPEADQEAU__crt_locale_pointers@@@Z 0000000180033ff4 f i libucrt:output.obj
 0001:00033064       ?parse_int_from_format_string@?$output_processor@DV?$string_output_adapter@D@__crt_stdio_output@@V?$standard_base@DV?$string_output_adapter@D@__crt_stdio_output@@@2@@__crt_stdio_output@@AEAA_NQEAH@Z 0000000180034064 f i libucrt:output.obj
 0001:00033064       ?parse_int_from_format_string@?$output_processor@DV?$stream_output_adapter@D@__crt_stdio_output@@V?$standard_base@DV?$stream_output_adapter@D@__crt_stdio_output@@@2@@__crt_stdio_output@@AEAA_NQEAH@Z 0000000180034064 f i libucrt:output.obj
 0001:000330e8       ?parse_int_from_format_string@?$output_processor@_WV?$string_output_adapter@_W@__crt_stdio_output@@V?$standard_base@_WV?$string_output_adapter@_W@__crt_stdio_output@@@2@@__crt_stdio_output@@AEAA_NQEAH@Z 00000001800340e8 f i libucrt:output.obj
 0001:000330e8       ?parse_int_from_format_string@?$output_processor@_WV?$stream_output_adapter@_W@__crt_stdio_output@@V?$standard_base@_WV?$stream_output_adapter@_W@__crt_stdio_output@@@2@@__crt_stdio_output@@AEAA_NQEAH@Z 00000001800340e8 f i libucrt:output.obj
 0001:00033168       ?process@?$output_processor@DV?$stream_output_adapter@D@__crt_stdio_output@@V?$standard_base@DV?$stream_output_adapter@D@__crt_stdio_output@@@2@@__crt_stdio_output@@QEAAHXZ 0000000180034168 f i libucrt:output.obj
 0001:00033378       ?process@?$output_processor@DV?$string_output_adapter@D@__crt_stdio_output@@V?$standard_base@DV?$string_output_adapter@D@__crt_stdio_output@@@2@@__crt_stdio_output@@QEAAHXZ 0000000180034378 f i libucrt:output.obj
 0001:0003357c       ?process@?$output_processor@_WV?$stream_output_adapter@_W@__crt_stdio_output@@V?$standard_base@_WV?$stream_output_adapter@_W@__crt_stdio_output@@@2@@__crt_stdio_output@@QEAAHXZ 000000018003457c f i libucrt:output.obj
 0001:000337f4       ?process@?$output_processor@_WV?$string_output_adapter@_W@__crt_stdio_output@@V?$standard_base@_WV?$string_output_adapter@_W@__crt_stdio_output@@@2@@__crt_stdio_output@@QEAAHXZ 00000001800347f4 f i libucrt:output.obj
 0001:00033a70       ?state_case_normal@?$output_processor@DV?$stream_output_adapter@D@__crt_stdio_output@@V?$standard_base@DV?$stream_output_adapter@D@__crt_stdio_output@@@2@@__crt_stdio_output@@AEAA_NXZ 0000000180034a70 f i libucrt:output.obj
 0001:00033ae0       ?state_case_normal@?$output_processor@DV?$string_output_adapter@D@__crt_stdio_output@@V?$standard_base@DV?$string_output_adapter@D@__crt_stdio_output@@@2@@__crt_stdio_output@@AEAA_NXZ 0000000180034ae0 f i libucrt:output.obj
 0001:00033b54       ?state_case_normal_tchar@?$output_processor@DV?$stream_output_adapter@D@__crt_stdio_output@@V?$standard_base@DV?$stream_output_adapter@D@__crt_stdio_output@@@2@@__crt_stdio_output@@AEAA_ND@Z 0000000180034b54 f i libucrt:output.obj
 0001:00033be8       ?state_case_normal_tchar@?$output_processor@DV?$string_output_adapter@D@__crt_stdio_output@@V?$standard_base@DV?$string_output_adapter@D@__crt_stdio_output@@@2@@__crt_stdio_output@@AEAA_ND@Z 0000000180034be8 f i libucrt:output.obj
 0001:00033c80       ?state_case_size@?$output_processor@DV?$stream_output_adapter@D@__crt_stdio_output@@V?$standard_base@DV?$stream_output_adapter@D@__crt_stdio_output@@@2@@__crt_stdio_output@@AEAA_NXZ 0000000180034c80 f i libucrt:output.obj
 0001:00033dfc       ?state_case_size@?$output_processor@DV?$string_output_adapter@D@__crt_stdio_output@@V?$standard_base@DV?$string_output_adapter@D@__crt_stdio_output@@@2@@__crt_stdio_output@@AEAA_NXZ 0000000180034dfc f i libucrt:output.obj
 0001:00033f78       ?state_case_size@?$output_processor@_WV?$stream_output_adapter@_W@__crt_stdio_output@@V?$standard_base@_WV?$stream_output_adapter@_W@__crt_stdio_output@@@2@@__crt_stdio_output@@AEAA_NXZ 0000000180034f78 f i libucrt:output.obj
 0001:0003411c       ?state_case_size@?$output_processor@_WV?$string_output_adapter@_W@__crt_stdio_output@@V?$standard_base@_WV?$string_output_adapter@_W@__crt_stdio_output@@@2@@__crt_stdio_output@@AEAA_NXZ 000000018003511c f i libucrt:output.obj
 0001:000342c0       ?state_case_type@?$output_processor@DV?$stream_output_adapter@D@__crt_stdio_output@@V?$standard_base@DV?$stream_output_adapter@D@__crt_stdio_output@@@2@@__crt_stdio_output@@AEAA_NXZ 00000001800352c0 f i libucrt:output.obj
 0001:0003453c       ?state_case_type@?$output_processor@DV?$string_output_adapter@D@__crt_stdio_output@@V?$standard_base@DV?$string_output_adapter@D@__crt_stdio_output@@@2@@__crt_stdio_output@@AEAA_NXZ 000000018003553c f i libucrt:output.obj
 0001:000347b8       ?state_case_type@?$output_processor@_WV?$stream_output_adapter@_W@__crt_stdio_output@@V?$standard_base@_WV?$stream_output_adapter@_W@__crt_stdio_output@@@2@@__crt_stdio_output@@AEAA_NXZ 00000001800357b8 f i libucrt:output.obj
 0001:00034a84       ?state_case_type@?$output_processor@_WV?$string_output_adapter@_W@__crt_stdio_output@@V?$standard_base@_WV?$string_output_adapter@_W@__crt_stdio_output@@@2@@__crt_stdio_output@@AEAA_NXZ 0000000180035a84 f i libucrt:output.obj
 0001:00034d50       ?type_case_Z@?$output_processor@DV?$stream_output_adapter@D@__crt_stdio_output@@V?$standard_base@DV?$stream_output_adapter@D@__crt_stdio_output@@@2@@__crt_stdio_output@@AEAA_NXZ 0000000180035d50 f i libucrt:output.obj
 0001:00034d50       ?type_case_Z@?$output_processor@DV?$string_output_adapter@D@__crt_stdio_output@@V?$standard_base@DV?$string_output_adapter@D@__crt_stdio_output@@@2@@__crt_stdio_output@@AEAA_NXZ 0000000180035d50 f i libucrt:output.obj
 0001:00034dd0       ?type_case_Z@?$output_processor@_WV?$string_output_adapter@_W@__crt_stdio_output@@V?$standard_base@_WV?$string_output_adapter@_W@__crt_stdio_output@@@2@@__crt_stdio_output@@AEAA_NXZ 0000000180035dd0 f i libucrt:output.obj
 0001:00034dd0       ?type_case_Z@?$output_processor@_WV?$stream_output_adapter@_W@__crt_stdio_output@@V?$standard_base@_WV?$stream_output_adapter@_W@__crt_stdio_output@@@2@@__crt_stdio_output@@AEAA_NXZ 0000000180035dd0 f i libucrt:output.obj
 0001:00034e50       ?type_case_a@?$output_processor@DV?$stream_output_adapter@D@__crt_stdio_output@@V?$standard_base@DV?$stream_output_adapter@D@__crt_stdio_output@@@2@@__crt_stdio_output@@AEAA_NXZ 0000000180035e50 f i libucrt:output.obj
 0001:00034e50       ?type_case_a@?$output_processor@DV?$string_output_adapter@D@__crt_stdio_output@@V?$standard_base@DV?$string_output_adapter@D@__crt_stdio_output@@@2@@__crt_stdio_output@@AEAA_NXZ 0000000180035e50 f i libucrt:output.obj
 0001:0003506c       ?type_case_a@?$output_processor@_WV?$string_output_adapter@_W@__crt_stdio_output@@V?$standard_base@_WV?$string_output_adapter@_W@__crt_stdio_output@@@2@@__crt_stdio_output@@AEAA_NXZ 000000018003606c f i libucrt:output.obj
 0001:0003506c       ?type_case_a@?$output_processor@_WV?$stream_output_adapter@_W@__crt_stdio_output@@V?$standard_base@_WV?$stream_output_adapter@_W@__crt_stdio_output@@@2@@__crt_stdio_output@@AEAA_NXZ 000000018003606c f i libucrt:output.obj
 0001:000352b0       ?type_case_c_tchar@?$output_processor@DV?$stream_output_adapter@D@__crt_stdio_output@@V?$standard_base@DV?$stream_output_adapter@D@__crt_stdio_output@@@2@@__crt_stdio_output@@AEAA_ND@Z 00000001800362b0 f i libucrt:output.obj
 0001:000352b0       ?type_case_c_tchar@?$output_processor@DV?$string_output_adapter@D@__crt_stdio_output@@V?$standard_base@DV?$string_output_adapter@D@__crt_stdio_output@@@2@@__crt_stdio_output@@AEAA_ND@Z 00000001800362b0 f i libucrt:output.obj
 0001:00035364       ?type_case_c_tchar@?$output_processor@_WV?$stream_output_adapter@_W@__crt_stdio_output@@V?$standard_base@_WV?$stream_output_adapter@_W@__crt_stdio_output@@@2@@__crt_stdio_output@@AEAA_N_W@Z 0000000180036364 f i libucrt:output.obj
 0001:00035364       ?type_case_c_tchar@?$output_processor@_WV?$string_output_adapter@_W@__crt_stdio_output@@V?$standard_base@_WV?$string_output_adapter@_W@__crt_stdio_output@@@2@@__crt_stdio_output@@AEAA_N_W@Z 0000000180036364 f i libucrt:output.obj
 0001:0003540c       ?type_case_integer@?$output_processor@_WV?$string_output_adapter@_W@__crt_stdio_output@@V?$standard_base@_WV?$string_output_adapter@_W@__crt_stdio_output@@@2@@__crt_stdio_output@@AEAA_NI_N@Z 000000018003640c f i libucrt:output.obj
 0001:0003540c       ?type_case_integer@?$output_processor@DV?$stream_output_adapter@D@__crt_stdio_output@@V?$standard_base@DV?$stream_output_adapter@D@__crt_stdio_output@@@2@@__crt_stdio_output@@AEAA_NI_N@Z 000000018003640c f i libucrt:output.obj
 0001:0003540c       ?type_case_integer@?$output_processor@DV?$string_output_adapter@D@__crt_stdio_output@@V?$standard_base@DV?$string_output_adapter@D@__crt_stdio_output@@@2@@__crt_stdio_output@@AEAA_NI_N@Z 000000018003640c f i libucrt:output.obj
 0001:0003540c       ?type_case_integer@?$output_processor@_WV?$stream_output_adapter@_W@__crt_stdio_output@@V?$standard_base@_WV?$stream_output_adapter@_W@__crt_stdio_output@@@2@@__crt_stdio_output@@AEAA_NI_N@Z 000000018003640c f i libucrt:output.obj
 0001:000355ac       ?type_case_n@?$output_processor@DV?$string_output_adapter@D@__crt_stdio_output@@V?$standard_base@DV?$string_output_adapter@D@__crt_stdio_output@@@2@@__crt_stdio_output@@AEAA_NXZ 00000001800365ac f i libucrt:output.obj
 0001:000355ac       ?type_case_n@?$output_processor@_WV?$stream_output_adapter@_W@__crt_stdio_output@@V?$standard_base@_WV?$stream_output_adapter@_W@__crt_stdio_output@@@2@@__crt_stdio_output@@AEAA_NXZ 00000001800365ac f i libucrt:output.obj
 0001:000355ac       ?type_case_n@?$output_processor@_WV?$string_output_adapter@_W@__crt_stdio_output@@V?$standard_base@_WV?$string_output_adapter@_W@__crt_stdio_output@@@2@@__crt_stdio_output@@AEAA_NXZ 00000001800365ac f i libucrt:output.obj
 0001:000355ac       ?type_case_n@?$output_processor@DV?$stream_output_adapter@D@__crt_stdio_output@@V?$standard_base@DV?$stream_output_adapter@D@__crt_stdio_output@@@2@@__crt_stdio_output@@AEAA_NXZ 00000001800365ac f i libucrt:output.obj
 0001:00035688       ?type_case_s@?$output_processor@DV?$string_output_adapter@D@__crt_stdio_output@@V?$standard_base@DV?$string_output_adapter@D@__crt_stdio_output@@@2@@__crt_stdio_output@@AEAA_NXZ 0000000180036688 f i libucrt:output.obj
 0001:00035688       ?type_case_s@?$output_processor@DV?$stream_output_adapter@D@__crt_stdio_output@@V?$standard_base@DV?$stream_output_adapter@D@__crt_stdio_output@@@2@@__crt_stdio_output@@AEAA_NXZ 0000000180036688 f i libucrt:output.obj
 0001:00035718       ?type_case_s@?$output_processor@_WV?$stream_output_adapter@_W@__crt_stdio_output@@V?$standard_base@_WV?$stream_output_adapter@_W@__crt_stdio_output@@@2@@__crt_stdio_output@@AEAA_NXZ 0000000180036718 f i libucrt:output.obj
 0001:00035718       ?type_case_s@?$output_processor@_WV?$string_output_adapter@_W@__crt_stdio_output@@V?$standard_base@_WV?$string_output_adapter@_W@__crt_stdio_output@@@2@@__crt_stdio_output@@AEAA_NXZ 0000000180036718 f i libucrt:output.obj
 0001:000357e0       ?validate_stream_is_ansi_if_required@?$__acrt_stdio_char_traits@D@@SA_NQEAU_iobuf@@@Z 00000001800367e0 f i libucrt:output.obj
 0001:0003586c       ?write_stored_string_tchar@?$output_processor@DV?$stream_output_adapter@D@__crt_stdio_output@@V?$standard_base@DV?$stream_output_adapter@D@__crt_stdio_output@@@2@@__crt_stdio_output@@AEAA_ND@Z 000000018003686c f i libucrt:output.obj
 0001:00035944       ?write_stored_string_tchar@?$output_processor@DV?$string_output_adapter@D@__crt_stdio_output@@V?$standard_base@DV?$string_output_adapter@D@__crt_stdio_output@@@2@@__crt_stdio_output@@AEAA_ND@Z 0000000180036944 f i libucrt:output.obj
 0001:00035a1c       ?write_stored_string_tchar@?$output_processor@_WV?$stream_output_adapter@_W@__crt_stdio_output@@V?$standard_base@_WV?$stream_output_adapter@_W@__crt_stdio_output@@@2@@__crt_stdio_output@@AEAA_N_W@Z 0000000180036a1c f i libucrt:output.obj
 0001:00035b08       ?write_stored_string_tchar@?$output_processor@_WV?$string_output_adapter@_W@__crt_stdio_output@@V?$standard_base@_WV?$string_output_adapter@_W@__crt_stdio_output@@@2@@__crt_stdio_output@@AEAA_N_W@Z 0000000180036b08 f i libucrt:output.obj
 0001:00035bf8       ?write_string@?$stream_output_adapter@D@__crt_stdio_output@@QEBAXQEBDHQEAH1@Z 0000000180036bf8 f i libucrt:output.obj
 0001:00035cf0       ?write_string@?$stream_output_adapter@_W@__crt_stdio_output@@QEBAXQEB_WHQEAH1@Z 0000000180036cf0 f i libucrt:output.obj
 0001:00035dfc       ?write_string@?$string_output_adapter@D@__crt_stdio_output@@QEBAXQEBDHQEAH1@Z 0000000180036dfc f i libucrt:output.obj
 0001:00035eb8       ?write_string@?$string_output_adapter@_W@__crt_stdio_output@@QEBAXQEB_WHQEAH1@Z 0000000180036eb8 f i libucrt:output.obj
 0001:00035f78       __stdio_common_vfprintf    0000000180036f78 f   libucrt:output.obj
 0001:00036004       __stdio_common_vfwprintf   0000000180037004 f   libucrt:output.obj
 0001:00036090       __stdio_common_vsprintf    0000000180037090 f   libucrt:output.obj
 0001:000362c4       __stdio_common_vswprintf   00000001800372c4 f   libucrt:output.obj
 0001:000364fc       free                       00000001800374fc f   libucrt:free.obj
 0001:00036504       __acrt_initialize_stdio    0000000180037504 f   libucrt:_file.obj
 0001:00036624       __acrt_iob_func            0000000180037624 f   libucrt:_file.obj
 0001:00036638       __acrt_uninitialize_stdio  0000000180037638 f   libucrt:_file.obj
 0001:00036694       _lock_file                 0000000180037694 f   libucrt:_file.obj
 0001:000366a0       _unlock_file               00000001800376a0 f   libucrt:_file.obj
 0001:000366ac       round                      00000001800376ac f   libucrt:round.obj
 0001:000370fc       ??$ftprintf@PEAU_iobuf@@PEB_WAEBQEB_WAEBQEB_WAEBI@?$__crt_char_traits@_W@@SAH$$QEAPEAU_iobuf@@$$QEAPEB_WAEBQEB_W2AEBI@Z 00000001800380fc f i libucrt:assert.obj
 0001:00037124       _wassert                   0000000180038124 f   libucrt:assert.obj
 0001:000371a8       fwprintf                   00000001800381a8 f i libucrt:assert.obj
 0001:000371ec       swprintf                   00000001800381ec f i libucrt:assert.obj
 0001:00037240       malloc                     0000000180038240 f   libucrt:malloc.obj
 0001:00037248       __ascii_stricmp            0000000180038248 f   libucrt:stricmp.obj
 0001:00037284       _stricmp                   0000000180038284 f   libucrt:stricmp.obj
 0001:000372cc       _stricmp_l                 00000001800382cc f   libucrt:stricmp.obj
 0001:00037380       __acrt_initialize_locks    0000000180038380 f   libucrt:locks.obj
 0001:000373c8       __acrt_lock                00000001800383c8 f   libucrt:locks.obj
 0001:000373e4       __acrt_uninitialize_locks  00000001800383e4 f   libucrt:locks.obj
 0001:0003741c       __acrt_unlock              000000018003841c f   libucrt:locks.obj
 0001:00037438       _calloc_base               0000000180038438 f   libucrt:calloc_base.obj
 0001:000374b0       __pctype_func              00000001800384b0 f   libucrt:ctype.obj
 0001:000374e0       isdigit                    00000001800384e0 f i libucrt:_ctype.obj
 0001:00037554       __acrt_errno_from_os_error 0000000180038554 f   libucrt:errno.obj
 0001:0003759c       __acrt_errno_map_os_error  000000018003859c f   libucrt:errno.obj
 0001:000375ec       __doserrno                 00000001800385ec f   libucrt:errno.obj
 0001:0003760c       _errno                     000000018003860c f   libucrt:errno.obj
 0001:000376a4       _ismbblead                 00000001800386a4 f   libucrt:ismbbyte.obj
 0001:000376b8       _malloc_base               00000001800386b8 f   libucrt:malloc_base.obj
 0001:00037718       _realloc_base              0000000180038718 f   libucrt:realloc_base.obj
 0001:0003779c       ??$make_c_string_character_source@_WPEAPEA_W@__crt_strtox@@YA?AV?$c_string_character_source@_W@0@QEB_WQEAPEA_W@Z 000000018003879c f i libucrt:strtod.obj
 0001:0003779c       ??$make_c_string_character_source@DPEAPEAD@__crt_strtox@@YA?AV?$c_string_character_source@D@0@QEBDQEAPEAD@Z 000000018003879c f i libucrt:strtod.obj
 0001:000377b0       ?divide@__crt_strtox@@YA_KAEAUbig_integer@1@AEBU21@@Z 00000001800387b0 f i libucrt:strtod.obj
 0001:00037c80       pow                        0000000180038c80 f   libucrt:pow.obj
 0001:00039320       powf                       000000018003a320 f   libucrt:powf.obj
 0001:0003a1e8       __strncnt                  000000018003b1e8 f   libucrt:strncnt.obj
 0001:0003a200       _free_base                 000000018003b200 f   libucrt:free_base.obj
 0001:0003a290       _tolower_l                 000000018003b290 f   libucrt:tolower_toupper.obj
 0001:0003a3d0       tolower                    000000018003b3d0 f   libucrt:tolower_toupper.obj
 0001:0003a3fc       wcscpy_s                   000000018003b3fc f   libucrt:wcscpy_s.obj
 0001:0003a464       strnlen                    000000018003b464 f   libucrt:strnlen.obj
 0001:0003a5c0       wcsnlen                    000000018003b5c0 f   libucrt:strnlen.obj
 0001:0003a7b0       __acrt_initialize_new_handler 000000018003b7b0 f   libucrt:new_handler.obj
 0001:0003a7b8       _callnewh                  000000018003b7b8 f   libucrt:new_handler.obj
 0001:0003a7f8       _query_new_handler         000000018003b7f8 f   libucrt:new_handler.obj
 0001:0003a82c       _seh_filter_dll            000000018003b82c f   libucrt:exception_filter.obj
 0001:0003a840       _seh_filter_exe            000000018003b840 f   libucrt:exception_filter.obj
 0001:0003ac00       __acrt_initialize_thread_local_exit_callback 000000018003bc00 f   libucrt:exit.obj
 0001:0003ac08       _cexit                     000000018003bc08 f   libucrt:exit.obj
 0001:0003ac18       _exit                      000000018003bc18 f   libucrt:exit.obj
 0001:0003ac24       _is_c_termination_complete 000000018003bc24 f   libucrt:exit.obj
 0001:0003ade8       __acrt_allocate_buffer_for_argv 000000018003bde8 f   libucrt:argv_parsing.obj
 0001:0003ae4c       _configure_narrow_argv     000000018003be4c f   libucrt:argv_parsing.obj
 0001:0003b1a8       __dcrt_uninitialize_environments_nolock 000000018003c1a8 f   libucrt:environment_initialization.obj
 0001:0003b1e0       _initialize_narrow_environment 000000018003c1e0 f   libucrt:environment_initialization.obj
 0001:0003b1e8       ??$?RV<lambda_b8c45f8f788dd370798f47cfe8ac3a86>@@AEAV<lambda_4e60a939b0d047cfe11ddc22648dfba9>@@V<lambda_332c3edc96d0294ec56c57d38c1cdfd5>@@@?$__crt_seh_guarded_call@H@@QEAAH$$QEAV<lambda_b8c45f8f788dd370798f47cfe8ac3a86>@@AEAV<lambda_4e60a939b0d047cfe11ddc22648dfba9>@@$$QEAV<lambda_332c3edc96d0294ec56c57d38c1cdfd5>@@@Z 000000018003c1e8 f i libucrt:onexit.obj
 0001:0003b224       ??$?RV<lambda_e24bbb7b643b32fcea6fa61b31d4c984>@@AEAV<lambda_275893d493268fdec8709772e3fcec0e>@@V<lambda_9d71df4d7cf3f480f8d633942495c3b0>@@@?$__crt_seh_guarded_call@H@@QEAAH$$QEAV<lambda_e24bbb7b643b32fcea6fa61b31d4c984>@@AEAV<lambda_275893d493268fdec8709772e3fcec0e>@@$$QEAV<lambda_9d71df4d7cf3f480f8d633942495c3b0>@@@Z 000000018003c224 f i libucrt:onexit.obj
 0001:0003b5a0       _crt_atexit                000000018003c5a0 f   libucrt:onexit.obj
 0001:0003b5b0       _execute_onexit_table      000000018003c5b0 f   libucrt:onexit.obj
 0001:0003b5ec       _initialize_onexit_table   000000018003c5ec f   libucrt:onexit.obj
 0001:0003b62c       _register_onexit_function  000000018003c62c f   libucrt:onexit.obj
 0001:0003b6bc       __acrt_uninitialize_command_line 000000018003c6bc f   libucrt:argv_data.obj
 0001:0003b7ac       __acrt_initialize          000000018003c7ac f   libucrt:initialization.obj
 0001:0003b7c0       __acrt_thread_attach       000000018003c7c0 f   libucrt:initialization.obj
 0001:0003b7d4       __acrt_thread_detach       000000018003c7d4 f   libucrt:initialization.obj
 0001:0003b7e4       __acrt_uninitialize        000000018003c7e4 f   libucrt:initialization.obj
 0001:0003b7f8       __acrt_uninitialize_critical 000000018003c7f8 f   libucrt:initialization.obj
 0001:0003b808       _initterm                  000000018003c808 f   libucrt:initterm.obj
 0001:0003b880       _initterm_e                000000018003c880 f   libucrt:initterm.obj
 0001:0003b8cc       terminate                  000000018003c8cc f   libucrt:terminate.obj
 0001:0003b8f4       strcpy_s                   000000018003c8f4 f   libucrt:strcpy_s.obj
 0001:0003b954       ??$is_overflow_condition@K@__crt_strtox@@YA_NIK@Z 000000018003c954 f i libucrt:atox.obj
 0001:0003b980       ??$parse_integer@KV?$c_string_character_source@D@__crt_strtox@@@__crt_strtox@@YAKQEAU__crt_locale_pointers@@V?$c_string_character_source@D@0@H_N@Z 000000018003c980 f i libucrt:atox.obj
 0001:0003bc94       ??$parse_integer@KV?$c_string_character_source@_W@__crt_strtox@@@__crt_strtox@@YAKQEAU__crt_locale_pointers@@V?$c_string_character_source@_W@0@H_N@Z 000000018003cc94 f i libucrt:atox.obj
 0001:0003c368       ??$?RV<lambda_c36588078e9f5dfd39652860aa6b3aaf>@@AEAV<lambda_ec61778202f4f5fc7e7711acc23c3bca>@@V<lambda_dc9d2797ccde5d239b4a0efae8ebd7db>@@@?$__crt_seh_guarded_call@P6AXH@Z@@QEAAP6AXH@Z$$QEAV<lambda_c36588078e9f5dfd39652860aa6b3aaf>@@AEAV<lambda_ec61778202f4f5fc7e7711acc23c3bca>@@$$QEAV<lambda_dc9d2797ccde5d239b4a0efae8ebd7db>@@@Z 000000018003d368 f i libucrt:signal.obj
 0001:0003c3b0       __acrt_get_sigabrt_handler 000000018003d3b0 f   libucrt:signal.obj
 0001:0003c3e0       __acrt_initialize_signal_handlers 000000018003d3e0 f   libucrt:signal.obj
 0001:0003c400       raise                      000000018003d400 f   libucrt:signal.obj
 0001:0003c69c       ??$?RV<lambda_46352004c1216016012b18bd6f87e700>@@AEAV<lambda_3bd07e1a1191394380780325891bf33f>@@V<lambda_334532d3f185bcaa59b5be82d7d22bff>@@@?$__crt_seh_guarded_call@X@@QEAAX$$QEAV<lambda_46352004c1216016012b18bd6f87e700>@@AEAV<lambda_3bd07e1a1191394380780325891bf33f>@@$$QEAV<lambda_334532d3f185bcaa59b5be82d7d22bff>@@@Z 000000018003d69c f i libucrt:per_thread_data.obj
 0001:0003c6fc       ??$?RV<lambda_5e887d1dcbef67a5eb4283622ba103bf>@@AEAV<lambda_4466841279450cc726390878d4a41900>@@V<lambda_341c25c0346d94847f1f3c463c57e077>@@@?$__crt_seh_guarded_call@X@@QEAAX$$QEAV<lambda_5e887d1dcbef67a5eb4283622ba103bf>@@AEAV<lambda_4466841279450cc726390878d4a41900>@@$$QEAV<lambda_341c25c0346d94847f1f3c463c57e077>@@@Z 000000018003d6fc f i libucrt:per_thread_data.obj
 0001:0003c744       ??$?RV<lambda_72d1df2b273a38828b1ce30cbf4cdab5>@@AEAV<lambda_876a65b173b8412d3a47c70a915b0cf4>@@V<lambda_41932305e351933ebe8f8be3ed8bb5dc>@@@?$__crt_seh_guarded_call@X@@QEAAX$$QEAV<lambda_72d1df2b273a38828b1ce30cbf4cdab5>@@AEAV<lambda_876a65b173b8412d3a47c70a915b0cf4>@@$$QEAV<lambda_41932305e351933ebe8f8be3ed8bb5dc>@@@Z 000000018003d744 f i libucrt:per_thread_data.obj
 0001:0003c784       ??$?RV<lambda_fb3a7dec4e47f37f22dae91bb15c9095>@@AEAV<lambda_698284760c8add0bfb0756c19673e34b>@@V<lambda_dfb8eca1e75fef3034a8fb18dd509707>@@@?$__crt_seh_guarded_call@X@@QEAAX$$QEAV<lambda_fb3a7dec4e47f37f22dae91bb15c9095>@@AEAV<lambda_698284760c8add0bfb0756c19673e34b>@@$$QEAV<lambda_dfb8eca1e75fef3034a8fb18dd509707>@@@Z 000000018003d784 f i libucrt:per_thread_data.obj
 0001:0003ca14       __acrt_freeptd             000000018003da14 f   libucrt:per_thread_data.obj
 0001:0003ca58       __acrt_getptd              000000018003da58 f   libucrt:per_thread_data.obj
 0001:0003caec       __acrt_getptd_noexit       000000018003daec f   libucrt:per_thread_data.obj
 0001:0003cb8c       __acrt_initialize_ptd      000000018003db8c f   libucrt:per_thread_data.obj
 0001:0003cbc8       __acrt_uninitialize_ptd    000000018003dbc8 f   libucrt:per_thread_data.obj
 0001:0003cbec       strtol                     000000018003dbec f   libucrt:strtox.obj
 0001:0003cc1c       wcstol                     000000018003dc1c f   libucrt:strtox.obj
 0001:0003cc4c       _mbtowc_l                  000000018003dc4c f   libucrt:mbtowc.obj
 0001:0003cd94       mbtowc                     000000018003dd94 f   libucrt:mbtowc.obj
 0001:0003cd9c       _wctomb_s_l                000000018003dd9c f   libucrt:wctomb.obj
 0001:0003cf20       wctomb_s                   000000018003df20 f   libucrt:wctomb.obj
 0001:0003cf34       __acrt_update_locale_info  000000018003df34 f   libucrt:locale_update.obj
 0001:0003cf68       __acrt_update_multibyte_info 000000018003df68 f   libucrt:locale_update.obj
 0001:0003cf9c       ?__acrt_fp_classify@@YA?AW4__acrt_fp_class@@AEBN@Z 000000018003df9c f i libucrt:cvt.obj
 0001:0003d9d4       __acrt_fp_format           000000018003e9d4 f   libucrt:cvt.obj
 0001:0003dc18       _fputwc_nolock             000000018003ec18 f   libucrt:fputwc.obj
 0001:0003dd94       _fileno                    000000018003ed94 f   libucrt:fileno.obj
 0001:0003ddbc       _fputc_nolock              000000018003edbc f   libucrt:fputc.obj
 0001:0003ddd4       _get_printf_count_output   000000018003edd4 f   libucrt:printf_count_output.obj
 0001:0003ddec       __acrt_stdio_begin_temporary_buffering_nolock 000000018003edec f   libucrt:_sftbuf.obj
 0001:0003debc       __acrt_stdio_end_temporary_buffering_nolock 000000018003eebc f   libucrt:_sftbuf.obj
 0001:0003def8       __acrt_set_locale_changed  000000018003eef8 f   libucrt:wsetlocale.obj
 0001:0003df04       __acrt_uninitialize_locale 000000018003ef04 f   libucrt:wsetlocale.obj
 0001:0003e134       __acrt_initialize_lowio    000000018003f134 f   libucrt:ioinit.obj
 0001:0003e170       __acrt_uninitialize_lowio  000000018003f170 f   libucrt:ioinit.obj
 0001:0003e1b0       _raise_exc                 000000018003f1b0 f   libucrt:fpexcept.obj
 0001:0003e1d8       _raise_exc_ex              000000018003f1d8 f   libucrt:fpexcept.obj
 0001:0003e4e0       _raise_excf                000000018003f4e0 f   libucrt:fpexcept.obj
 0001:0003e50c       _set_errno_from_matherr    000000018003f50c f   libucrt:fpexcept.obj
 0001:0003e53c       _clrfp                     000000018003f53c f   libucrt:fpctrl.obj
 0001:0003e55c       _ctrlfp                    000000018003f55c f   libucrt:fpctrl.obj
 0001:0003e5d8       _set_statfp                000000018003f5d8 f   libucrt:fpctrl.obj
 0001:0003e5f8       _statfp                    000000018003f5f8 f   libucrt:fpctrl.obj
 0001:0003e7ac       __acrt_FlsAlloc            000000018003f7ac f   libucrt:winapi_thunks.obj
 0001:0003e804       __acrt_FlsFree             000000018003f804 f   libucrt:winapi_thunks.obj
 0001:0003e85c       __acrt_FlsGetValue         000000018003f85c f   libucrt:winapi_thunks.obj
 0001:0003e8b4       __acrt_FlsSetValue         000000018003f8b4 f   libucrt:winapi_thunks.obj
 0001:0003e91c       __acrt_InitializeCriticalSectionEx 000000018003f91c f   libucrt:winapi_thunks.obj
 0001:0003e994       __acrt_LCMapStringEx       000000018003f994 f   libucrt:winapi_thunks.obj
 0001:0003ea84       __acrt_LocaleNameToLCID    000000018003fa84 f   libucrt:winapi_thunks.obj
 0001:0003eaec       __acrt_MessageBoxW         000000018003faec f   libucrt:winapi_thunks.obj
 0001:0003eb74       __acrt_can_show_message_box 000000018003fb74 f   libucrt:winapi_thunks.obj
 0001:0003ebd0       __acrt_get_parent_window   000000018003fbd0 f   libucrt:winapi_thunks.obj
 0001:0003ec60       __acrt_initialize_winapi_thunks 000000018003fc60 f   libucrt:winapi_thunks.obj
 0001:0003ec98       __acrt_is_interactive      000000018003fc98 f   libucrt:winapi_thunks.obj
 0001:0003ed6c       __acrt_is_packaged_app     000000018003fd6c f   libucrt:winapi_thunks.obj
 0001:0003edf4       __acrt_uninitialize_winapi_thunks 000000018003fdf4 f   libucrt:winapi_thunks.obj
 0001:0003ee38       _fcloseall                 000000018003fe38 f   libucrt:closeall.obj
 0001:0003eeec       __acrt_stdio_flush_nolock  000000018003feec f   libucrt:fflush.obj
 0001:0003ef64       _fflush_nolock             000000018003ff64 f   libucrt:fflush.obj
 0001:0003efb0       _flushall                  000000018003ffb0 f   libucrt:fflush.obj
 0001:0003f0a0       fflush                     00000001800400a0 f   libucrt:fflush.obj
 0001:0003f0e4       __acrt_stdio_free_buffer_nolock 00000001800400e4 f   libucrt:_freebuf.obj
 0001:0003f124       _d_int                     0000000180040124 f   libucrt:_test.obj
 0001:0003f23c       _query_app_type            000000018004023c f   libucrt:report_runtime_error.obj
 0001:0003f36c       _itow_s                    000000018004036c f   libucrt:xtoa.obj
 0001:0003f38c       _set_error_mode            000000018004038c f   libucrt:set_error_mode.obj
 0001:0003f3cc       wcscat_s                   00000001800403cc f   libucrt:wcscat_s.obj
 0001:0003f44c       wcsncat_s                  000000018004044c f   libucrt:wcsncat_s.obj
 0001:0003f574       __acrt_show_wide_message_box 0000000180040574 f   libucrt:crtmbox.obj
 0001:0003f690       ??$?RV<lambda_7a5ef57ff966f610505f1d28a3d40618>@@AEAV<lambda_b721fa326cdb32351d23dfa67958c160>@@V<lambda_5e0fb27672408a07956fe59e48ccb2aa>@@@?$__crt_seh_guarded_call@H@@QEAAH$$QEAV<lambda_7a5ef57ff966f610505f1d28a3d40618>@@AEAV<lambda_b721fa326cdb32351d23dfa67958c160>@@$$QEAV<lambda_5e0fb27672408a07956fe59e48ccb2aa>@@@Z 0000000180040690 f i libucrt:setvbuf.obj
 0001:0003f7c0       setvbuf                    00000001800407c0 f   libucrt:setvbuf.obj
 0001:0003f860       _query_new_mode            0000000180040860 f   libucrt:new_mode.obj
 0001:0003f868       __acrt_initialize_heap     0000000180040868 f   libucrt:heap_handle.obj
 0001:0003f884       __acrt_uninitialize_heap   0000000180040884 f   libucrt:heap_handle.obj
 0001:0003f890       _isctype_l                 0000000180040890 f   libucrt:isctype.obj
 0001:0003f9a0       __acrt_GetStringTypeA      00000001800409a0 f   libucrt:getstringtypea.obj
 0001:0003feb0       __acrt_LCMapStringA        0000000180040eb0 f   libucrt:lcmapstringa.obj
 0001:0003ff48       iswctype                   0000000180040f48 f   libucrt:iswctype.obj
 0001:0003ffc0       __acrt_initialize_fma3     0000000180040fc0 f   libucrt:fma3_available.obj
 0001:00040030       _pow_special               0000000180041030 f   libucrt:pow_special.obj
 0001:00040154       _powf_special              0000000180041154 f   libucrt:pow_special.obj
 0001:000402e0       __acrt_initialize_timeset  00000001800412e0 f   libucrt:timeset.obj
 0001:00040310       _isleadbyte_l              0000000180041310 f i libucrt:_wctype.obj
 0001:0004082c       ?expand_if_necessary@?$argument_list@D@?A0xca0879c4@@AEAAHXZ 000000018004182c f i libucrt:argv_wildcards.obj
 0001:000408f4       __acrt_expand_narrow_argv_wildcards 00000001800418f4 f   libucrt:argv_wildcards.obj
 0001:000408fc       ??$?RV<lambda_99476a1ad63dd22509b5d3e65b0ffc95>@@AEAV<lambda_ad1ced32f4ac17aa236e5ef05d6b3b7c>@@V<lambda_f7424dd8d45958661754dc4f2697e9c3>@@@?$__crt_seh_guarded_call@X@@QEAAX$$QEAV<lambda_99476a1ad63dd22509b5d3e65b0ffc95>@@AEAV<lambda_ad1ced32f4ac17aa236e5ef05d6b3b7c>@@$$QEAV<lambda_f7424dd8d45958661754dc4f2697e9c3>@@@Z 00000001800418fc f i libucrt:mbctype.obj
 0001:00040ff8       __acrt_initialize_multibyte 0000000180041ff8 f   libucrt:mbctype.obj
 0001:00041020       __acrt_update_thread_multibyte_data 0000000180042020 f   libucrt:mbctype.obj
 0001:000410e0       _setmbcp_nolock            00000001800420e0 f   libucrt:mbctype.obj
 0001:00041388       __acrt_initialize_command_line 0000000180042388 f   libucrt:argv_data.obj
 0001:000413b0       __dcrt_get_narrow_environment_from_os 00000001800423b0 f   libucrt:get_environment_from_os.obj
 0001:000414b4       _recalloc                  00000001800424b4 f   libucrt:recalloc.obj
 0001:000414bc       _recalloc_base             00000001800424bc f   libucrt:recalloc.obj
 0001:00041554       __acrt_execute_initializers 0000000180042554 f   libucrt:shared_initialization.obj
 0001:000415e8       __acrt_execute_uninitializers 00000001800425e8 f   libucrt:shared_initialization.obj
 0001:00041638       __acrt_has_user_matherr    0000000180042638 f   libucrt:matherr.obj
 0001:00041658       __acrt_initialize_user_matherr 0000000180042658 f   libucrt:matherr.obj
 0001:00041660       __acrt_invoke_user_matherr 0000000180042660 f   libucrt:matherr.obj
 0001:000416a8       __acrt_add_locale_ref      00000001800426a8 f   libucrt:locale_refcounting.obj
 0001:00041734       __acrt_free_locale         0000000180042734 f   libucrt:locale_refcounting.obj
 0001:000418ac       __acrt_locale_add_lc_time_reference 00000001800428ac f   libucrt:locale_refcounting.obj
 0001:000418d4       __acrt_locale_free_lc_time_if_unreferenced 00000001800428d4 f   libucrt:locale_refcounting.obj
 0001:0004190c       __acrt_locale_release_lc_time_reference 000000018004290c f   libucrt:locale_refcounting.obj
 0001:00041934       __acrt_release_locale_ref  0000000180042934 f   libucrt:locale_refcounting.obj
 0001:000419dc       __acrt_update_thread_locale_data 00000001800429dc f   libucrt:locale_refcounting.obj
 0001:00041a4c       _updatetlocinfoEx_nolock   0000000180042a4c f   libucrt:locale_refcounting.obj
 0001:00041ab4       __acrt_fp_strflt_to_string 0000000180042ab4 f   libucrt:_fptostr.obj
 0001:00041b74       __acrt_fltout              0000000180042b74 f   libucrt:cfout.obj
 0001:00043178       __acrt_stdio_flush_and_write_narrow_nolock 0000000180044178 f   libucrt:_flsbuf.obj
 0001:00043260       __acrt_stdio_flush_and_write_wide_nolock 0000000180044260 f   libucrt:_flsbuf.obj
 0001:0004334c       _isatty                    000000018004434c f   libucrt:isatty.obj
 0001:000433ac       __acrt_locale_free_monetary 00000001800443ac f   libucrt:initmon.obj
 0001:000434b8       __acrt_locale_free_numeric 00000001800444b8 f   libucrt:initnum.obj
 0001:0004357c       __acrt_locale_free_time    000000018004457c f   libucrt:inittime.obj
 0001:00043684       __acrt_lowio_create_handle_array 0000000180044684 f   libucrt:osfinfo.obj
 0001:0004371c       __acrt_lowio_destroy_handle_array 000000018004471c f   libucrt:osfinfo.obj
 0001:0004376c       __acrt_lowio_ensure_fh_exists 000000018004476c f   libucrt:osfinfo.obj
 0001:00043824       __acrt_lowio_lock_fh       0000000180044824 f   libucrt:osfinfo.obj
 0001:00043848       __acrt_lowio_unlock_fh     0000000180044848 f   libucrt:osfinfo.obj
 0001:0004386c       _free_osfhnd               000000018004486c f   libucrt:osfinfo.obj
 0001:00043928       _get_osfhandle             0000000180044928 f   libucrt:osfinfo.obj
 0001:000439b0       _get_fpsr                  00000001800449b0 f   libucrt:fpsr.obj
 0001:000439c0       _set_fpsr                  00000001800449c0 f   libucrt:fpsr.obj
 0001:000439ca       _fclrf                     00000001800449ca f   libucrt:fpsr.obj
 0001:000439de       _frnd                      00000001800449de f   libucrt:fpsr.obj
 0001:00043ac8       __acrt_DownlevelLocaleNameToLCID 0000000180044ac8 f   libucrt:lcidtoname_downlevel.obj
 0001:00043afc       _fclose_nolock             0000000180044afc f   libucrt:fclose.obj
 0001:00043b80       fclose                     0000000180044b80 f   libucrt:fclose.obj
 0001:00043bec       ??$?RV<lambda_b521505b218e5242e90febf6bfebc422>@@AEAV<lambda_6978c1fb23f02e42e1d9e99668cc68aa>@@V<lambda_314360699dd331753a4119843814e9a7>@@@?$__crt_seh_guarded_call@H@@QEAAH$$QEAV<lambda_b521505b218e5242e90febf6bfebc422>@@AEAV<lambda_6978c1fb23f02e42e1d9e99668cc68aa>@@$$QEAV<lambda_314360699dd331753a4119843814e9a7>@@@Z 0000000180044bec f i libucrt:commit.obj
 0001:00043c78       _commit                    0000000180044c78 f   libucrt:commit.obj
 0001:000442ac       _write                     00000001800452ac f   libucrt:write.obj
 0001:00044398       _write_nolock              0000000180045398 f   libucrt:write.obj
 0001:0004467c       _getfpcontrolword          000000018004567c f   libucrt:_fenvutils.obj
 0001:00044694       _getfpstatusword           0000000180045694 f   libucrt:_fenvutils.obj
 0001:000446a8       _setfpcontrolword          00000001800456a8 f   libucrt:_fenvutils.obj
 0001:000446b4       _setfpstatusword           00000001800456b4 f   libucrt:_fenvutils.obj
 0001:00044704       strncpy_s                  0000000180045704 f   libucrt:strncpy_s.obj
 0001:000448fc       _handle_error              00000001800458fc f   libucrt:libm_error.obj
 0001:00044a24       _handle_errorf             0000000180045a24 f   libucrt:libm_error.obj
 0001:00044b58       _handle_nan                0000000180045b58 f   libucrt:libm_error.obj
 0001:00044b74       _handle_nanf               0000000180045b74 f   libucrt:libm_error.obj
 0001:00044c60       qsort                      0000000180045c60 f   libucrt:qsort.obj
 0001:00044f94       strpbrk                    0000000180045f94 f   libucrt:strpbrk.obj
 0001:00045034       _mbsdec                    0000000180046034 f   libucrt:mbsdec.obj
 0001:0004503c       _mbsdec_l                  000000018004603c f   libucrt:mbsdec.obj
 0001:000450ec       _msize                     00000001800460ec f   libucrt:msize.obj
 0001:00045128       fegetenv                   0000000180046128 f   libucrt:fegetenv.obj
 0001:00045148       fesetenv                   0000000180046148 f   libucrt:fesetenv.obj
 0001:00045194       feholdexcept               0000000180046194 f   libucrt:feholdexcept.obj
 0001:000451e4       ceil                       00000001800461e4 f   libucrt:ceil.obj
 0001:000452b0       log10                      00000001800462b0 f   libucrt:log10.obj
 0001:000459e8       _lseeki64                  00000001800469e8 f   libucrt:lseek.obj
 0001:000459f0       _lseeki64_nolock           00000001800469f0 f   libucrt:lseek.obj
 0001:000459f8       __acrt_stdio_allocate_buffer_nolock 00000001800469f8 f   libucrt:_getbuf.obj
 0001:00045a5c       ??$?RV<lambda_bfedae4ebbf01fab1bb6dcc6a9e276e0>@@AEAV<lambda_2fe9b910cf3cbf4a0ab98a02ba45b3ec>@@V<lambda_237c231691f317818eb88cc1d5d642d6>@@@?$__crt_seh_guarded_call@H@@QEAAH$$QEAV<lambda_bfedae4ebbf01fab1bb6dcc6a9e276e0>@@AEAV<lambda_2fe9b910cf3cbf4a0ab98a02ba45b3ec>@@$$QEAV<lambda_237c231691f317818eb88cc1d5d642d6>@@@Z 0000000180046a5c f i libucrt:close.obj
 0001:00045ad0       _close                     0000000180046ad0 f   libucrt:close.obj
 0001:00045b74       _close_nolock              0000000180046b74 f   libucrt:close.obj
 0001:00045c30       ?__acrt_stdio_free_stream@@YAXV__crt_stdio_stream@@@Z 0000000180046c30 f   libucrt:stream.obj
 0001:00045c74       _putwch_nolock             0000000180046c74 f   libucrt:putwch.obj
 0001:00045cd0       _clearfp                   0000000180046cd0 f   libucrt:ieee.obj
 0001:00045d24       _controlfp                 0000000180046d24 f   libucrt:ieee.obj
 0001:00045d30       _statusfp                  0000000180046d30 f   libucrt:ieee.obj
 0001:00046010       _log10_special             0000000180047010 f   libucrt:log_special.obj
 0001:000460c8       __dcrt_lowio_initialize_console_output 00000001800470c8 f   libucrt:initcon.obj
 0001:00046104       __dcrt_terminate_console_output 0000000180047104 f   libucrt:initcon.obj
 0001:00046124       IsProcessorFeaturePresent  0000000180047124 f   kernel32:KERNEL32.dll
 0001:0004612a       RtlUnwindEx                000000018004712a f   kernel32:KERNEL32.dll
 0001:00046130       ?DloadAcquireSectionWriteAccess@@YAXXZ 0000000180047130 f i DelayImp:delayhlp.obj
 0001:000461ec       ?DloadGetSRWLockFunctionPointers@@YAEXZ 00000001800471ec f i DelayImp:delayhlp.obj
 0001:00046288       ?DloadMakePermanentImageCommit@@YAXPEAX_K@Z 0000000180047288 f i DelayImp:delayhlp.obj
 0001:00046320       ?DloadObtainSection@@YAPEAXPEAK0@Z 0000000180047320 f i DelayImp:delayhlp.obj
 0001:000463b8       ?DloadProtectSection@@YAXKPEAK@Z 00000001800473b8 f i DelayImp:delayhlp.obj
 0001:00046448       ?DloadReleaseSectionWriteAccess@@YAXXZ 0000000180047448 f i DelayImp:delayhlp.obj
 0001:000464ec       __delayLoadHelper2         00000001800474ec f   DelayImp:delayhlp.obj
 0001:000467f0       _FindPESection             00000001800477f0 f   LIBCMT:pesect.obj
 0001:00046840       _IsNonwritableInCurrentImage 0000000180047840 f   LIBCMT:pesect.obj
 0001:00046890       _ValidateImageBase         0000000180047890 f   LIBCMT:pesect.obj
 0001:000468c0       strrchr                    00000001800478c0 f   libvcruntime:strrchr.obj
 0001:00046a00       ceilf                      0000000180047a00 f   libucrt:ceilf.obj
 0001:00046aa0       strcmp                     0000000180047aa0 f   libucrt:strcmp.obj
 0001:00046b20       _guard_dispatch_icall_nop  0000000180047b20 f   LIBCMT:_guard_dispatch_.obj
 0002:00000000       __imp_GetModuleHandleA     000000018004d000     kernel32:KERNEL32.dll
 0002:00000008       __imp_VirtualQuery         000000018004d008     kernel32:KERNEL32.dll
 0002:00000010       __imp_VirtualProtect       000000018004d010     kernel32:KERNEL32.dll
 0002:00000018       __imp_GetSystemInfo        000000018004d018     kernel32:KERNEL32.dll
 0002:00000020       __imp_CreateFileW          000000018004d020     kernel32:KERNEL32.dll
 0002:00000028       __imp_SetFilePointerEx     000000018004d028     kernel32:KERNEL32.dll
 0002:00000030       __imp_HeapSize             000000018004d030     kernel32:KERNEL32.dll
 0002:00000038       __imp_GetConsoleMode       000000018004d038     kernel32:KERNEL32.dll
 0002:00000040       __imp_GetConsoleCP         000000018004d040     kernel32:KERNEL32.dll
 0002:00000048       __imp_FlushFileBuffers     000000018004d048     kernel32:KERNEL32.dll
 0002:00000050       __imp_SetStdHandle         000000018004d050     kernel32:KERNEL32.dll
 0002:00000058       __imp_FreeEnvironmentStringsW 000000018004d058     kernel32:KERNEL32.dll
 0002:00000060       __imp_GetEnvironmentStringsW 000000018004d060     kernel32:KERNEL32.dll
 0002:00000068       __imp_GetCommandLineW      000000018004d068     kernel32:KERNEL32.dll
 0002:00000070       __imp_GetCommandLineA      000000018004d070     kernel32:KERNEL32.dll
 0002:00000078       __imp_GetOEMCP             000000018004d078     kernel32:KERNEL32.dll
 0002:00000080       __imp_IsValidCodePage      000000018004d080     kernel32:KERNEL32.dll
 0002:00000088       __imp_FindNextFileA        000000018004d088     kernel32:KERNEL32.dll
 0002:00000090       __imp_FindFirstFileExA     000000018004d090     kernel32:KERNEL32.dll
 0002:00000098       __imp_FindClose            000000018004d098     kernel32:KERNEL32.dll
 0002:000000a0       __imp_GetProcessHeap       000000018004d0a0     kernel32:KERNEL32.dll
 0002:000000a8       __imp_CreateThread         000000018004d0a8     kernel32:KERNEL32.dll
 0002:000000b0       __imp_OutputDebugStringW   000000018004d0b0     kernel32:KERNEL32.dll
 0002:000000b8       __imp_WriteFile            000000018004d0b8     kernel32:KERNEL32.dll
 0002:000000c0       __imp_GetACP               000000018004d0c0     kernel32:KERNEL32.dll
 0002:000000c8       __imp_ExitProcess          000000018004d0c8     kernel32:KERNEL32.dll
 0002:000000d0       __imp_HeapFree             000000018004d0d0     kernel32:KERNEL32.dll
 0002:000000d8       __imp_HeapReAlloc          000000018004d0d8     kernel32:KERNEL32.dll
 0002:000000e0       __imp_HeapAlloc            000000018004d0e0     kernel32:KERNEL32.dll
 0002:000000e8       __imp_WriteConsoleW        000000018004d0e8     kernel32:KERNEL32.dll
 0002:000000f0       __imp_GetModuleHandleExW   000000018004d0f0     kernel32:KERNEL32.dll
 0002:000000f8       __imp_GetModuleFileNameW   000000018004d0f8     kernel32:KERNEL32.dll
 0002:00000100       __imp_GetModuleFileNameA   000000018004d100     kernel32:KERNEL32.dll
 0002:00000108       __imp_GetFileType          000000018004d108     kernel32:KERNEL32.dll
 0002:00000110       __imp_GetStdHandle         000000018004d110     kernel32:KERNEL32.dll
 0002:00000118       __imp_InterlockedFlushSList 000000018004d118     kernel32:KERNEL32.dll
 0002:00000120       __imp_LoadLibraryExW       000000018004d120     kernel32:KERNEL32.dll
 0002:00000128       __imp_FreeLibrary          000000018004d128     kernel32:KERNEL32.dll
 0002:00000130       __imp_GetLastError         000000018004d130     kernel32:KERNEL32.dll
 0002:00000138       __imp_RtlUnwindEx          000000018004d138     kernel32:KERNEL32.dll
 0002:00000140       __imp_RaiseException       000000018004d140     kernel32:KERNEL32.dll
 0002:00000148       __imp_RtlPcToFileHeader    000000018004d148     kernel32:KERNEL32.dll
 0002:00000150       __imp_InitializeSListHead  000000018004d150     kernel32:KERNEL32.dll
 0002:00000158       __imp_GetCurrentThreadId   000000018004d158     kernel32:KERNEL32.dll
 0002:00000160       __imp_GetCurrentProcessId  000000018004d160     kernel32:KERNEL32.dll
 0002:00000168       __imp_QueryPerformanceCounter 000000018004d168     kernel32:KERNEL32.dll
 0002:00000170       __imp_GetStartupInfoW      000000018004d170     kernel32:KERNEL32.dll
 0002:00000178       __imp_IsDebuggerPresent    000000018004d178     kernel32:KERNEL32.dll
 0002:00000180       __imp_IsProcessorFeaturePresent 000000018004d180     kernel32:KERNEL32.dll
 0002:00000188       __imp_TerminateProcess     000000018004d188     kernel32:KERNEL32.dll
 0002:00000190       __imp_GetCurrentProcess    000000018004d190     kernel32:KERNEL32.dll
 0002:00000198       __imp_SetUnhandledExceptionFilter 000000018004d198     kernel32:KERNEL32.dll
 0002:000001a0       __imp_UnhandledExceptionFilter 000000018004d1a0     kernel32:KERNEL32.dll
 0002:000001a8       __imp_RtlVirtualUnwind     000000018004d1a8     kernel32:KERNEL32.dll
 0002:000001b0       __imp_RtlLookupFunctionEntry 000000018004d1b0     kernel32:KERNEL32.dll
 0002:000001b8       __imp_RtlCaptureContext    000000018004d1b8     kernel32:KERNEL32.dll
 0002:000001c0       __imp_WaitForSingleObjectEx 000000018004d1c0     kernel32:KERNEL32.dll
 0002:000001c8       __imp_CloseHandle          000000018004d1c8     kernel32:KERNEL32.dll
 0002:000001d0       __imp_GetCPInfo            000000018004d1d0     kernel32:KERNEL32.dll
 0002:000001d8       __imp_GetStringTypeW       000000018004d1d8     kernel32:KERNEL32.dll
 0002:000001e0       __imp_LCMapStringW         000000018004d1e0     kernel32:KERNEL32.dll
 0002:000001e8       __imp_GetProcAddress       000000018004d1e8     kernel32:KERNEL32.dll
 0002:000001f0       __imp_GetModuleHandleW     000000018004d1f0     kernel32:KERNEL32.dll
 0002:000001f8       __imp_GetSystemTimeAsFileTime 000000018004d1f8     kernel32:KERNEL32.dll
 0002:00000200       __imp_TlsFree              000000018004d200     kernel32:KERNEL32.dll
 0002:00000208       __imp_TlsSetValue          000000018004d208     kernel32:KERNEL32.dll
 0002:00000210       __imp_TlsGetValue          000000018004d210     kernel32:KERNEL32.dll
 0002:00000218       __imp_TlsAlloc             000000018004d218     kernel32:KERNEL32.dll
 0002:00000220       __imp_CreateEventW         000000018004d220     kernel32:KERNEL32.dll
 0002:00000228       __imp_InitializeCriticalSectionAndSpinCount 000000018004d228     kernel32:KERNEL32.dll
 0002:00000230       __imp_SetLastError         000000018004d230     kernel32:KERNEL32.dll
 0002:00000238       __imp_MultiByteToWideChar  000000018004d238     kernel32:KERNEL32.dll
 0002:00000240       __imp_DecodePointer        000000018004d240     kernel32:KERNEL32.dll
 0002:00000248       __imp_EncodePointer        000000018004d248     kernel32:KERNEL32.dll
 0002:00000250       __imp_DeleteCriticalSection 000000018004d250     kernel32:KERNEL32.dll
 0002:00000258       __imp_LeaveCriticalSection 000000018004d258     kernel32:KERNEL32.dll
 0002:00000260       __imp_EnterCriticalSection 000000018004d260     kernel32:KERNEL32.dll
 0002:00000268       __imp_WideCharToMultiByte  000000018004d268     kernel32:KERNEL32.dll
 0002:00000270       __imp_LoadLibraryExA       000000018004d270     kernel32:KERNEL32.dll
 0002:00000278       \177KERNEL32_NULL_THUNK_DATA 000000018004d278     kernel32:KERNEL32.dll
 0002:00000280       __imp_??0StereoSGBM@cv@@QEAA@XZ 000000018004d280     opencv_calib3d2413:opencv_calib3d2413.dll
 0002:00000288       __imp_??0StereoBM@cv@@QEAA@HHH@Z 000000018004d288     opencv_calib3d2413:opencv_calib3d2413.dll
 0002:00000290       __imp_??RStereoBM@cv@@QEAAXAEBV_InputArray@1@0AEBV_OutputArray@1@H@Z 000000018004d290     opencv_calib3d2413:opencv_calib3d2413.dll
 0002:00000298       __imp_?drawChessboardCorners@cv@@YAXAEBV_OutputArray@1@V?$Size_@H@1@AEBV_InputArray@1@_N@Z 000000018004d298     opencv_calib3d2413:opencv_calib3d2413.dll
 0002:000002a0       __imp_?calibrateCamera@cv@@YANAEBV_InputArray@1@0V?$Size_@H@1@AEBV_OutputArray@1@222HVTermCriteria@1@@Z 000000018004d2a0     opencv_calib3d2413:opencv_calib3d2413.dll
 0002:000002a8       __imp_?reprojectImageTo3D@cv@@YAXAEBV_InputArray@1@AEBV_OutputArray@1@0_NH@Z 000000018004d2a8     opencv_calib3d2413:opencv_calib3d2413.dll
 0002:000002b0       __imp_?stereoRectify@cv@@YAXAEBV_InputArray@1@000V?$Size_@H@1@00AEBV_OutputArray@1@2222HN1PEAV?$Rect_@H@1@3@Z 000000018004d2b0     opencv_calib3d2413:opencv_calib3d2413.dll
 0002:000002b8       __imp_?stereoCalibrate@cv@@YANAEBV_InputArray@1@00AEBV_OutputArray@1@111V?$Size_@H@1@1111VTermCriteria@1@H@Z 000000018004d2b8     opencv_calib3d2413:opencv_calib3d2413.dll
 0002:000002c0       __imp_?findChessboardCorners@cv@@YA_NAEBV_InputArray@1@V?$Size_@H@1@AEBV_OutputArray@1@H@Z 000000018004d2c0     opencv_calib3d2413:opencv_calib3d2413.dll
 0002:000002c8       __imp_?solvePnP@cv@@YA_NAEBV_InputArray@1@000AEBV_OutputArray@1@1_NH@Z 000000018004d2c8     opencv_calib3d2413:opencv_calib3d2413.dll
 0002:000002d0       __imp_?computeCorrespondEpilines@cv@@YAXAEBV_InputArray@1@H0AEBV_OutputArray@1@@Z 000000018004d2d0     opencv_calib3d2413:opencv_calib3d2413.dll
 0002:000002d8       __imp_?getOptimalNewCameraMatrix@cv@@YA?AVMat@1@AEBV_InputArray@1@0V?$Size_@H@1@N1PEAV?$Rect_@H@1@_N@Z 000000018004d2d8     opencv_calib3d2413:opencv_calib3d2413.dll
 0002:000002e0       __imp_??1StereoSGBM@cv@@UEAA@XZ 000000018004d2e0     opencv_calib3d2413:opencv_calib3d2413.dll
 0002:000002e8       __imp_?delete_obj@?$Ptr@UCvStereoBMState@@@cv@@QEAAXXZ 000000018004d2e8     opencv_calib3d2413:opencv_calib3d2413.dll
 0002:000002f0       __imp_??0StereoSGBM@cv@@QEAA@HHHHHHHHHH_N@Z 000000018004d2f0     opencv_calib3d2413:opencv_calib3d2413.dll
 0002:000002f8       \177opencv_calib3d2413_NULL_THUNK_DATA 000000018004d2f8     opencv_calib3d2413:opencv_calib3d2413.dll
 0002:00000300       __imp_?subspaceProject@cv@@YA?AVMat@1@AEBV_InputArray@1@00@Z 000000018004d300     opencv_contrib2413:opencv_contrib2413.dll
 0002:00000308       __imp_?subspaceReconstruct@cv@@YA?AVMat@1@AEBV_InputArray@1@00@Z 000000018004d308     opencv_contrib2413:opencv_contrib2413.dll
 0002:00000310       __imp_?createLBPHFaceRecognizer@cv@@YA?AV?$Ptr@VFaceRecognizer@cv@@@1@HHHHN@Z 000000018004d310     opencv_contrib2413:opencv_contrib2413.dll
 0002:00000318       __imp_?createEigenFaceRecognizer@cv@@YA?AV?$Ptr@VFaceRecognizer@cv@@@1@HN@Z 000000018004d318     opencv_contrib2413:opencv_contrib2413.dll
 0002:00000320       __imp_?update@FaceRecognizer@cv@@QEAAXAEBV_InputArray@2@0@Z 000000018004d320     opencv_contrib2413:opencv_contrib2413.dll
 0002:00000328       __imp_?createFisherFaceRecognizer@cv@@YA?AV?$Ptr@VFaceRecognizer@cv@@@1@HN@Z 000000018004d328     opencv_contrib2413:opencv_contrib2413.dll
 0002:00000330       \177opencv_contrib2413_NULL_THUNK_DATA 000000018004d330     opencv_contrib2413:opencv_contrib2413.dll
 0002:00000338       __imp_??0Mat@cv@@QEAA@PEBUCvMat@@_N@Z 000000018004d338     opencv_core2413:opencv_core2413.dll
 0002:00000340       __imp_cvCreateMat          000000018004d340     opencv_core2413:opencv_core2413.dll
 0002:00000348       __imp_?countNonZero@cv@@YAHAEBV_InputArray@1@@Z 000000018004d348     opencv_core2413:opencv_core2413.dll
 0002:00000350       __imp_?meanStdDev@cv@@YAXAEBV_InputArray@1@AEBV_OutputArray@1@10@Z 000000018004d350     opencv_core2413:opencv_core2413.dll
 0002:00000358       __imp_?seek@MatConstIterator@cv@@QEAAX_J_N@Z 000000018004d358     opencv_core2413:opencv_core2413.dll
 0002:00000360       __imp_?seek@MatConstIterator@cv@@QEAAXPEBH_N@Z 000000018004d360     opencv_core2413:opencv_core2413.dll
 0002:00000368       __imp_?_interlockedExchangeAdd@cv@@YAHPEAHH@Z 000000018004d368     opencv_core2413:opencv_core2413.dll
 0002:00000370       __imp_?adjustROI@Mat@cv@@QEAAAEAV12@HHHH@Z 000000018004d370     opencv_core2413:opencv_core2413.dll
 0002:00000378       __imp_?locateROI@Mat@cv@@QEBAXAEAV?$Size_@H@2@AEAV?$Point_@H@2@@Z 000000018004d378     opencv_core2413:opencv_core2413.dll
 0002:00000380       __imp_?push_back@Mat@cv@@QEAAXAEBV12@@Z 000000018004d380     opencv_core2413:opencv_core2413.dll
 0002:00000388       __imp_?copySize@Mat@cv@@QEAAXAEBV12@@Z 000000018004d388     opencv_core2413:opencv_core2413.dll
 0002:00000390       __imp_??0_OutputArray@cv@@QEAA@AEAV?$vector@VMat@cv@@V?$allocator@VMat@cv@@@std@@@std@@@Z 000000018004d390     opencv_core2413:opencv_core2413.dll
 0002:00000398       __imp_?deallocate@Mat@cv@@QEAAXXZ 000000018004d398     opencv_core2413:opencv_core2413.dll
 0002:000003a0       __imp_?create@Mat@cv@@QEAAXHPEBHH@Z 000000018004d3a0     opencv_core2413:opencv_core2413.dll
 0002:000003a8       __imp_?eye@Mat@cv@@SA?AVMatExpr@2@HHH@Z 000000018004d3a8     opencv_core2413:opencv_core2413.dll
 0002:000003b0       __imp_?ones@Mat@cv@@SA?AVMatExpr@2@HHH@Z 000000018004d3b0     opencv_core2413:opencv_core2413.dll
 0002:000003b8       __imp_?zeros@Mat@cv@@SA?AVMatExpr@2@HHH@Z 000000018004d3b8     opencv_core2413:opencv_core2413.dll
 0002:000003c0       __imp_?zeros@Mat@cv@@SA?AVMatExpr@2@V?$Size_@H@2@H@Z 000000018004d3c0     opencv_core2413:opencv_core2413.dll
 0002:000003c8       __imp_?reshape@Mat@cv@@QEBA?AV12@HH@Z 000000018004d3c8     opencv_core2413:opencv_core2413.dll
 0002:000003d0       __imp_?setTo@Mat@cv@@QEAAAEAV12@AEBV_InputArray@2@0@Z 000000018004d3d0     opencv_core2413:opencv_core2413.dll
 0002:000003d8       __imp_?convertTo@Mat@cv@@QEBAXAEBV_OutputArray@2@HNN@Z 000000018004d3d8     opencv_core2413:opencv_core2413.dll
 0002:000003e0       __imp_?copyTo@Mat@cv@@QEBAXAEBV_OutputArray@2@@Z 000000018004d3e0     opencv_core2413:opencv_core2413.dll
 0002:000003e8       __imp_?copyTo@Mat@cv@@QEBAXAEBV_OutputArray@2@AEBV_InputArray@2@@Z 000000018004d3e8     opencv_core2413:opencv_core2413.dll
 0002:000003f0       __imp_??0Mat@cv@@QEAA@AEBV01@AEBV?$Rect_@H@1@@Z 000000018004d3f0     opencv_core2413:opencv_core2413.dll
 0002:000003f8       __imp_??Scv@@YA?AVMatExpr@0@AEBVMat@0@@Z 000000018004d3f8     opencv_core2413:opencv_core2413.dll
 0002:00000400       __imp_?noArray@cv@@YAAEBV_OutputArray@1@XZ 000000018004d400     opencv_core2413:opencv_core2413.dll
 0002:00000408       __imp_?bitwise_xor@cv@@YAXAEBV_InputArray@1@0AEBV_OutputArray@1@0@Z 000000018004d408     opencv_core2413:opencv_core2413.dll
 0002:00000410       __imp_?mean@cv@@YA?AV?$Scalar_@N@1@AEBV_InputArray@1@0@Z 000000018004d410     opencv_core2413:opencv_core2413.dll
 0002:00000418       __imp_??Hcv@@YA?AVMatExpr@0@AEBVMat@0@AEBV?$Scalar_@N@0@@Z 000000018004d418     opencv_core2413:opencv_core2413.dll
 0002:00000420       __imp_?clear@_OutputArray@cv@@UEBAXXZ 000000018004d420     opencv_core2413:opencv_core2413.dll
 0002:00000428       __imp_?release@_OutputArray@cv@@UEBAXXZ 000000018004d428     opencv_core2413:opencv_core2413.dll
 0002:00000430       __imp_?create@_OutputArray@cv@@UEBAXV?$Size_@H@2@HH_NH@Z 000000018004d430     opencv_core2413:opencv_core2413.dll
 0002:00000438       __imp_?create@_OutputArray@cv@@UEBAXHHHH_NH@Z 000000018004d438     opencv_core2413:opencv_core2413.dll
 0002:00000440       __imp_?create@_OutputArray@cv@@UEBAXHPEBHHH_NH@Z 000000018004d440     opencv_core2413:opencv_core2413.dll
 0002:00000448       __imp_?getMatRef@_OutputArray@cv@@UEBAAEAVMat@2@H@Z 000000018004d448     opencv_core2413:opencv_core2413.dll
 0002:00000450       __imp_?needed@_OutputArray@cv@@UEBA_NXZ 000000018004d450     opencv_core2413:opencv_core2413.dll
 0002:00000458       __imp_?fixedType@_OutputArray@cv@@UEBA_NXZ 000000018004d458     opencv_core2413:opencv_core2413.dll
 0002:00000460       __imp_?fixedSize@_OutputArray@cv@@UEBA_NXZ 000000018004d460     opencv_core2413:opencv_core2413.dll
 0002:00000468       __imp_??0_OutputArray@cv@@QEAA@AEAVMat@1@@Z 000000018004d468     opencv_core2413:opencv_core2413.dll
 0002:00000470       __imp_?addWeighted@cv@@YAXAEBV_InputArray@1@N0NNAEBV_OutputArray@1@H@Z 000000018004d470     opencv_core2413:opencv_core2413.dll
 0002:00000478       __imp_?norm@cv@@YANAEBV_InputArray@1@H0@Z 000000018004d478     opencv_core2413:opencv_core2413.dll
 0002:00000480       __imp_?norm@cv@@YANAEBV_InputArray@1@0H0@Z 000000018004d480     opencv_core2413:opencv_core2413.dll
 0002:00000488       __imp_?putText@cv@@YAXAEAVMat@1@AEBV?$basic_string@DU?$char_traits@D@std@@V?$allocator@D@2@@std@@V?$Point_@H@1@HNV?$Scalar_@N@1@HH_N@Z 000000018004d488     opencv_core2413:opencv_core2413.dll
 0002:00000490       __imp_?flip@cv@@YAXAEBV_InputArray@1@AEBV_OutputArray@1@H@Z 000000018004d490     opencv_core2413:opencv_core2413.dll
 0002:00000498       __imp_?fillPoly@cv@@YAXAEAVMat@1@PEAPEBV?$Point_@H@1@PEBHHAEBV?$Scalar_@N@1@HHV31@@Z 000000018004d498     opencv_core2413:opencv_core2413.dll
 0002:000004a0       __imp_?subtract@cv@@YAXAEBV_InputArray@1@0AEBV_OutputArray@1@0H@Z 000000018004d4a0     opencv_core2413:opencv_core2413.dll
 0002:000004a8       __imp_?bitwise_not@cv@@YAXAEBV_InputArray@1@AEBV_OutputArray@1@0@Z 000000018004d4a8     opencv_core2413:opencv_core2413.dll
 0002:000004b0       __imp_?merge@cv@@YAXAEBV?$vector@VMat@cv@@V?$allocator@VMat@cv@@@std@@@std@@AEBV_OutputArray@1@@Z 000000018004d4b0     opencv_core2413:opencv_core2413.dll
 0002:000004b8       __imp_??0_InputArray@cv@@QEAA@AEBV?$vector@VMat@cv@@V?$allocator@VMat@cv@@@std@@@std@@@Z 000000018004d4b8     opencv_core2413:opencv_core2413.dll
 0002:000004c0       __imp_?getMat@Algorithm@cv@@QEBA?AVMat@2@AEBV?$basic_string@DU?$char_traits@D@std@@V?$allocator@D@2@@std@@@Z 000000018004d4c0     opencv_core2413:opencv_core2413.dll
 0002:000004c8       __imp_?boundingRect@RotatedRect@cv@@QEBA?AV?$Rect_@H@2@XZ 000000018004d4c8     opencv_core2413:opencv_core2413.dll
 0002:000004d0       __imp_?points@RotatedRect@cv@@QEBAXQEAV?$Point_@M@2@@Z 000000018004d4d0     opencv_core2413:opencv_core2413.dll
 0002:000004d8       __imp_?split@cv@@YAXAEBVMat@1@AEAV?$vector@VMat@cv@@V?$allocator@VMat@cv@@@std@@@std@@@Z 000000018004d4d8     opencv_core2413:opencv_core2413.dll
 0002:000004e0       __imp_?ellipse@cv@@YAXAEAVMat@1@V?$Point_@H@1@V?$Size_@H@1@NNNAEBV?$Scalar_@N@1@HHH@Z 000000018004d4e0     opencv_core2413:opencv_core2413.dll
 0002:000004e8       __imp_?inRange@cv@@YAXAEBV_InputArray@1@00AEBV_OutputArray@1@@Z 000000018004d4e8     opencv_core2413:opencv_core2413.dll
 0002:000004f0       __imp_??0_InputArray@cv@@QEAA@AEBVMat@1@@Z 000000018004d4f0     opencv_core2413:opencv_core2413.dll
 0002:000004f8       __imp_?getMat@_InputArray@cv@@UEBA?AVMat@2@H@Z 000000018004d4f8     opencv_core2413:opencv_core2413.dll
 0002:00000500       __imp_?getMatVector@_InputArray@cv@@UEBAXAEAV?$vector@VMat@cv@@V?$allocator@VMat@cv@@@std@@@std@@@Z 000000018004d500     opencv_core2413:opencv_core2413.dll
 0002:00000508       __imp_?getGlBuffer@_InputArray@cv@@UEBA?AVGlBuffer@2@XZ 000000018004d508     opencv_core2413:opencv_core2413.dll
 0002:00000510       __imp_?getGlTexture@_InputArray@cv@@UEBA?AVGlTexture@2@XZ 000000018004d510     opencv_core2413:opencv_core2413.dll
 0002:00000518       __imp_?getGpuMat@_InputArray@cv@@UEBA?AVGpuMat@gpu@2@XZ 000000018004d518     opencv_core2413:opencv_core2413.dll
 0002:00000520       __imp_?kind@_InputArray@cv@@UEBAHXZ 000000018004d520     opencv_core2413:opencv_core2413.dll
 0002:00000528       __imp_?size@_InputArray@cv@@UEBA?AV?$Size_@H@2@H@Z 000000018004d528     opencv_core2413:opencv_core2413.dll
 0002:00000530       __imp_?total@_InputArray@cv@@UEBA_KH@Z 000000018004d530     opencv_core2413:opencv_core2413.dll
 0002:00000538       __imp_?type@_InputArray@cv@@UEBAHH@Z 000000018004d538     opencv_core2413:opencv_core2413.dll
 0002:00000540       __imp_?depth@_InputArray@cv@@UEBAHH@Z 000000018004d540     opencv_core2413:opencv_core2413.dll
 0002:00000548       __imp_?channels@_InputArray@cv@@UEBAHH@Z 000000018004d548     opencv_core2413:opencv_core2413.dll
 0002:00000550       __imp_?empty@_InputArray@cv@@UEBA_NXZ 000000018004d550     opencv_core2413:opencv_core2413.dll
 0002:00000558       __imp_?minMaxLoc@cv@@YAXAEBV_InputArray@1@PEAN1PEAV?$Point_@H@1@20@Z 000000018004d558     opencv_core2413:opencv_core2413.dll
 0002:00000560       __imp_?bitwise_and@cv@@YAXAEBV_InputArray@1@0AEBV_OutputArray@1@0@Z 000000018004d560     opencv_core2413:opencv_core2413.dll
 0002:00000568       __imp_?transpose@cv@@YAXAEBV_InputArray@1@AEBV_OutputArray@1@@Z 000000018004d568     opencv_core2413:opencv_core2413.dll
 0002:00000570       __imp_?absdiff@cv@@YAXAEBV_InputArray@1@0AEBV_OutputArray@1@@Z 000000018004d570     opencv_core2413:opencv_core2413.dll
 0002:00000578       __imp_?sortIdx@cv@@YAXAEBV_InputArray@1@AEBV_OutputArray@1@H@Z 000000018004d578     opencv_core2413:opencv_core2413.dll
 0002:00000580       __imp_?fastFree@cv@@YAXPEAX@Z 000000018004d580     opencv_core2413:opencv_core2413.dll
 0002:00000588       __imp_?line@cv@@YAXAEAVMat@1@V?$Point_@H@1@1AEBV?$Scalar_@N@1@HHH@Z 000000018004d588     opencv_core2413:opencv_core2413.dll
 0002:00000590       __imp_?normalize@cv@@YAXAEBV_InputArray@1@AEBV_OutputArray@1@NNHH0@Z 000000018004d590     opencv_core2413:opencv_core2413.dll
 0002:00000598       __imp_?rectangle@cv@@YAXAEAVMat@1@V?$Rect_@H@1@AEBV?$Scalar_@N@1@HHH@Z 000000018004d598     opencv_core2413:opencv_core2413.dll
 0002:000005a0       __imp_?rectangle@cv@@YAXAEAVMat@1@V?$Point_@H@1@1AEBV?$Scalar_@N@1@HHH@Z 000000018004d5a0     opencv_core2413:opencv_core2413.dll
 0002:000005a8       \177opencv_core2413_NULL_THUNK_DATA 000000018004d5a8     opencv_core2413:opencv_core2413.dll
 0002:000005b0       __imp_?create@FeatureDetector@cv@@SA?AV?$Ptr@VFeatureDetector@cv@@@2@AEBV?$basic_string@DU?$char_traits@D@std@@V?$allocator@D@2@@std@@@Z 000000018004d5b0     opencv_features2d2413:opencv_features2d2413.dll
 0002:000005b8       __imp_?detect@FeatureDetector@cv@@QEBAXAEBVMat@2@AEAV?$vector@VKeyPoint@cv@@V?$allocator@VKeyPoint@cv@@@std@@@std@@0@Z 000000018004d5b8     opencv_features2d2413:opencv_features2d2413.dll
 0002:000005c0       __imp_?create@DescriptorMatcher@cv@@SA?AV?$Ptr@VDescriptorMatcher@cv@@@2@AEBV?$basic_string@DU?$char_traits@D@std@@V?$allocator@D@2@@std@@@Z 000000018004d5c0     opencv_features2d2413:opencv_features2d2413.dll
 0002:000005c8       __imp_?match@DescriptorMatcher@cv@@QEBAXAEBVMat@2@0AEAV?$vector@UDMatch@cv@@V?$allocator@UDMatch@cv@@@std@@@std@@0@Z 000000018004d5c8     opencv_features2d2413:opencv_features2d2413.dll
 0002:000005d0       __imp_?create@DescriptorExtractor@cv@@SA?AV?$Ptr@VDescriptorExtractor@cv@@@2@AEBV?$basic_string@DU?$char_traits@D@std@@V?$allocator@D@2@@std@@@Z 000000018004d5d0     opencv_features2d2413:opencv_features2d2413.dll
 0002:000005d8       __imp_?compute@DescriptorExtractor@cv@@QEBAXAEBVMat@2@AEAV?$vector@VKeyPoint@cv@@V?$allocator@VKeyPoint@cv@@@std@@@std@@AEAV32@@Z 000000018004d5d8     opencv_features2d2413:opencv_features2d2413.dll
 0002:000005e0       \177opencv_features2d2413_NULL_THUNK_DATA 000000018004d5e0     opencv_features2d2413:opencv_features2d2413.dll
 0002:000005e8       __imp_?imencode@cv@@YA_NAEBV?$basic_string@DU?$char_traits@D@std@@V?$allocator@D@2@@std@@AEBV_InputArray@1@AEAV?$vector@EV?$allocator@E@std@@@3@AEBV?$vector@HV?$allocator@H@std@@@3@@Z 000000018004d5e8     opencv_highgui2413:opencv_highgui2413.dll
 0002:000005f0       __imp_?imwrite@cv@@YA_NAEBV?$basic_string@DU?$char_traits@D@std@@V?$allocator@D@2@@std@@AEBV_InputArray@1@AEBV?$vector@HV?$allocator@H@std@@@3@@Z 000000018004d5f0     opencv_highgui2413:opencv_highgui2413.dll
 0002:000005f8       __imp_?imdecode@cv@@YA?AVMat@1@AEBV_InputArray@1@H@Z 000000018004d5f8     opencv_highgui2413:opencv_highgui2413.dll
 0002:00000600       __imp_??1VideoCapture@cv@@UEAA@XZ 000000018004d600     opencv_highgui2413:opencv_highgui2413.dll
 0002:00000608       __imp_??0VideoCapture@cv@@QEAA@XZ 000000018004d608     opencv_highgui2413:opencv_highgui2413.dll
 0002:00000610       __imp_?imshow@cv@@YAXAEBV?$basic_string@DU?$char_traits@D@std@@V?$allocator@D@2@@std@@AEBV_InputArray@1@@Z 000000018004d610     opencv_highgui2413:opencv_highgui2413.dll
 0002:00000618       __imp_?namedWindow@cv@@YAXAEBV?$basic_string@DU?$char_traits@D@std@@V?$allocator@D@2@@std@@H@Z 000000018004d618     opencv_highgui2413:opencv_highgui2413.dll
 0002:00000620       __imp_?destroyWindow@cv@@YAXAEBV?$basic_string@DU?$char_traits@D@std@@V?$allocator@D@2@@std@@@Z 000000018004d620     opencv_highgui2413:opencv_highgui2413.dll
 0002:00000628       __imp_?waitKey@cv@@YAHH@Z  000000018004d628     opencv_highgui2413:opencv_highgui2413.dll
 0002:00000630       __imp_?imread@cv@@YA?AVMat@1@AEBV?$basic_string@DU?$char_traits@D@std@@V?$allocator@D@2@@std@@H@Z 000000018004d630     opencv_highgui2413:opencv_highgui2413.dll
 0002:00000638       \177opencv_highgui2413_NULL_THUNK_DATA 000000018004d638     opencv_highgui2413:opencv_highgui2413.dll
 0002:00000640       __imp_?convexHull@cv@@YAXAEBV_InputArray@1@AEBV_OutputArray@1@_N2@Z 000000018004d640     opencv_imgproc2413:opencv_imgproc2413.dll
 0002:00000648       __imp_?fitEllipse@cv@@YA?AVRotatedRect@1@AEBV_InputArray@1@@Z 000000018004d648     opencv_imgproc2413:opencv_imgproc2413.dll
 0002:00000650       __imp_?isContourConvex@cv@@YA_NAEBV_InputArray@1@@Z 000000018004d650     opencv_imgproc2413:opencv_imgproc2413.dll
 0002:00000658       __imp_?arcLength@cv@@YANAEBV_InputArray@1@_N@Z 000000018004d658     opencv_imgproc2413:opencv_imgproc2413.dll
 0002:00000660       __imp_?approxPolyDP@cv@@YAXAEBV_InputArray@1@AEBV_OutputArray@1@N_N@Z 000000018004d660     opencv_imgproc2413:opencv_imgproc2413.dll
 0002:00000668       __imp_?contourArea@cv@@YANAEBV_InputArray@1@_N@Z 000000018004d668     opencv_imgproc2413:opencv_imgproc2413.dll
 0002:00000670       __imp_?resize@cv@@YAXAEBV_InputArray@1@AEBV_OutputArray@1@V?$Size_@H@1@NNH@Z 000000018004d670     opencv_imgproc2413:opencv_imgproc2413.dll
 0002:00000678       __imp_?medianBlur@cv@@YAXAEBV_InputArray@1@AEBV_OutputArray@1@H@Z 000000018004d678     opencv_imgproc2413:opencv_imgproc2413.dll
 0002:00000680       __imp_?findContours@cv@@YAXAEBV_OutputArray@1@00HHV?$Point_@H@1@@Z 000000018004d680     opencv_imgproc2413:opencv_imgproc2413.dll
 0002:00000688       __imp_?Sobel@cv@@YAXAEBV_InputArray@1@AEBV_OutputArray@1@HHHHNNH@Z 000000018004d688     opencv_imgproc2413:opencv_imgproc2413.dll
 0002:00000690       __imp_?copyMakeBorder@cv@@YAXAEBV_InputArray@1@AEBV_OutputArray@1@HHHHHAEBV?$Scalar_@N@1@@Z 000000018004d690     opencv_imgproc2413:opencv_imgproc2413.dll
 0002:00000698       __imp_?boundingRect@cv@@YA?AV?$Rect_@H@1@AEBV_InputArray@1@@Z 000000018004d698     opencv_imgproc2413:opencv_imgproc2413.dll
 0002:000006a0       __imp_?bilateralFilter@cv@@YAXAEBV_InputArray@1@AEBV_OutputArray@1@HNNH@Z 000000018004d6a0     opencv_imgproc2413:opencv_imgproc2413.dll
 0002:000006a8       __imp_?HoughLinesP@cv@@YAXAEBV_InputArray@1@AEBV_OutputArray@1@NNHNN@Z 000000018004d6a8     opencv_imgproc2413:opencv_imgproc2413.dll
 0002:000006b0       __imp_?Canny@cv@@YAXAEBV_InputArray@1@AEBV_OutputArray@1@NNH_N@Z 000000018004d6b0     opencv_imgproc2413:opencv_imgproc2413.dll
 0002:000006b8       __imp_?pyrDown@cv@@YAXAEBV_InputArray@1@AEBV_OutputArray@1@AEBV?$Size_@H@1@H@Z 000000018004d6b8     opencv_imgproc2413:opencv_imgproc2413.dll
 0002:000006c0       __imp_?getRotationMatrix2D@cv@@YA?AVMat@1@V?$Point_@M@1@NN@Z 000000018004d6c0     opencv_imgproc2413:opencv_imgproc2413.dll
 0002:000006c8       __imp_?goodFeaturesToTrack@cv@@YAXAEBV_InputArray@1@AEBV_OutputArray@1@HNN0H_NN@Z 000000018004d6c8     opencv_imgproc2413:opencv_imgproc2413.dll
 0002:000006d0       __imp_?floodFill@cv@@YAHAEBV_OutputArray@1@V?$Point_@H@1@V?$Scalar_@N@1@PEAV?$Rect_@H@1@22H@Z 000000018004d6d0     opencv_imgproc2413:opencv_imgproc2413.dll
 0002:000006d8       __imp_?HoughCircles@cv@@YAXAEBV_InputArray@1@AEBV_OutputArray@1@HNNNNHH@Z 000000018004d6d8     opencv_imgproc2413:opencv_imgproc2413.dll
 0002:000006e0       __imp_?adaptiveThreshold@cv@@YAXAEBV_InputArray@1@AEBV_OutputArray@1@NHHHN@Z 000000018004d6e0     opencv_imgproc2413:opencv_imgproc2413.dll
 0002:000006e8       __imp_?warpPerspective@cv@@YAXAEBV_InputArray@1@AEBV_OutputArray@1@0V?$Size_@H@1@HHAEBV?$Scalar_@N@1@@Z 000000018004d6e8     opencv_imgproc2413:opencv_imgproc2413.dll
 0002:000006f0       __imp_?cvtColor@cv@@YAXAEBV_InputArray@1@AEBV_OutputArray@1@HH@Z 000000018004d6f0     opencv_imgproc2413:opencv_imgproc2413.dll
 0002:000006f8       __imp_?moments@cv@@YA?AVMoments@1@AEBV_InputArray@1@_N@Z 000000018004d6f8     opencv_imgproc2413:opencv_imgproc2413.dll
 0002:00000700       __imp_?matchTemplate@cv@@YAXAEBV_InputArray@1@0AEBV_OutputArray@1@H@Z 000000018004d700     opencv_imgproc2413:opencv_imgproc2413.dll
 0002:00000708       __imp_?threshold@cv@@YANAEBV_InputArray@1@AEBV_OutputArray@1@NNH@Z 000000018004d708     opencv_imgproc2413:opencv_imgproc2413.dll
 0002:00000710       __imp_?equalizeHist@cv@@YAXAEBV_InputArray@1@AEBV_OutputArray@1@@Z 000000018004d710     opencv_imgproc2413:opencv_imgproc2413.dll
 0002:00000718       __imp_?getPerspectiveTransform@cv@@YA?AVMat@1@AEBV_InputArray@1@0@Z 000000018004d718     opencv_imgproc2413:opencv_imgproc2413.dll
 0002:00000720       __imp_?erode@cv@@YAXAEBV_InputArray@1@AEBV_OutputArray@1@0V?$Point_@H@1@HHAEBV?$Scalar_@N@1@@Z 000000018004d720     opencv_imgproc2413:opencv_imgproc2413.dll
 0002:00000728       __imp_?dilate@cv@@YAXAEBV_InputArray@1@AEBV_OutputArray@1@0V?$Point_@H@1@HHAEBV?$Scalar_@N@1@@Z 000000018004d728     opencv_imgproc2413:opencv_imgproc2413.dll
 0002:00000730       __imp_?warpAffine@cv@@YAXAEBV_InputArray@1@AEBV_OutputArray@1@0V?$Size_@H@1@HHAEBV?$Scalar_@N@1@@Z 000000018004d730     opencv_imgproc2413:opencv_imgproc2413.dll
 0002:00000738       __imp_?drawContours@cv@@YAXAEBV_OutputArray@1@AEBV_InputArray@1@HAEBV?$Scalar_@N@1@HH1HV?$Point_@H@1@@Z 000000018004d738     opencv_imgproc2413:opencv_imgproc2413.dll
 0002:00000740       __imp_?minAreaRect@cv@@YA?AVRotatedRect@1@AEBV_InputArray@1@@Z 000000018004d740     opencv_imgproc2413:opencv_imgproc2413.dll
 0002:00000748       __imp_?calcBackProject@cv@@YAXPEBVMat@1@HPEBHAEBV_InputArray@1@AEBV_OutputArray@1@PEAPEBMN_N@Z 000000018004d748     opencv_imgproc2413:opencv_imgproc2413.dll
 0002:00000750       __imp_?calcHist@cv@@YAXPEBVMat@1@HPEBHAEBV_InputArray@1@AEBV_OutputArray@1@H1PEAPEBM_N5@Z 000000018004d750     opencv_imgproc2413:opencv_imgproc2413.dll
 0002:00000758       __imp_?undistort@cv@@YAXAEBV_InputArray@1@AEBV_OutputArray@1@000@Z 000000018004d758     opencv_imgproc2413:opencv_imgproc2413.dll
 0002:00000760       __imp_?initUndistortRectifyMap@cv@@YAXAEBV_InputArray@1@000V?$Size_@H@1@HAEBV_OutputArray@1@2@Z 000000018004d760     opencv_imgproc2413:opencv_imgproc2413.dll
 0002:00000768       __imp_?getStructuringElement@cv@@YA?AVMat@1@HV?$Size_@H@1@V?$Point_@H@1@@Z 000000018004d768     opencv_imgproc2413:opencv_imgproc2413.dll
 0002:00000770       __imp_?remap@cv@@YAXAEBV_InputArray@1@AEBV_OutputArray@1@00HHAEBV?$Scalar_@N@1@@Z 000000018004d770     opencv_imgproc2413:opencv_imgproc2413.dll
 0002:00000778       __imp_?pyrUp@cv@@YAXAEBV_InputArray@1@AEBV_OutputArray@1@AEBV?$Size_@H@1@H@Z 000000018004d778     opencv_imgproc2413:opencv_imgproc2413.dll
 0002:00000780       __imp_?GaussianBlur@cv@@YAXAEBV_InputArray@1@AEBV_OutputArray@1@V?$Size_@H@1@NNH@Z 000000018004d780     opencv_imgproc2413:opencv_imgproc2413.dll
 0002:00000788       \177opencv_imgproc2413_NULL_THUNK_DATA 000000018004d788     opencv_imgproc2413:opencv_imgproc2413.dll
 0002:00000790       __imp_cvCreateStereoGCState 000000018004d790     opencv_legacy2413:opencv_legacy2413.dll
 0002:00000798       __imp_cvFindStereoCorrespondenceGC 000000018004d798     opencv_legacy2413:opencv_legacy2413.dll
 0002:000007a0       \177opencv_legacy2413_NULL_THUNK_DATA 000000018004d7a0     opencv_legacy2413:opencv_legacy2413.dll
 0002:000007a8       __imp_?load@CascadeClassifier@cv@@QEAA_NAEBV?$basic_string@DU?$char_traits@D@std@@V?$allocator@D@2@@std@@@Z 000000018004d7a8     opencv_objdetect2413:opencv_objdetect2413.dll
 0002:000007b0       __imp_??1CascadeClassifier@cv@@UEAA@XZ 000000018004d7b0     opencv_objdetect2413:opencv_objdetect2413.dll
 0002:000007b8       __imp_??0CascadeClassifier@cv@@QEAA@XZ 000000018004d7b8     opencv_objdetect2413:opencv_objdetect2413.dll
 0002:000007c0       \177opencv_objdetect2413_NULL_THUNK_DATA 000000018004d7c0     opencv_objdetect2413:opencv_objdetect2413.dll
 0002:000007c8       __imp_?CamShift@cv@@YA?AVRotatedRect@1@AEBV_InputArray@1@AEAV?$Rect_@H@1@VTermCriteria@1@@Z 000000018004d7c8     opencv_video2413:opencv_video2413.dll
 0002:000007d0       \177opencv_video2413_NULL_THUNK_DATA 000000018004d7d0     opencv_video2413:opencv_video2413.dll
 0002:000007d8       __guard_check_icall_fptr   000000018004d7d8     LIBCMT:guard_support.obj
 0002:000007e0       __guard_dispatch_icall_fptr 000000018004d7e0     LIBCMT:guard_support.obj
 0002:000007e8       __xc_a                     000000018004d7e8     LIBCMT:initializers.obj
 0002:00000880       _register_opencv_          000000018004d880     init.obj
 0002:00000888       __xc_z                     000000018004d888     LIBCMT:initializers.obj
 0002:00000890       __xi_a                     000000018004d890     LIBCMT:initializers.obj
 0002:000008a8       __acrt_stdio_initializer   000000018004d8a8     libucrt:stdio_initializer.obj
 0002:000008b0       __acrt_tran_fma3_initializer 000000018004d8b0     libucrt:fma3_initializer.obj
 0002:000008b8       __acrt_timeset_initializer 000000018004d8b8     libucrt:timeset_initializer.obj
 0002:000008c0       __acrt_multibyte_initializer 000000018004d8c0     libucrt:multibyte_initializer.obj
 0002:000008c8       __xi_z                     000000018004d8c8     LIBCMT:initializers.obj
 0002:000008d0       __xl_a                     000000018004d8d0     LIBCMT:tlssup.obj
 0002:000008d8       __xl_z                     000000018004d8d8     LIBCMT:tlssup.obj
 0002:000008e0       __xp_a                     000000018004d8e0     LIBCMT:initializers.obj
 0002:000008e8       __acrt_locale_terminator   000000018004d8e8     libucrt:locale_initializer.obj
 0002:000008f0       __dcrt_console_output_terminator 000000018004d8f0     libucrt:console_output_initializer.obj
 0002:000008f8       __acrt_stdio_terminator    000000018004d8f8     libucrt:stdio_initializer.obj
 0002:00000900       __xp_z                     000000018004d900     LIBCMT:initializers.obj
 0002:00000908       __xt_a                     000000018004d908     LIBCMT:initializers.obj
 0002:00000910       __xt_z                     000000018004d910     LIBCMT:initializers.obj
 0002:00000920       __sz_node_exe              000000018004d920     node:node.exe
 0002:00000980       ??_C@_01NBENCBCI@?$CK?$AA@ 000000018004d980     libcpmt:locale0.obj
 0002:00000990       ??_7exception@std@@6B@     000000018004d990     libcpmt:xthrow.obj
 0002:000009a0       ??_C@_0BC@EOODALEL@Unknown?5exception?$AA@ 000000018004d9a0     libcpmt:xthrow.obj
 0002:000009c0       ??_7bad_alloc@std@@6B@     000000018004d9c0     libcpmt:xthrow.obj
 0002:000009d0       ??_C@_0P@GHFPNOJB@bad?5allocation?$AA@ 000000018004d9d0     libcpmt:xthrow.obj
 0002:000009e8       ??_7logic_error@std@@6B@   000000018004d9e8     libcpmt:xthrow.obj
 0002:00000a00       ??_7length_error@std@@6B@  000000018004da00     libcpmt:xthrow.obj
 0002:00000a18       ??_7out_of_range@std@@6B@  000000018004da18     libcpmt:xthrow.obj
 0002:00001160       ??_C@_0BN@LKKBCCDB@address?5family?5not?5supported?$AA@ 000000018004e160     libcpmt:syserror.obj
 0002:00001180       ??_C@_0P@LDMLAFHI@address?5in?5use?$AA@ 000000018004e180     libcpmt:syserror.obj
 0002:00001190       ??_C@_0BG@DHPCNBJB@address?5not?5available?$AA@ 000000018004e190     libcpmt:syserror.obj
 0002:000011a8       ??_C@_0BC@DFIBIBIL@already?5connected?$AA@ 000000018004e1a8     libcpmt:syserror.obj
 0002:000011c0       ??_C@_0BH@CAKOHOMI@argument?5list?5too?5long?$AA@ 000000018004e1c0     libcpmt:syserror.obj
 0002:000011d8       ??_C@_0BH@CGIMPKIM@argument?5out?5of?5domain?$AA@ 000000018004e1d8     libcpmt:syserror.obj
 0002:000011f0       ??_C@_0M@KGHGGJGL@bad?5address?$AA@ 000000018004e1f0     libcpmt:syserror.obj
 0002:00001200       ??_C@_0BE@MPJPGCEO@bad?5file?5descriptor?$AA@ 000000018004e200     libcpmt:syserror.obj
 0002:00001218       ??_C@_0M@PMMIEFCP@bad?5message?$AA@ 000000018004e218     libcpmt:syserror.obj
 0002:00001228       ??_C@_0M@KPHOFDBE@broken?5pipe?$AA@ 000000018004e228     libcpmt:syserror.obj
 0002:00001238       ??_C@_0BD@MGNDDEGM@connection?5aborted?$AA@ 000000018004e238     libcpmt:syserror.obj
 0002:00001250       ??_C@_0BP@KAIHPOGN@connection?5already?5in?5progress?$AA@ 000000018004e250     libcpmt:syserror.obj
 0002:00001270       ??_C@_0BD@PJLIIJEL@connection?5refused?$AA@ 000000018004e270     libcpmt:syserror.obj
 0002:00001288       ??_C@_0BB@IECNJNOI@connection?5reset?$AA@ 000000018004e288     libcpmt:syserror.obj
 0002:000012a0       ??_C@_0BC@PPHBOELF@cross?5device?5link?$AA@ 000000018004e2a0     libcpmt:syserror.obj
 0002:000012b8       ??_C@_0BN@KDMIFEIP@destination?5address?5required?$AA@ 000000018004e2b8     libcpmt:syserror.obj
 0002:000012d8       ??_C@_0BI@NGCEHDD@device?5or?5resource?5busy?$AA@ 000000018004e2d8     libcpmt:syserror.obj
 0002:000012f0       ??_C@_0BE@JIDOCPHM@directory?5not?5empty?$AA@ 000000018004e2f0     libcpmt:syserror.obj
 0002:00001308       ??_C@_0BI@BNCLIGPB@executable?5format?5error?$AA@ 000000018004e308     libcpmt:syserror.obj
 0002:00001320       ??_C@_0M@MIDIAGJP@file?5exists?$AA@ 000000018004e320     libcpmt:syserror.obj
 0002:00001330       ??_C@_0P@DNAJLBJK@file?5too?5large?$AA@ 000000018004e330     libcpmt:syserror.obj
 0002:00001340       ??_C@_0BC@EJHOMAAK@filename?5too?5long?$AA@ 000000018004e340     libcpmt:syserror.obj
 0002:00001358       ??_C@_0BH@KEFGLDAF@function?5not?5supported?$AA@ 000000018004e358     libcpmt:syserror.obj
 0002:00001370       ??_C@_0BB@DHFDFGDM@host?5unreachable?$AA@ 000000018004e370     libcpmt:syserror.obj
 0002:00001388       ??_C@_0BD@JPHBMONG@identifier?5removed?$AA@ 000000018004e388     libcpmt:syserror.obj
 0002:000013a0       ??_C@_0BG@CDNPAGJK@illegal?5byte?5sequence?$AA@ 000000018004e3a0     libcpmt:syserror.obj
 0002:000013b8       ??_C@_0CD@BNPLBMNA@inappropriate?5io?5control?5operati@ 000000018004e3b8     libcpmt:syserror.obj
 0002:000013e0       ??_C@_0M@EGEKIIMP@interrupted?$AA@ 000000018004e3e0     libcpmt:syserror.obj
 0002:000013f0       ??_C@_0BB@FCMFBGOM@invalid?5argument?$AA@ 000000018004e3f0     libcpmt:syserror.obj
 0002:00001408       ??_C@_0N@OHAFKDEK@invalid?5seek?$AA@ 000000018004e408     libcpmt:syserror.obj
 0002:00001418       ??_C@_08GLNPIFBN@io?5error?$AA@ 000000018004e418     libcpmt:syserror.obj
 0002:00001428       ??_C@_0P@FLLDBIDK@is?5a?5directory?$AA@ 000000018004e428     libcpmt:syserror.obj
 0002:00001438       ??_C@_0N@IFLPBIOP@message?5size?$AA@ 000000018004e438     libcpmt:syserror.obj
 0002:00001448       ??_C@_0N@KIIEAAIO@network?5down?$AA@ 000000018004e448     libcpmt:syserror.obj
 0002:00001458       ??_C@_0O@FNPDBHEE@network?5reset?$AA@ 000000018004e458     libcpmt:syserror.obj
 0002:00001468       ??_C@_0BE@IFNCKGE@network?5unreachable?$AA@ 000000018004e468     libcpmt:syserror.obj
 0002:00001480       ??_C@_0BA@PFFCAOFK@no?5buffer?5space?$AA@ 000000018004e480     libcpmt:syserror.obj
 0002:00001490       ??_C@_0BB@IEPBLJHK@no?5child?5process?$AA@ 000000018004e490     libcpmt:syserror.obj
 0002:000014a8       ??_C@_07PLECNNKG@no?5link?$AA@ 000000018004e4a8     libcpmt:syserror.obj
 0002:000014b0       ??_C@_0BC@NJECKMKE@no?5lock?5available?$AA@ 000000018004e4b0     libcpmt:syserror.obj
 0002:000014c8       ??_C@_0BF@PBGGPKKE@no?5message?5available?$AA@ 000000018004e4c8     libcpmt:syserror.obj
 0002:000014e0       ??_C@_0L@EDOLMPAK@no?5message?$AA@ 000000018004e4e0     libcpmt:syserror.obj
 0002:000014f0       ??_C@_0BD@EAMBFIDF@no?5protocol?5option?$AA@ 000000018004e4f0     libcpmt:syserror.obj
 0002:00001508       ??_C@_0BD@IJDJKDEA@no?5space?5on?5device?$AA@ 000000018004e508     libcpmt:syserror.obj
 0002:00001520       ??_C@_0BE@MKFDAFMP@no?5stream?5resources?$AA@ 000000018004e520     libcpmt:syserror.obj
 0002:00001538       ??_C@_0BK@IMCPHCBI@no?5such?5device?5or?5address?$AA@ 000000018004e538     libcpmt:syserror.obj
 0002:00001558       ??_C@_0P@FDINDDOK@no?5such?5device?$AA@ 000000018004e558     libcpmt:syserror.obj
 0002:00001568       ??_C@_0BK@NDOCBPGE@no?5such?5file?5or?5directory?$AA@ 000000018004e568     libcpmt:syserror.obj
 0002:00001588       ??_C@_0BA@ENLPPKBN@no?5such?5process?$AA@ 000000018004e588     libcpmt:syserror.obj
 0002:00001598       ??_C@_0BA@DOCPFFJG@not?5a?5directory?$AA@ 000000018004e598     libcpmt:syserror.obj
 0002:000015a8       ??_C@_0N@POEIPGGF@not?5a?5socket?$AA@ 000000018004e5a8     libcpmt:syserror.obj
 0002:000015b8       ??_C@_0N@LGAPMMPI@not?5a?5stream?$AA@ 000000018004e5b8     libcpmt:syserror.obj
 0002:000015c8       ??_C@_0O@GLMIBBEG@not?5connected?$AA@ 000000018004e5c8     libcpmt:syserror.obj
 0002:000015d8       ??_C@_0BC@ENOOLCNF@not?5enough?5memory?$AA@ 000000018004e5d8     libcpmt:syserror.obj
 0002:000015f0       ??_C@_0O@NHEDABJP@not?5supported?$AA@ 000000018004e5f0     libcpmt:syserror.obj
 0002:00001600       ??_C@_0BD@MOLBPMEA@operation?5canceled?$AA@ 000000018004e600     libcpmt:syserror.obj
 0002:00001618       ??_C@_0BG@KDKHOPCO@operation?5in?5progress?$AA@ 000000018004e618     libcpmt:syserror.obj
 0002:00001630       ??_C@_0BI@OHIEJAAB@operation?5not?5permitted?$AA@ 000000018004e630     libcpmt:syserror.obj
 0002:00001648       ??_C@_0BI@LNEGIFLN@operation?5not?5supported?$AA@ 000000018004e648     libcpmt:syserror.obj
 0002:00001660       ??_C@_0BG@OEMDKMEE@operation?5would?5block?$AA@ 000000018004e660     libcpmt:syserror.obj
 0002:00001678       ??_C@_0L@BLPOFLNJ@owner?5dead?$AA@ 000000018004e678     libcpmt:syserror.obj
 0002:00001688       ??_C@_0BC@CIJDGCDI@permission?5denied?$AA@ 000000018004e688     libcpmt:syserror.obj
 0002:000016a0       ??_C@_0P@FNPOCJBE@protocol?5error?$AA@ 000000018004e6a0     libcpmt:syserror.obj
 0002:000016b0       ??_C@_0BH@JPPPLHJB@protocol?5not?5supported?$AA@ 000000018004e6b0     libcpmt:syserror.obj
 0002:000016c8       ??_C@_0BG@EICBIHDP@read?5only?5file?5system?$AA@ 000000018004e6c8     libcpmt:syserror.obj
 0002:000016e0       ??_C@_0BO@BJBOMOEJ@resource?5deadlock?5would?5occur?$AA@ 000000018004e6e0     libcpmt:syserror.obj
 0002:00001700       ??_C@_0BP@LKNGHENJ@resource?5unavailable?5try?5again?$AA@ 000000018004e700     libcpmt:syserror.obj
 0002:00001720       ??_C@_0BE@GOIPJJHG@result?5out?5of?5range?$AA@ 000000018004e720     libcpmt:syserror.obj
 0002:00001738       ??_C@_0BG@MPLKFPAE@state?5not?5recoverable?$AA@ 000000018004e738     libcpmt:syserror.obj
 0002:00001750       ??_C@_0P@DIIFGFCG@stream?5timeout?$AA@ 000000018004e750     libcpmt:syserror.obj
 0002:00001760       ??_C@_0P@IPFDMIFL@text?5file?5busy?$AA@ 000000018004e760     libcpmt:syserror.obj
 0002:00001770       ??_C@_09KJPPMAOI@timed?5out?$AA@ 000000018004e770     libcpmt:syserror.obj
 0002:00001780       ??_C@_0BO@HACHBEKI@too?5many?5files?5open?5in?5system?$AA@ 000000018004e780     libcpmt:syserror.obj
 0002:000017a0       ??_C@_0BE@GHAFMPAH@too?5many?5files?5open?$AA@ 000000018004e7a0     libcpmt:syserror.obj
 0002:000017b8       ??_C@_0P@HCOMKFCC@too?5many?5links?$AA@ 000000018004e7b8     libcpmt:syserror.obj
 0002:000017c8       ??_C@_0BO@EFGOJEF@too?5many?5symbolic?5link?5levels?$AA@ 000000018004e7c8     libcpmt:syserror.obj
 0002:000017e8       ??_C@_0BA@KGKGOOJA@value?5too?5large?$AA@ 000000018004e7e8     libcpmt:syserror.obj
 0002:000017f8       ??_C@_0BE@MIEJDDNH@wrong?5protocol?5type?$AA@ 000000018004e7f8     libcpmt:syserror.obj
 0002:00001838       ??_C@_1BK@MGMFAEKH@?$AAk?$AAe?$AAr?$AAn?$AAe?$AAl?$AA3?$AA2?$AA?4?$AAd?$AAl?$AAl?$AA?$AA@ 000000018004e838     libcpmt:winapisupp.obj
 0002:00001858       ??_C@_08KNHFBNJ@FlsAlloc?$AA@ 000000018004e858     libcpmt:winapisupp.obj
 0002:00001868       ??_C@_07PEJMOBNF@FlsFree?$AA@ 000000018004e868     libcpmt:winapisupp.obj
 0002:00001870       ??_C@_0M@GDNOONDI@FlsGetValue?$AA@ 000000018004e870     libcpmt:winapisupp.obj
 0002:00001880       ??_C@_0M@JCPCPOEF@FlsSetValue?$AA@ 000000018004e880     libcpmt:winapisupp.obj
 0002:00001890       ??_C@_0BM@HCFOFFN@InitializeCriticalSectionEx?$AA@ 000000018004e890     libcpmt:winapisupp.obj
 0002:000018b0       ??_C@_0BE@GPLMMCMH@InitOnceExecuteOnce?$AA@ 000000018004e8b0     libcpmt:winapisupp.obj
 0002:000018c8       ??_C@_0P@DLHPPCNH@CreateEventExW?$AA@ 000000018004e8c8     libcpmt:winapisupp.obj
 0002:000018d8       ??_C@_0BB@MEFPJLHN@CreateSemaphoreW?$AA@ 000000018004e8d8     libcpmt:winapisupp.obj
 0002:000018f0       ??_C@_0BD@KIEEOEEH@CreateSemaphoreExW?$AA@ 000000018004e8f0     libcpmt:winapisupp.obj
 0002:00001908       ??_C@_0BG@OGFAJCKC@CreateThreadpoolTimer?$AA@ 000000018004e908     libcpmt:winapisupp.obj
 0002:00001920       ??_C@_0BD@LPLEMMDI@SetThreadpoolTimer?$AA@ 000000018004e920     libcpmt:winapisupp.obj
 0002:00001938       ??_C@_0CA@FMNJENH@WaitForThreadpoolTimerCallbacks?$AA@ 000000018004e938     libcpmt:winapisupp.obj
 0002:00001958       ??_C@_0BF@DCFCCNOC@CloseThreadpoolTimer?$AA@ 000000018004e958     libcpmt:winapisupp.obj
 0002:00001970       ??_C@_0BF@FLABGKKM@CreateThreadpoolWait?$AA@ 000000018004e970     libcpmt:winapisupp.obj
 0002:00001988       ??_C@_0BC@MGCOHNA@SetThreadpoolWait?$AA@ 000000018004e988     libcpmt:winapisupp.obj
 0002:000019a0       ??_C@_0BE@OCIOMIMP@CloseThreadpoolWait?$AA@ 000000018004e9a0     libcpmt:winapisupp.obj
 0002:000019b8       ??_C@_0BJ@LKGHFHBO@FlushProcessWriteBuffers?$AA@ 000000018004e9b8     libcpmt:winapisupp.obj
 0002:000019d8       ??_C@_0BP@KALKKPMO@FreeLibraryWhenCallbackReturns?$AA@ 000000018004e9d8     libcpmt:winapisupp.obj
 0002:000019f8       ??_C@_0BK@DFNBACLA@GetCurrentProcessorNumber?$AA@ 000000018004e9f8     libcpmt:winapisupp.obj
 0002:00001a18       ??_C@_0BE@FKKLLFLM@CreateSymbolicLinkW?$AA@ 000000018004ea18     libcpmt:winapisupp.obj
 0002:00001a30       ??_C@_0BE@JOGNEJCI@GetCurrentPackageId?$AA@ 000000018004ea30     libcpmt:winapisupp.obj
 0002:00001a48       ??_C@_0P@CDHHOHKP@GetTickCount64?$AA@ 000000018004ea48     libcpmt:winapisupp.obj
 0002:00001a58       ??_C@_0BN@NEEHBBPO@GetFileInformationByHandleEx?$AA@ 000000018004ea58     libcpmt:winapisupp.obj
 0002:00001a78       ??_C@_0BL@KBBHGKCM@SetFileInformationByHandle?$AA@ 000000018004ea78     libcpmt:winapisupp.obj
 0002:00001a98       ??_C@_0BP@FPNJPEJC@GetSystemTimePreciseAsFileTime?$AA@ 000000018004ea98     libcpmt:winapisupp.obj
 0002:00001ab8       ??_C@_0BM@HLJJNPAH@InitializeConditionVariable?$AA@ 000000018004eab8     libcpmt:winapisupp.obj
 0002:00001ad8       ??_C@_0BG@BFNILBLN@WakeConditionVariable?$AA@ 000000018004ead8     libcpmt:winapisupp.obj
 0002:00001af0       ??_C@_0BJ@PGPPEPCC@WakeAllConditionVariable?$AA@ 000000018004eaf0     libcpmt:winapisupp.obj
 0002:00001b10       ??_C@_0BJ@JEBJOJFJ@SleepConditionVariableCS?$AA@ 000000018004eb10     libcpmt:winapisupp.obj
 0002:00001b30       ??_C@_0BC@MMLHEBPB@InitializeSRWLock?$AA@ 000000018004eb30     libcpmt:winapisupp.obj
 0002:00001b48       ??_C@_0BI@OMNLIJDB@AcquireSRWLockExclusive?$AA@ 000000018004eb48     libcpmt:winapisupp.obj
 0002:00001b60       ??_C@_0BL@OGHFEMNA@TryAcquireSRWLockExclusive?$AA@ 000000018004eb60     libcpmt:winapisupp.obj
 0002:00001b80       ??_C@_0BI@HMIEPCNJ@ReleaseSRWLockExclusive?$AA@ 000000018004eb80     libcpmt:winapisupp.obj
 0002:00001b98       ??_C@_0BK@LGACAGIC@SleepConditionVariableSRW?$AA@ 000000018004eb98     libcpmt:winapisupp.obj
 0002:00001bb8       ??_C@_0BF@GGPHFPJA@CreateThreadpoolWork?$AA@ 000000018004ebb8     libcpmt:winapisupp.obj
 0002:00001bd0       ??_C@_0BF@NHDAIMMO@SubmitThreadpoolWork?$AA@ 000000018004ebd0     libcpmt:winapisupp.obj
 0002:00001be8       ??_C@_0BE@NPHIPNPD@CloseThreadpoolWork?$AA@ 000000018004ebe8     libcpmt:winapisupp.obj
 0002:00001c00       ??_C@_0BA@IHGNDAEB@CompareStringEx?$AA@ 000000018004ec00     libcpmt:winapisupp.obj
 0002:00001c10       ??_C@_0BA@ONOKGCMP@GetLocaleInfoEx?$AA@ 000000018004ec10     libcpmt:winapisupp.obj
 0002:00001c20       ??_C@_0O@KKBNKAPF@LCMapStringEx?$AA@ 000000018004ec20     libcpmt:winapisupp.obj
 0002:00001c30       ??_C@_11LOCGONAA@?$AA?$AA@ 000000018004ec30     libcpmt:wlocale.obj
 0002:00001c34       ??_C@_01JOAMLHOP@?9?$AA@   000000018004ec34     libcpmt:wlocale.obj
 0002:00001cd8       ??_C@_1M@JKFFICHJ@?$AAe?$AAs?$AA?9?$AAv?$AAe?$AA?$AA@ 000000018004ecd8     libcpmt:winapinls.obj
 0002:00001ce8       ??_C@_1M@PNMLOJDF@?$AAe?$AAt?$AA?9?$AAe?$AAe?$AA?$AA@ 000000018004ece8     libcpmt:winapinls.obj
 0002:00001cf8       ??_C@_1M@GHHLIKEI@?$AAe?$AAu?$AA?9?$AAe?$AAs?$AA?$AA@ 000000018004ecf8     libcpmt:winapinls.obj
 0002:00001d08       ??_C@_1M@PBNONODE@?$AAf?$AAa?$AA?9?$AAi?$AAr?$AA?$AA@ 000000018004ed08     libcpmt:winapinls.obj
 0002:00001d18       ??_C@_1M@JEEHPMIL@?$AAf?$AAi?$AA?9?$AAf?$AAi?$AA?$AA@ 000000018004ed18     libcpmt:winapinls.obj
 0002:00001d28       ??_C@_1M@LMDCNDBA@?$AAf?$AAo?$AA?9?$AAf?$AAo?$AA?$AA@ 000000018004ed28     libcpmt:winapinls.obj
 0002:00001d38       ??_C@_1M@JKEOHLDK@?$AAf?$AAr?$AA?9?$AAb?$AAe?$AA?$AA@ 000000018004ed38     libcpmt:winapinls.obj
 0002:00001d48       ??_C@_1M@NOHADPMI@?$AAf?$AAr?$AA?9?$AAc?$AAa?$AA?$AA@ 000000018004ed48     libcpmt:winapinls.obj
 0002:00001d58       ??_C@_1M@KDHIHAEC@?$AAf?$AAr?$AA?9?$AAc?$AAh?$AA?$AA@ 000000018004ed58     libcpmt:winapinls.obj
 0002:00001d68       ??_C@_1M@MMBBFGAK@?$AAf?$AAr?$AA?9?$AAf?$AAr?$AA?$AA@ 000000018004ed68     libcpmt:winapinls.obj
 0002:00001d78       ??_C@_1M@PAFNENNF@?$AAf?$AAr?$AA?9?$AAl?$AAu?$AA?$AA@ 000000018004ed78     libcpmt:winapinls.obj
 0002:00001d88       ??_C@_1M@EOHDJGDD@?$AAf?$AAr?$AA?9?$AAm?$AAc?$AA?$AA@ 000000018004ed88     libcpmt:winapinls.obj
 0002:00001d98       ??_C@_1M@FAPLLOPF@?$AAg?$AAl?$AA?9?$AAe?$AAs?$AA?$AA@ 000000018004ed98     libcpmt:winapinls.obj
 0002:00001da8       ??_C@_1M@FOPBFLOO@?$AAg?$AAu?$AA?9?$AAi?$AAn?$AA?$AA@ 000000018004eda8     libcpmt:winapinls.obj
 0002:00001db8       ??_C@_1M@KBMCINPM@?$AAh?$AAe?$AA?9?$AAi?$AAl?$AA?$AA@ 000000018004edb8     libcpmt:winapinls.obj
 0002:00001dc8       ??_C@_1M@BBPHKFPJ@?$AAh?$AAi?$AA?9?$AAi?$AAn?$AA?$AA@ 000000018004edc8     libcpmt:winapinls.obj
 0002:00001dd8       ??_C@_1M@PMBNDPHD@?$AAh?$AAr?$AA?9?$AAb?$AAa?$AA?$AA@ 000000018004edd8     libcpmt:winapinls.obj
 0002:00001de8       ??_C@_1M@BPCKOEGE@?$AAh?$AAr?$AA?9?$AAh?$AAr?$AA?$AA@ 000000018004ede8     libcpmt:winapinls.obj
 0002:00001df8       ??_C@_1M@GACBMHKE@?$AAh?$AAu?$AA?9?$AAh?$AAu?$AA?$AA@ 000000018004edf8     libcpmt:winapinls.obj
 0002:00001e08       ??_C@_1M@MILPAJJC@?$AAh?$AAy?$AA?9?$AAa?$AAm?$AA?$AA@ 000000018004ee08     libcpmt:winapinls.obj
 0002:00001e18       ??_C@_1M@BABBICEC@?$AAi?$AAd?$AA?9?$AAi?$AAd?$AA?$AA@ 000000018004ee18     libcpmt:winapinls.obj
 0002:00001e28       ??_C@_1M@BIKNHHPF@?$AAi?$AAs?$AA?9?$AAi?$AAs?$AA?$AA@ 000000018004ee28     libcpmt:winapinls.obj
 0002:00001e38       ??_C@_1M@NMPCJPHE@?$AAi?$AAt?$AA?9?$AAc?$AAh?$AA?$AA@ 000000018004ee38     libcpmt:winapinls.obj
 0002:00001e48       ??_C@_1M@GHKGFEDF@?$AAi?$AAt?$AA?9?$AAi?$AAt?$AA?$AA@ 000000018004ee48     libcpmt:winapinls.obj
 0002:00001e58       ??_C@_1M@NIEJCJJA@?$AAj?$AAa?$AA?9?$AAj?$AAp?$AA?$AA@ 000000018004ee58     libcpmt:winapinls.obj
 0002:00001e68       ??_C@_1M@JILFNBIM@?$AAk?$AAa?$AA?9?$AAg?$AAe?$AA?$AA@ 000000018004ee68     libcpmt:winapinls.obj
 0002:00001e78       ??_C@_1M@PACPMGPH@?$AAk?$AAk?$AA?9?$AAk?$AAz?$AA?$AA@ 000000018004ee78     libcpmt:winapinls.obj
 0002:00001e88       ??_C@_1M@IELFGMHA@?$AAk?$AAn?$AA?9?$AAi?$AAn?$AA?$AA@ 000000018004ee88     libcpmt:winapinls.obj
 0002:00001e98       ??_C@_1M@DMHAEOGC@?$AAk?$AAo?$AA?9?$AAk?$AAr?$AA?$AA@ 000000018004ee98     libcpmt:winapinls.obj
 0002:00001ea8       ??_C@_1O@IBBJHCH@?$AAk?$AAo?$AAk?$AA?9?$AAi?$AAn?$AA?$AA@ 000000018004eea8     libcpmt:winapinls.obj
 0002:00001eb8       ??_C@_1M@HBAHBIGA@?$AAk?$AAy?$AA?9?$AAk?$AAg?$AA?$AA@ 000000018004eeb8     libcpmt:winapinls.obj
 0002:00001ec8       ??_C@_1M@KPMILCJG@?$AAl?$AAt?$AA?9?$AAl?$AAt?$AA?$AA@ 000000018004eec8     libcpmt:winapinls.obj
 0002:00001ed8       ??_C@_1M@BDEKKCA@?$AAl?$AAv?$AA?9?$AAl?$AAv?$AA?$AA@ 000000018004eed8     libcpmt:winapinls.obj
 0002:00001ee8       ??_C@_1M@ELCKCCJJ@?$AAm?$AAi?$AA?9?$AAn?$AAz?$AA?$AA@ 000000018004eee8     libcpmt:winapinls.obj
 0002:00001ef8       ??_C@_1M@CBOOLAPA@?$AAm?$AAk?$AA?9?$AAm?$AAk?$AA?$AA@ 000000018004eef8     libcpmt:winapinls.obj
 0002:00001f08       ??_C@_1M@GPHNBJKN@?$AAm?$AAl?$AA?9?$AAi?$AAn?$AA?$AA@ 000000018004ef08     libcpmt:winapinls.obj
 0002:00001f18       ??_C@_1M@PABJILIG@?$AAm?$AAn?$AA?9?$AAm?$AAn?$AA?$AA@ 000000018004ef18     libcpmt:winapinls.obj
 0002:00001f28       ??_C@_1M@FGBKKIPG@?$AAm?$AAr?$AA?9?$AAi?$AAn?$AA?$AA@ 000000018004ef28     libcpmt:winapinls.obj
 0002:00001f38       ??_C@_1M@NDBPDDAL@?$AAm?$AAs?$AA?9?$AAb?$AAn?$AA?$AA@ 000000018004ef38     libcpmt:winapinls.obj
 0002:00001f48       ??_C@_1M@OPIHOOPI@?$AAm?$AAs?$AA?9?$AAm?$AAy?$AA?$AA@ 000000018004ef48     libcpmt:winapinls.obj
 0002:00001f58       ??_C@_1M@PPDBCNFM@?$AAm?$AAt?$AA?9?$AAm?$AAt?$AA?$AA@ 000000018004ef58     libcpmt:winapinls.obj
 0002:00001f68       ??_C@_1M@KDJDKMDD@?$AAn?$AAb?$AA?9?$AAn?$AAo?$AA?$AA@ 000000018004ef68     libcpmt:winapinls.obj
 0002:00001f78       ??_C@_1M@KFCFLMJP@?$AAn?$AAl?$AA?9?$AAb?$AAe?$AA?$AA@ 000000018004ef78     libcpmt:winapinls.obj
 0002:00001f88       ??_C@_1M@KPOPDDGO@?$AAn?$AAl?$AA?9?$AAn?$AAl?$AA?$AA@ 000000018004ef88     libcpmt:winapinls.obj
 0002:00001f98       ??_C@_1M@LJKPEMLN@?$AAn?$AAn?$AA?9?$AAn?$AAo?$AA?$AA@ 000000018004ef98     libcpmt:winapinls.obj
 0002:00001fa8       ??_C@_1M@BDGHHBFL@?$AAn?$AAs?$AA?9?$AAz?$AAa?$AA?$AA@ 000000018004efa8     libcpmt:winapinls.obj
 0002:00001fb8       ??_C@_1M@IDEHOAP@?$AAp?$AAa?$AA?9?$AAi?$AAn?$AA?$AA@ 000000018004efb8     libcpmt:winapinls.obj
 0002:00001fc8       ??_C@_1M@HDBKGOGH@?$AAp?$AAl?$AA?9?$AAp?$AAl?$AA?$AA@ 000000018004efc8     libcpmt:winapinls.obj
 0002:00001fd8       ??_C@_1M@LJLLCMEH@?$AAp?$AAt?$AA?9?$AAb?$AAr?$AA?$AA@ 000000018004efd8     libcpmt:winapinls.obj
 0002:00001fe8       ??_C@_1M@NCMONAAL@?$AAp?$AAt?$AA?9?$AAp?$AAt?$AA?$AA@ 000000018004efe8     libcpmt:winapinls.obj
 0002:00001ff8       ??_C@_1O@EAKMAJDN@?$AAq?$AAu?$AAz?$AA?9?$AAb?$AAo?$AA?$AA@ 000000018004eff8     libcpmt:winapinls.obj
 0002:00002008       ??_C@_1O@BHHPIGDN@?$AAq?$AAu?$AAz?$AA?9?$AAe?$AAc?$AA?$AA@ 000000018004f008     libcpmt:winapinls.obj
 0002:00002018       ??_C@_1O@GBAPEKMJ@?$AAq?$AAu?$AAz?$AA?9?$AAp?$AAe?$AA?$AA@ 000000018004f018     libcpmt:winapinls.obj
 0002:00002028       ??_C@_1M@CLGLEFBO@?$AAr?$AAo?$AA?9?$AAr?$AAo?$AA?$AA@ 000000018004f028     libcpmt:winapinls.obj
 0002:00002038       ??_C@_1M@CEEDODME@?$AAr?$AAu?$AA?9?$AAr?$AAu?$AA?$AA@ 000000018004f038     libcpmt:winapinls.obj
 0002:00002048       ??_C@_1M@HPKKKMPP@?$AAs?$AAa?$AA?9?$AAi?$AAn?$AA?$AA@ 000000018004f048     libcpmt:winapinls.obj
 0002:00002058       ??_C@_1M@BKMAIGOJ@?$AAs?$AAe?$AA?9?$AAf?$AAi?$AA?$AA@ 000000018004f058     libcpmt:winapinls.obj
 0002:00002068       ??_C@_1M@NDPIFLFI@?$AAs?$AAe?$AA?9?$AAn?$AAo?$AA?$AA@ 000000018004f068     libcpmt:winapinls.obj
 0002:00002078       ??_C@_1M@DANKKHJ@?$AAs?$AAe?$AA?9?$AAs?$AAe?$AA?$AA@ 000000018004f078     libcpmt:winapinls.obj
 0002:00002088       ??_C@_1M@PNBLONPJ@?$AAs?$AAk?$AA?9?$AAs?$AAk?$AA?$AA@ 000000018004f088     libcpmt:winapinls.obj
 0002:00002098       ??_C@_1M@LFMODOAL@?$AAs?$AAl?$AA?9?$AAs?$AAi?$AA?$AA@ 000000018004f098     libcpmt:winapinls.obj
 0002:000020a8       ??_C@_1O@DFKOMPG@?$AAs?$AAm?$AAa?$AA?9?$AAn?$AAo?$AA?$AA@ 000000018004f0a8     libcpmt:winapinls.obj
 0002:000020b8       ??_C@_1O@NDKPBNNH@?$AAs?$AAm?$AAa?$AA?9?$AAs?$AAe?$AA?$AA@ 000000018004f0b8     libcpmt:winapinls.obj
 0002:000020c8       ??_C@_1O@PLLKBHAB@?$AAs?$AAm?$AAj?$AA?9?$AAn?$AAo?$AA?$AA@ 000000018004f0c8     libcpmt:winapinls.obj
 0002:000020d8       ??_C@_1O@CLEPOGCA@?$AAs?$AAm?$AAj?$AA?9?$AAs?$AAe?$AA?$AA@ 000000018004f0d8     libcpmt:winapinls.obj
 0002:000020e8       ??_C@_1O@DLGJGKMK@?$AAs?$AAm?$AAn?$AA?9?$AAf?$AAi?$AA?$AA@ 000000018004f0e8     libcpmt:winapinls.obj
 0002:000020f8       ??_C@_1O@OJDJGAJC@?$AAs?$AAm?$AAs?$AA?9?$AAf?$AAi?$AA?$AA@ 000000018004f0f8     libcpmt:winapinls.obj
 0002:00002108       ??_C@_1M@BOFOGHPB@?$AAs?$AAq?$AA?9?$AAa?$AAl?$AA?$AA@ 000000018004f108     libcpmt:winapinls.obj
 0002:00002118       ??_C@_1BG@LJBBIPGB@?$AAs?$AAr?$AA?9?$AAb?$AAa?$AA?9?$AAc?$AAy?$AAr?$AAl?$AA?$AA@ 000000018004f118     libcpmt:winapinls.obj
 0002:00002130       ??_C@_1BG@JLBENFOE@?$AAs?$AAr?$AA?9?$AAb?$AAa?$AA?9?$AAl?$AAa?$AAt?$AAn?$AA?$AA@ 000000018004f130     libcpmt:winapinls.obj
 0002:00002148       ??_C@_1BG@KODPNHE@?$AAs?$AAr?$AA?9?$AAs?$AAp?$AA?9?$AAc?$AAy?$AAr?$AAl?$AA?$AA@ 000000018004f148     libcpmt:winapinls.obj
 0002:00002160       ??_C@_1BG@CIOGKHPB@?$AAs?$AAr?$AA?9?$AAs?$AAp?$AA?9?$AAl?$AAa?$AAt?$AAn?$AA?$AA@ 000000018004f160     libcpmt:winapinls.obj
 0002:00002178       ??_C@_1M@NGFJLMAC@?$AAs?$AAv?$AA?9?$AAf?$AAi?$AA?$AA@ 000000018004f178     libcpmt:winapinls.obj
 0002:00002188       ??_C@_1M@MPJEJAJC@?$AAs?$AAv?$AA?9?$AAs?$AAe?$AA?$AA@ 000000018004f188     libcpmt:winapinls.obj
 0002:00002198       ??_C@_1M@MPNDHLFK@?$AAs?$AAw?$AA?9?$AAk?$AAe?$AA?$AA@ 000000018004f198     libcpmt:winapinls.obj
 0002:000021a8       ??_C@_1O@KOHBJJI@?$AAs?$AAy?$AAr?$AA?9?$AAs?$AAy?$AA?$AA@ 000000018004f1a8     libcpmt:winapinls.obj
 0002:000021b8       ??_C@_1M@LDCEFHA@?$AAt?$AAa?$AA?9?$AAi?$AAn?$AA?$AA@ 000000018004f1b8     libcpmt:winapinls.obj
 0002:000021c8       ??_C@_1M@CNJOFAK@?$AAt?$AAe?$AA?9?$AAi?$AAn?$AA?$AA@ 000000018004f1c8     libcpmt:winapinls.obj
 0002:000021d8       ??_C@_1M@GNAECACD@?$AAt?$AAh?$AA?9?$AAt?$AAh?$AA?$AA@ 000000018004f1d8     libcpmt:winapinls.obj
 0002:000021e8       ??_C@_1M@CHBIHOJO@?$AAt?$AAn?$AA?9?$AAz?$AAa?$AA?$AA@ 000000018004f1e8     libcpmt:winapinls.obj
 0002:000021f8       ??_C@_1M@GCCMIGPJ@?$AAt?$AAr?$AA?9?$AAt?$AAr?$AA?$AA@ 000000018004f1f8     libcpmt:winapinls.obj
 0002:00002208       ??_C@_1M@CELMCNBK@?$AAt?$AAt?$AA?9?$AAr?$AAu?$AA?$AA@ 000000018004f208     libcpmt:winapinls.obj
 0002:00002218       ??_C@_1M@KLMCELGA@?$AAu?$AAk?$AA?9?$AAu?$AAa?$AA?$AA@ 000000018004f218     libcpmt:winapinls.obj
 0002:00002228       ??_C@_1M@EPAJJAJF@?$AAu?$AAr?$AA?9?$AAp?$AAk?$AA?$AA@ 000000018004f228     libcpmt:winapinls.obj
 0002:00002238       ??_C@_1BG@GEGPMCDJ@?$AAu?$AAz?$AA?9?$AAu?$AAz?$AA?9?$AAc?$AAy?$AAr?$AAl?$AA?$AA@ 000000018004f238     libcpmt:winapinls.obj
 0002:00002250       ??_C@_1BG@EGGKJILM@?$AAu?$AAz?$AA?9?$AAu?$AAz?$AA?9?$AAl?$AAa?$AAt?$AAn?$AA?$AA@ 000000018004f250     libcpmt:winapinls.obj
 0002:00002268       ??_C@_1M@GFOCLFF@?$AAv?$AAi?$AA?9?$AAv?$AAn?$AA?$AA@ 000000018004f268     libcpmt:winapinls.obj
 0002:00002278       ??_C@_1M@CPAMEDFI@?$AAx?$AAh?$AA?9?$AAz?$AAa?$AA?$AA@ 000000018004f278     libcpmt:winapinls.obj
 0002:00002288       ??_C@_1O@EBKIFIGN@?$AAz?$AAh?$AA?9?$AAc?$AAh?$AAs?$AA?$AA@ 000000018004f288     libcpmt:winapinls.obj
 0002:00002298       ??_C@_1O@NMHPGANE@?$AAz?$AAh?$AA?9?$AAc?$AAh?$AAt?$AA?$AA@ 000000018004f298     libcpmt:winapinls.obj
 0002:000022a8       ??_C@_1M@LPINJOMC@?$AAz?$AAh?$AA?9?$AAc?$AAn?$AA?$AA@ 000000018004f2a8     libcpmt:winapinls.obj
 0002:000022b8       ??_C@_1M@OCJEJODD@?$AAz?$AAh?$AA?9?$AAh?$AAk?$AA?$AA@ 000000018004f2b8     libcpmt:winapinls.obj
 0002:000022c8       ??_C@_1M@DNDLJINH@?$AAz?$AAh?$AA?9?$AAm?$AAo?$AA?$AA@ 000000018004f2c8     libcpmt:winapinls.obj
 0002:000022d8       ??_C@_1M@MBFDNDND@?$AAz?$AAh?$AA?9?$AAs?$AAg?$AA?$AA@ 000000018004f2d8     libcpmt:winapinls.obj
 0002:000022e8       ??_C@_1M@IMEPLEPE@?$AAz?$AAh?$AA?9?$AAt?$AAw?$AA?$AA@ 000000018004f2e8     libcpmt:winapinls.obj
 0002:000022f8       ??_C@_1M@BBGHNHJP@?$AAz?$AAu?$AA?9?$AAz?$AAa?$AA?$AA@ 000000018004f2f8     libcpmt:winapinls.obj
 0002:00003f90       ??_C@_15EMKDOKLE@?$AAa?$AAr?$AA?$AA@ 0000000180050f90     libcpmt:winapinls.obj
 0002:00003f98       ??_C@_15KNPADPLH@?$AAb?$AAg?$AA?$AA@ 0000000180050f98     libcpmt:winapinls.obj
 0002:00003fa0       ??_C@_15EDMHLDMO@?$AAc?$AAa?$AA?$AA@ 0000000180050fa0     libcpmt:winapinls.obj
 0002:00003fa8       ??_C@_1O@BPEAJADD@?$AAz?$AAh?$AA?9?$AAC?$AAH?$AAS?$AA?$AA@ 0000000180050fa8     libcpmt:winapinls.obj
 0002:00003fb8       ??_C@_15LJNHCMNK@?$AAc?$AAs?$AA?$AA@ 0000000180050fb8     libcpmt:winapinls.obj
 0002:00003fc0       ??_C@_15FOMCIDHG@?$AAd?$AAa?$AA?$AA@ 0000000180050fc0     libcpmt:winapinls.obj
 0002:00003fc8       ??_C@_15NBKABECB@?$AAd?$AAe?$AA?$AA@ 0000000180050fc8     libcpmt:winapinls.obj
 0002:00003fd0       ??_C@_15GHPEIIAO@?$AAe?$AAl?$AA?$AA@ 0000000180050fd0     libcpmt:winapinls.obj
 0002:00003fd8       ??_C@_15MNPNEAIF@?$AAe?$AAn?$AA?$AA@ 0000000180050fd8     libcpmt:winapinls.obj
 0002:00003fe0       ??_C@_15GPIOMPMH@?$AAe?$AAs?$AA?$AA@ 0000000180050fe0     libcpmt:winapinls.obj
 0002:00003fe8       ??_C@_15NGLOAKJC@?$AAf?$AAi?$AA?$AA@ 0000000180050fe8     libcpmt:winapinls.obj
 0002:00003ff0       ??_C@_15FBKGNKAM@?$AAf?$AAr?$AA?$AA@ 0000000180050ff0     libcpmt:winapinls.obj
 0002:00003ff8       ??_C@_15KGGCNEFK@?$AAh?$AAe?$AA?$AA@ 0000000180050ff8     libcpmt:winapinls.obj
 0002:00004000       ??_C@_15PGHLIDMF@?$AAh?$AAu?$AA?$AA@ 0000000180051000     libcpmt:winapinls.obj
 0002:00004008       ??_C@_15BIEMAPLM@?$AAi?$AAs?$AA?$AA@ 0000000180051008     libcpmt:winapinls.obj
 0002:00004010       ??_C@_15IFJLDHAF@?$AAi?$AAt?$AA?$AA@ 0000000180051010     libcpmt:winapinls.obj
 0002:00004018       ??_C@_15GEMIOCAG@?$AAj?$AAa?$AA?$AA@ 0000000180051018     libcpmt:winapinls.obj
 0002:00004020       ??_C@_15EPELEGJA@?$AAk?$AAo?$AA?$AA@ 0000000180051020     libcpmt:winapinls.obj
 0002:00004028       ??_C@_15NDDHIMN@?$AAn?$AAl?$AA?$AA@ 0000000180051028     libcpmt:winapinls.obj
 0002:00004030       ??_C@_15BPIGNHCD@?$AAn?$AAo?$AA?$AA@ 0000000180051030     libcpmt:winapinls.obj
 0002:00004038       ??_C@_15DEOPBLCG@?$AAp?$AAl?$AA?$AA@ 0000000180051038     libcpmt:winapinls.obj
 0002:00004040       ??_C@_15KBECGEFG@?$AAp?$AAt?$AA?$AA@ 0000000180051040     libcpmt:winapinls.obj
 0002:00004048       ??_C@_15GLJCBFMD@?$AAr?$AAo?$AA?$AA@ 0000000180051048     libcpmt:winapinls.obj
 0002:00004050       ??_C@_15FEDGKCDI@?$AAr?$AAu?$AA?$AA@ 0000000180051050     libcpmt:winapinls.obj
 0002:00004058       ??_C@_15GLKMLLHM@?$AAh?$AAr?$AA?$AA@ 0000000180051058     libcpmt:winapinls.obj
 0002:00004060       ??_C@_15CPKMFBDB@?$AAs?$AAk?$AA?$AA@ 0000000180051060     libcpmt:winapinls.obj
 0002:00004068       ??_C@_15BAAIOGMK@?$AAs?$AAq?$AA?$AA@ 0000000180051068     libcpmt:winapinls.obj
 0002:00004070       ??_C@_15INNPNOHD@?$AAs?$AAv?$AA?$AA@ 0000000180051070     libcpmt:winapinls.obj
 0002:00004078       ??_C@_15CABMMOGH@?$AAt?$AAh?$AA?$AA@ 0000000180051078     libcpmt:winapinls.obj
 0002:00004080       ??_C@_15BPLIHJJM@?$AAt?$AAr?$AA?$AA@ 0000000180051080     libcpmt:winapinls.obj
 0002:00004088       ??_C@_15NEOEKKDJ@?$AAu?$AAr?$AA?$AA@ 0000000180051088     libcpmt:winapinls.obj
 0002:00004090       ??_C@_15NFICGAJK@?$AAi?$AAd?$AA?$AA@ 0000000180051090     libcpmt:winapinls.obj
 0002:00004098       ??_C@_15PJPFLCCM@?$AAu?$AAk?$AA?$AA@ 0000000180051098     libcpmt:winapinls.obj
 0002:000040a0       ??_C@_15HPJPHDM@?$AAb?$AAe?$AA?$AA@ 00000001800510a0     libcpmt:winapinls.obj
 0002:000040a8       ??_C@_15LCHLGJII@?$AAs?$AAl?$AA?$AA@ 00000001800510a8     libcpmt:winapinls.obj
 0002:000040b0       ??_C@_15PCFJPHHO@?$AAe?$AAt?$AA?$AA@ 00000001800510b0     libcpmt:winapinls.obj
 0002:000040b8       ??_C@_15HPFPGODN@?$AAl?$AAv?$AA?$AA@ 00000001800510b8     libcpmt:winapinls.obj
 0002:000040c0       ??_C@_15NFFGKGLG@?$AAl?$AAt?$AA?$AA@ 00000001800510c0     libcpmt:winapinls.obj
 0002:000040c8       ??_C@_15BDAKCCHN@?$AAf?$AAa?$AA?$AA@ 00000001800510c8     libcpmt:winapinls.obj
 0002:000040d0       ??_C@_15NFGIAIAJ@?$AAv?$AAi?$AA?$AA@ 00000001800510d0     libcpmt:winapinls.obj
 0002:000040d8       ??_C@_15LMKNDMHN@?$AAh?$AAy?$AA?$AA@ 00000001800510d8     libcpmt:winapinls.obj
 0002:000040e0       ??_C@_15IJBHMCFL@?$AAa?$AAz?$AA?$AA@ 00000001800510e0     libcpmt:winapinls.obj
 0002:000040e8       ??_C@_15EKOFJABL@?$AAe?$AAu?$AA?$AA@ 00000001800510e8     libcpmt:winapinls.obj
 0002:000040f0       ??_C@_15BGHADCNK@?$AAm?$AAk?$AA?$AA@ 00000001800510f0     libcpmt:winapinls.obj
 0002:000040f8       ??_C@_15JDNICKHM@?$AAa?$AAf?$AA?$AA@ 00000001800510f8     libcpmt:winapinls.obj
 0002:00004100       ??_C@_15KPJEDBKD@?$AAk?$AAa?$AA?$AA@ 0000000180051100     libcpmt:winapinls.obj
 0002:00004108       ??_C@_15PDNFFFEO@?$AAf?$AAo?$AA?$AA@ 0000000180051108     libcpmt:winapinls.obj
 0002:00004110       ??_C@_15OMLEGLOC@?$AAh?$AAi?$AA?$AA@ 0000000180051110     libcpmt:winapinls.obj
 0002:00004118       ??_C@_15IDNNENKK@?$AAm?$AAs?$AA?$AA@ 0000000180051118     libcpmt:winapinls.obj
 0002:00004120       ??_C@_15MACJNBMH@?$AAk?$AAk?$AA?$AA@ 0000000180051120     libcpmt:winapinls.obj
 0002:00004128       ??_C@_15DKDJEOND@?$AAk?$AAy?$AA?$AA@ 0000000180051128     libcpmt:winapinls.obj
 0002:00004130       ??_C@_15DFGDLJBG@?$AAs?$AAw?$AA?$AA@ 0000000180051130     libcpmt:winapinls.obj
 0002:00004138       ??_C@_15BBFAICNG@?$AAu?$AAz?$AA?$AA@ 0000000180051138     libcpmt:winapinls.obj
 0002:00004140       ??_C@_15DKNDCGEA@?$AAt?$AAt?$AA?$AA@ 0000000180051140     libcpmt:winapinls.obj
 0002:00004148       ??_C@_15MGIFMDPL@?$AAp?$AAa?$AA?$AA@ 0000000180051148     libcpmt:winapinls.obj
 0002:00004150       ??_C@_15HCNDBBA@?$AAg?$AAu?$AA?$AA@ 0000000180051150     libcpmt:winapinls.obj
 0002:00004158       ??_C@_15FNBEIBON@?$AAt?$AAa?$AA?$AA@ 0000000180051158     libcpmt:winapinls.obj
 0002:00004160       ??_C@_15NCHGBGLK@?$AAt?$AAe?$AA?$AA@ 0000000180051160     libcpmt:winapinls.obj
 0002:00004168       ??_C@_15PHPHCBPF@?$AAk?$AAn?$AA?$AA@ 0000000180051168     libcpmt:winapinls.obj
 0002:00004170       ??_C@_15DLGBCKMP@?$AAm?$AAr?$AA?$AA@ 0000000180051170     libcpmt:winapinls.obj
 0002:00004178       ??_C@_15EABBLBFF@?$AAs?$AAa?$AA?$AA@ 0000000180051178     libcpmt:winapinls.obj
 0002:00004180       ??_C@_15CBKOMCOI@?$AAm?$AAn?$AA?$AA@ 0000000180051180     libcpmt:winapinls.obj
 0002:00004188       ??_C@_15CKDMCJAF@?$AAg?$AAl?$AA?$AA@ 0000000180051188     libcpmt:winapinls.obj
 0002:00004190       ??_C@_17CNJFBPG@?$AAk?$AAo?$AAk?$AA?$AA@ 0000000180051190     libcpmt:winapinls.obj
 0002:00004198       ??_C@_17FFBJICPL@?$AAs?$AAy?$AAr?$AA?$AA@ 0000000180051198     libcpmt:winapinls.obj
 0002:000041a0       ??_C@_17KPNDCPAF@?$AAd?$AAi?$AAv?$AA?$AA@ 00000001800511a0     libcpmt:winapinls.obj
 0002:000041a8       ??_C@_1M@OKAHONE@?$AAa?$AAr?$AA?9?$AAS?$AAA?$AA?$AA@ 00000001800511a8     libcpmt:winapinls.obj
 0002:000041b8       ??_C@_1M@FFFIGIGK@?$AAb?$AAg?$AA?9?$AAB?$AAG?$AA?$AA@ 00000001800511b8     libcpmt:winapinls.obj
 0002:000041c8       ??_C@_1M@BJNKEDC@?$AAc?$AAa?$AA?9?$AAE?$AAS?$AA?$AA@ 00000001800511c8     libcpmt:winapinls.obj
 0002:000041d8       ??_C@_1M@CLNBBOPM@?$AAz?$AAh?$AA?9?$AAT?$AAW?$AA?$AA@ 00000001800511d8     libcpmt:winapinls.obj
 0002:000041e8       ??_C@_1M@IJJHFJHA@?$AAc?$AAs?$AA?9?$AAC?$AAZ?$AA?$AA@ 00000001800511e8     libcpmt:winapinls.obj
 0002:000041f8       ??_C@_1M@CLPEOBGI@?$AAd?$AAa?$AA?9?$AAD?$AAK?$AA?$AA@ 00000001800511f8     libcpmt:winapinls.obj
 0002:00004208       ??_C@_1M@MCMADGCB@?$AAd?$AAe?$AA?9?$AAD?$AAE?$AA?$AA@ 0000000180051208     libcpmt:winapinls.obj
 0002:00004218       ??_C@_1M@OOCKEMAM@?$AAe?$AAl?$AA?9?$AAG?$AAR?$AA?$AA@ 0000000180051218     libcpmt:winapinls.obj
 0002:00004228       ??_C@_1M@BMHNFIME@?$AAe?$AAn?$AA?9?$AAU?$AAS?$AA?$AA@ 0000000180051228     libcpmt:winapinls.obj
 0002:00004238       ??_C@_1M@DDNJFGID@?$AAf?$AAi?$AA?9?$AAF?$AAI?$AA?$AA@ 0000000180051238     libcpmt:winapinls.obj
 0002:00004248       ??_C@_1M@GLIPPMAC@?$AAf?$AAr?$AA?9?$AAF?$AAR?$AA?$AA@ 0000000180051248     libcpmt:winapinls.obj
 0002:00004258       ??_C@_1M@GFMCHPE@?$AAh?$AAe?$AA?9?$AAI?$AAL?$AA?$AA@ 0000000180051258     libcpmt:winapinls.obj
 0002:00004268       ??_C@_1M@MHLPGNKM@?$AAh?$AAu?$AA?9?$AAH?$AAU?$AA?$AA@ 0000000180051268     libcpmt:winapinls.obj
 0002:00004278       ??_C@_1M@LPDDNNPN@?$AAi?$AAs?$AA?9?$AAI?$AAS?$AA?$AA@ 0000000180051278     libcpmt:winapinls.obj
 0002:00004288       ??_C@_1M@MADIPODN@?$AAi?$AAt?$AA?9?$AAI?$AAT?$AA?$AA@ 0000000180051288     libcpmt:winapinls.obj
 0002:00004298       ??_C@_1M@HPNHIDJI@?$AAj?$AAa?$AA?9?$AAJ?$AAP?$AA?$AA@ 0000000180051298     libcpmt:winapinls.obj
 0002:000042a8       ??_C@_1M@JLOOOEGK@?$AAk?$AAo?$AA?9?$AAK?$AAR?$AA?$AA@ 00000001800512a8     libcpmt:winapinls.obj
 0002:000042b8       ??_C@_1M@IHBJJGG@?$AAn?$AAl?$AA?9?$AAN?$AAL?$AA?$AA@ 00000001800512b8     libcpmt:winapinls.obj
 0002:000042c8       ??_C@_1M@EANAGDL@?$AAn?$AAb?$AA?9?$AAN?$AAO?$AA?$AA@ 00000001800512c8     libcpmt:winapinls.obj
 0002:000042d8       ??_C@_1M@NEIEMEGP@?$AAp?$AAl?$AA?9?$AAP?$AAL?$AA?$AA@ 00000001800512d8     libcpmt:winapinls.obj
 0002:000042e8       ??_C@_1M@BOCFIGEP@?$AAp?$AAt?$AA?9?$AAB?$AAR?$AA?$AA@ 00000001800512e8     libcpmt:winapinls.obj
 0002:000042f8       ??_C@_1M@IMPFOPBG@?$AAr?$AAo?$AA?9?$AAR?$AAO?$AA?$AA@ 00000001800512f8     libcpmt:winapinls.obj
 0002:00004308       ??_C@_1M@IDNNEJMM@?$AAr?$AAu?$AA?9?$AAR?$AAU?$AA?$AA@ 0000000180051308     libcpmt:winapinls.obj
 0002:00004318       ??_C@_1M@LILEEOGM@?$AAh?$AAr?$AA?9?$AAH?$AAR?$AA?$AA@ 0000000180051318     libcpmt:winapinls.obj
 0002:00004328       ??_C@_1M@FKIFEHPB@?$AAs?$AAk?$AA?9?$AAS?$AAK?$AA?$AA@ 0000000180051328     libcpmt:winapinls.obj
 0002:00004338       ??_C@_1M@LJMAMNPJ@?$AAs?$AAq?$AA?9?$AAA?$AAL?$AA?$AA@ 0000000180051338     libcpmt:winapinls.obj
 0002:00004348       ??_C@_1M@GIAKDKJK@?$AAs?$AAv?$AA?9?$AAS?$AAE?$AA?$AA@ 0000000180051348     libcpmt:winapinls.obj
 0002:00004358       ??_C@_1M@MKJKIKCL@?$AAt?$AAh?$AA?9?$AAT?$AAH?$AA?$AA@ 0000000180051358     libcpmt:winapinls.obj
 0002:00004368       ??_C@_1M@MFLCCMPB@?$AAt?$AAr?$AA?9?$AAT?$AAR?$AA?$AA@ 0000000180051368     libcpmt:winapinls.obj
 0002:00004378       ??_C@_1M@OIJHDKJN@?$AAu?$AAr?$AA?9?$AAP?$AAK?$AA?$AA@ 0000000180051378     libcpmt:winapinls.obj
 0002:00004388       ??_C@_1M@LHIPCIEK@?$AAi?$AAd?$AA?9?$AAI?$AAD?$AA?$AA@ 0000000180051388     libcpmt:winapinls.obj
 0002:00004398       ??_C@_1M@MFMOBGI@?$AAu?$AAk?$AA?9?$AAU?$AAA?$AA?$AA@ 0000000180051398     libcpmt:winapinls.obj
 0002:000043a8       ??_C@_1M@OBGLJIPL@?$AAb?$AAe?$AA?9?$AAB?$AAY?$AA?$AA@ 00000001800513a8     libcpmt:winapinls.obj
 0002:000043b8       ??_C@_1M@BCFAJEAD@?$AAs?$AAl?$AA?9?$AAS?$AAI?$AA?$AA@ 00000001800513b8     libcpmt:winapinls.obj
 0002:000043c8       ??_C@_1M@FKFFEDDN@?$AAe?$AAt?$AA?9?$AAE?$AAE?$AA?$AA@ 00000001800513c8     libcpmt:winapinls.obj
 0002:000043d8       ??_C@_1M@KGKKAACI@?$AAl?$AAv?$AA?9?$AAL?$AAV?$AA?$AA@ 00000001800513d8     libcpmt:winapinls.obj
 0002:000043e8       ??_C@_1M@IFGBIJO@?$AAl?$AAt?$AA?9?$AAL?$AAT?$AA?$AA@ 00000001800513e8     libcpmt:winapinls.obj
 0002:000043f8       ??_C@_1M@FGEAHEDM@?$AAf?$AAa?$AA?9?$AAI?$AAR?$AA?$AA@ 00000001800513f8     libcpmt:winapinls.obj
 0002:00004408       ??_C@_1M@KBMAIBFN@?$AAv?$AAi?$AA?9?$AAV?$AAN?$AA?$AA@ 0000000180051408     libcpmt:winapinls.obj
 0002:00004418       ??_C@_1M@GPCBKDJK@?$AAh?$AAy?$AA?9?$AAA?$AAM?$AA?$AA@ 0000000180051418     libcpmt:winapinls.obj
 0002:00004428       ??_C@_1BG@BECMDDJB@?$AAa?$AAz?$AA?9?$AAA?$AAZ?$AA?9?$AAL?$AAa?$AAt?$AAn?$AA?$AA@ 0000000180051428     libcpmt:winapinls.obj
 0002:00004440       ??_C@_1M@MAOFCAEA@?$AAe?$AAu?$AA?9?$AAE?$AAS?$AA?$AA@ 0000000180051440     libcpmt:winapinls.obj
 0002:00004450       ??_C@_1M@IGHABKPI@?$AAm?$AAk?$AA?9?$AAM?$AAK?$AA?$AA@ 0000000180051450     libcpmt:winapinls.obj
 0002:00004460       ??_C@_1M@IAIGNEJG@?$AAt?$AAn?$AA?9?$AAZ?$AAA?$AA?$AA@ 0000000180051460     libcpmt:winapinls.obj
 0002:00004470       ??_C@_1M@IIJCOJFA@?$AAx?$AAh?$AA?9?$AAZ?$AAA?$AA?$AA@ 0000000180051470     libcpmt:winapinls.obj
 0002:00004480       ??_C@_1M@LGPJHNJH@?$AAz?$AAu?$AA?9?$AAZ?$AAA?$AA?$AA@ 0000000180051480     libcpmt:winapinls.obj
 0002:00004490       ??_C@_1M@HOKAOIO@?$AAa?$AAf?$AA?9?$AAZ?$AAA?$AA?$AA@ 0000000180051490     libcpmt:winapinls.obj
 0002:000044a0       ??_C@_1M@DPCLHLIE@?$AAk?$AAa?$AA?9?$AAG?$AAE?$AA?$AA@ 00000001800514a0     libcpmt:winapinls.obj
 0002:000044b0       ??_C@_1M@BLKMHJBI@?$AAf?$AAo?$AA?9?$AAF?$AAO?$AA?$AA@ 00000001800514b0     libcpmt:winapinls.obj
 0002:000044c0       ??_C@_1M@LGGJAPPB@?$AAh?$AAi?$AA?9?$AAI?$AAN?$AA?$AA@ 00000001800514c0     libcpmt:winapinls.obj
 0002:000044d0       ??_C@_1M@FIKPIHFE@?$AAm?$AAt?$AA?9?$AAM?$AAT?$AA?$AA@ 00000001800514d0     libcpmt:winapinls.obj
 0002:000044e0       ??_C@_1M@HEGGPBFA@?$AAs?$AAe?$AA?9?$AAN?$AAO?$AA?$AA@ 00000001800514e0     libcpmt:winapinls.obj
 0002:000044f0       ??_C@_1M@EIBJEEPA@?$AAm?$AAs?$AA?9?$AAM?$AAY?$AA?$AA@ 00000001800514f0     libcpmt:winapinls.obj
 0002:00004500       ??_C@_1M@FHLBGMPP@?$AAk?$AAk?$AA?9?$AAK?$AAZ?$AA?$AA@ 0000000180051500     libcpmt:winapinls.obj
 0002:00004510       ??_C@_1M@NGJJLCGI@?$AAk?$AAy?$AA?9?$AAK?$AAG?$AA?$AA@ 0000000180051510     libcpmt:winapinls.obj
 0002:00004520       ??_C@_1M@GIENNBFC@?$AAs?$AAw?$AA?9?$AAK?$AAE?$AA?$AA@ 0000000180051520     libcpmt:winapinls.obj
 0002:00004530       ??_C@_1BG@NDGMJIMJ@?$AAu?$AAz?$AA?9?$AAU?$AAZ?$AA?9?$AAL?$AAa?$AAt?$AAn?$AA?$AA@ 0000000180051530     libcpmt:winapinls.obj
 0002:00004548       ??_C@_1M@IDCCIHBC@?$AAt?$AAt?$AA?9?$AAR?$AAU?$AA?$AA@ 0000000180051548     libcpmt:winapinls.obj
 0002:00004558       ??_C@_1M@LOICPMOJ@?$AAb?$AAn?$AA?9?$AAI?$AAN?$AA?$AA@ 0000000180051558     libcpmt:winapinls.obj
 0002:00004568       ??_C@_1M@KPKKNEAH@?$AAp?$AAa?$AA?9?$AAI?$AAN?$AA?$AA@ 0000000180051568     libcpmt:winapinls.obj
 0002:00004578       ??_C@_1M@PJGPPBOG@?$AAg?$AAu?$AA?9?$AAI?$AAN?$AA?$AA@ 0000000180051578     libcpmt:winapinls.obj
 0002:00004588       ??_C@_1M@KMKMOPHI@?$AAt?$AAa?$AA?9?$AAI?$AAN?$AA?$AA@ 0000000180051588     libcpmt:winapinls.obj
 0002:00004598       ??_C@_1M@KFEHEPAC@?$AAt?$AAe?$AA?9?$AAI?$AAN?$AA?$AA@ 0000000180051598     libcpmt:winapinls.obj
 0002:000045a8       ??_C@_1M@CDCLMGHI@?$AAk?$AAn?$AA?9?$AAI?$AAN?$AA?$AA@ 00000001800515a8     libcpmt:winapinls.obj
 0002:000045b8       ??_C@_1M@MIODLDKF@?$AAm?$AAl?$AA?9?$AAI?$AAN?$AA?$AA@ 00000001800515b8     libcpmt:winapinls.obj
 0002:000045c8       ??_C@_1M@PBIEACPO@?$AAm?$AAr?$AA?9?$AAI?$AAN?$AA?$AA@ 00000001800515c8     libcpmt:winapinls.obj
 0002:000045d8       ??_C@_1M@NIDEAGPH@?$AAs?$AAa?$AA?9?$AAI?$AAN?$AA?$AA@ 00000001800515d8     libcpmt:winapinls.obj
 0002:000045e8       ??_C@_1M@FHIHCBIO@?$AAm?$AAn?$AA?9?$AAM?$AAN?$AA?$AA@ 00000001800515e8     libcpmt:winapinls.obj
 0002:000045f8       ??_C@_1M@JAIJPENP@?$AAc?$AAy?$AA?9?$AAG?$AAB?$AA?$AA@ 00000001800515f8     libcpmt:winapinls.obj
 0002:00004608       ??_C@_1M@PHGFBEPN@?$AAg?$AAl?$AA?9?$AAE?$AAS?$AA?$AA@ 0000000180051608     libcpmt:winapinls.obj
 0002:00004618       ??_C@_1O@KPIPDNCP@?$AAk?$AAo?$AAk?$AA?9?$AAI?$AAN?$AA?$AA@ 0000000180051618     libcpmt:winapinls.obj
 0002:00004628       ??_C@_1O@KNHJLDJA@?$AAs?$AAy?$AAr?$AA?9?$AAS?$AAY?$AA?$AA@ 0000000180051628     libcpmt:winapinls.obj
 0002:00004638       ??_C@_1O@MKEKBLAH@?$AAd?$AAi?$AAv?$AA?9?$AAM?$AAV?$AA?$AA@ 0000000180051638     libcpmt:winapinls.obj
 0002:00004648       ??_C@_1O@OHDCKDDF@?$AAq?$AAu?$AAz?$AA?9?$AAB?$AAO?$AA?$AA@ 0000000180051648     libcpmt:winapinls.obj
 0002:00004658       ??_C@_1M@LEPJNLFD@?$AAn?$AAs?$AA?9?$AAZ?$AAA?$AA?$AA@ 0000000180051658     libcpmt:winapinls.obj
 0002:00004668       ??_C@_1M@OMLEIIJB@?$AAm?$AAi?$AA?9?$AAN?$AAZ?$AA?$AA@ 0000000180051668     libcpmt:winapinls.obj
 0002:00004678       ??_C@_1M@PMPEAILG@?$AAa?$AAr?$AA?9?$AAI?$AAQ?$AA?$AA@ 0000000180051678     libcpmt:winapinls.obj
 0002:00004688       ??_C@_1M@BIBDDEMK@?$AAz?$AAh?$AA?9?$AAC?$AAN?$AA?$AA@ 0000000180051688     libcpmt:winapinls.obj
 0002:00004698       ??_C@_1M@CNKPNOEE@?$AAd?$AAe?$AA?9?$AAC?$AAH?$AA?$AA@ 0000000180051698     libcpmt:winapinls.obj
 0002:000046a8       ??_C@_1M@LKMGMLKO@?$AAe?$AAn?$AA?9?$AAG?$AAB?$AA?$AA@ 00000001800516a8     libcpmt:winapinls.obj
 0002:000046b8       ??_C@_1M@PGKJFFGL@?$AAe?$AAs?$AA?9?$AAM?$AAX?$AA?$AA@ 00000001800516b8     libcpmt:winapinls.obj
 0002:000046c8       ??_C@_1M@DNNANBDC@?$AAf?$AAr?$AA?9?$AAB?$AAE?$AA?$AA@ 00000001800516c8     libcpmt:winapinls.obj
 0002:000046d8       ??_C@_1M@HLGMDFHM@?$AAi?$AAt?$AA?9?$AAC?$AAH?$AA?$AA@ 00000001800516d8     libcpmt:winapinls.obj
 0002:000046e8       ??_C@_1M@CLLBGJH@?$AAn?$AAl?$AA?9?$AAB?$AAE?$AA?$AA@ 00000001800516e8     libcpmt:winapinls.obj
 0002:000046f8       ??_C@_1M@BODBOGLF@?$AAn?$AAn?$AA?9?$AAN?$AAO?$AA?$AA@ 00000001800516f8     libcpmt:winapinls.obj
 0002:00004708       ??_C@_1M@HFFAHKAD@?$AAp?$AAt?$AA?9?$AAP?$AAT?$AA?$AA@ 0000000180051708     libcpmt:winapinls.obj
 0002:00004718       ??_C@_1BG@LNOAKHIE@?$AAs?$AAr?$AA?9?$AAS?$AAP?$AA?9?$AAL?$AAa?$AAt?$AAn?$AA?$AA@ 0000000180051718     libcpmt:winapinls.obj
 0002:00004730       ??_C@_1M@HBMHBGAK@?$AAs?$AAv?$AA?9?$AAF?$AAI?$AA?$AA@ 0000000180051730     libcpmt:winapinls.obj
 0002:00004740       ??_C@_1BG@DGCJGJBE@?$AAa?$AAz?$AA?9?$AAA?$AAZ?$AA?9?$AAC?$AAy?$AAr?$AAl?$AA?$AA@ 0000000180051740     libcpmt:winapinls.obj
 0002:00004758       ??_C@_1M@KEJDAAHB@?$AAs?$AAe?$AA?9?$AAS?$AAE?$AA?$AA@ 0000000180051758     libcpmt:winapinls.obj
 0002:00004768       ??_C@_1M@HEIBJJAD@?$AAm?$AAs?$AA?9?$AAB?$AAN?$AA?$AA@ 0000000180051768     libcpmt:winapinls.obj
 0002:00004778       ??_C@_1BG@PBGJMCEM@?$AAu?$AAz?$AA?9?$AAU?$AAZ?$AA?9?$AAC?$AAy?$AAr?$AAl?$AA?$AA@ 0000000180051778     libcpmt:winapinls.obj
 0002:00004790       ??_C@_1O@LAOBCMDF@?$AAq?$AAu?$AAz?$AA?9?$AAE?$AAC?$AA?$AA@ 0000000180051790     libcpmt:winapinls.obj
 0002:000047a0       ??_C@_1M@POEEMAIO@?$AAa?$AAr?$AA?9?$AAE?$AAG?$AA?$AA@ 00000001800517a0     libcpmt:winapinls.obj
 0002:000047b0       ??_C@_1M@EFAKDEDL@?$AAz?$AAh?$AA?9?$AAH?$AAK?$AA?$AA@ 00000001800517b0     libcpmt:winapinls.obj
 0002:000047c0       ??_C@_1M@HKKIJHGI@?$AAd?$AAe?$AA?9?$AAA?$AAT?$AA?$AA@ 00000001800517c0     libcpmt:winapinls.obj
 0002:000047d0       ??_C@_1M@KBFBEHJF@?$AAe?$AAn?$AA?9?$AAA?$AAU?$AA?$AA@ 00000001800517d0     libcpmt:winapinls.obj
 0002:000047e0       ??_C@_1M@MNPLFAAH@?$AAe?$AAs?$AA?9?$AAE?$AAS?$AA?$AA@ 00000001800517e0     libcpmt:winapinls.obj
 0002:000047f0       ??_C@_1M@HJOOJFMA@?$AAf?$AAr?$AA?9?$AAC?$AAA?$AA?$AA@ 00000001800517f0     libcpmt:winapinls.obj
 0002:00004800       ??_C@_1BG@JPOFPNAB@?$AAs?$AAr?$AA?9?$AAS?$AAP?$AA?9?$AAC?$AAy?$AAr?$AAl?$AA?$AA@ 0000000180051800     libcpmt:winapinls.obj
 0002:00004818       ??_C@_1M@LNFOCMOB@?$AAs?$AAe?$AA?9?$AAF?$AAI?$AA?$AA@ 0000000180051818     libcpmt:winapinls.obj
 0002:00004828       ??_C@_1O@MGJBOAMB@?$AAq?$AAu?$AAz?$AA?9?$AAP?$AAE?$AA?$AA@ 0000000180051828     libcpmt:winapinls.obj
 0002:00004838       ??_C@_1M@GJINLBOK@?$AAa?$AAr?$AA?9?$AAL?$AAY?$AA?$AA@ 0000000180051838     libcpmt:winapinls.obj
 0002:00004848       ??_C@_1M@GGMNHJNL@?$AAz?$AAh?$AA?9?$AAS?$AAG?$AA?$AA@ 0000000180051848     libcpmt:winapinls.obj
 0002:00004858       ??_C@_1M@HOIKODND@?$AAd?$AAe?$AA?9?$AAL?$AAU?$AA?$AA@ 0000000180051858     libcpmt:winapinls.obj
 0002:00004868       ??_C@_1M@DDOCCGFG@?$AAe?$AAn?$AA?9?$AAC?$AAA?$AA?$AA@ 0000000180051868     libcpmt:winapinls.obj
 0002:00004878       ??_C@_1M@BNOEMJLF@?$AAe?$AAs?$AA?9?$AAG?$AAT?$AA?$AA@ 0000000180051878     libcpmt:winapinls.obj
 0002:00004888       ??_C@_1M@EOGNKEK@?$AAf?$AAr?$AA?9?$AAC?$AAH?$AA?$AA@ 0000000180051888     libcpmt:winapinls.obj
 0002:00004898       ??_C@_1M@FLIDJFHL@?$AAh?$AAr?$AA?9?$AAB?$AAA?$AA?$AA@ 0000000180051898     libcpmt:winapinls.obj
 0002:000048a8       ??_C@_1O@FMCELNAJ@?$AAs?$AAm?$AAj?$AA?9?$AAN?$AAO?$AA?$AA@ 00000001800518a8     libcpmt:winapinls.obj
 0002:000048b8       ??_C@_1M@JHGLJMGJ@?$AAa?$AAr?$AA?9?$AAD?$AAZ?$AA?$AA@ 00000001800518b8     libcpmt:winapinls.obj
 0002:000048c8       ??_C@_1M@JKKFDCNP@?$AAz?$AAh?$AA?9?$AAM?$AAO?$AA?$AA@ 00000001800518c8     libcpmt:winapinls.obj
 0002:000048d8       ??_C@_1M@GEEFALPE@?$AAd?$AAe?$AA?9?$AAL?$AAI?$AA?$AA@ 00000001800518d8     libcpmt:winapinls.obj
 0002:000048e8       ??_C@_1M@IGEOFBG@?$AAe?$AAn?$AA?9?$AAN?$AAZ?$AA?$AA@ 00000001800518e8     libcpmt:winapinls.obj
 0002:000048f8       ??_C@_1M@KDBONEHP@?$AAe?$AAs?$AA?9?$AAC?$AAR?$AA?$AA@ 00000001800518f8     libcpmt:winapinls.obj
 0002:00004908       ??_C@_1M@FHMDOHNN@?$AAf?$AAr?$AA?9?$AAL?$AAU?$AA?$AA@ 0000000180051908     libcpmt:winapinls.obj
 0002:00004918       ??_C@_1BG@NFKKMAFG@?$AAb?$AAs?$AA?9?$AAB?$AAA?$AA?9?$AAL?$AAa?$AAt?$AAn?$AA?$AA@ 0000000180051918     libcpmt:winapinls.obj
 0002:00004930       ??_C@_1O@IMNBEMCI@?$AAs?$AAm?$AAj?$AA?9?$AAS?$AAE?$AA?$AA@ 0000000180051930     libcpmt:winapinls.obj
 0002:00004940       ??_C@_1M@DHHMBNDP@?$AAa?$AAr?$AA?9?$AAM?$AAA?$AA?$AA@ 0000000180051940     libcpmt:winapinls.obj
 0002:00004950       ??_C@_1M@BNBLJCGH@?$AAe?$AAn?$AA?9?$AAI?$AAE?$AA?$AA@ 0000000180051950     libcpmt:winapinls.obj
 0002:00004960       ??_C@_1M@GEPAFMDL@?$AAe?$AAs?$AA?9?$AAP?$AAA?$AA?$AA@ 0000000180051960     libcpmt:winapinls.obj
 0002:00004970       ??_C@_1M@OJONDMDL@?$AAf?$AAr?$AA?9?$AAM?$AAC?$AA?$AA@ 0000000180051970     libcpmt:winapinls.obj
 0002:00004980       ??_C@_1BG@OBCNFJB@?$AAs?$AAr?$AA?9?$AAB?$AAA?$AA?9?$AAL?$AAa?$AAt?$AAn?$AA?$AA@ 0000000180051980     libcpmt:winapinls.obj
 0002:00004998       ??_C@_1O@KEMEEGPO@?$AAs?$AAm?$AAa?$AA?9?$AAN?$AAO?$AA?$AA@ 0000000180051998     libcpmt:winapinls.obj
 0002:000049a8       ??_C@_1M@ELMGFODK@?$AAa?$AAr?$AA?9?$AAT?$AAN?$AA?$AA@ 00000001800519a8     libcpmt:winapinls.obj
 0002:000049b8       ??_C@_1M@BHDLHFAF@?$AAe?$AAn?$AA?9?$AAZ?$AAA?$AA?$AA@ 00000001800519b8     libcpmt:winapinls.obj
 0002:000049c8       ??_C@_1M@BMGIGLIF@?$AAe?$AAs?$AA?9?$AAD?$AAO?$AA?$AA@ 00000001800519c8     libcpmt:winapinls.obj
 0002:000049d8       ??_C@_1BG@CMBHIPBE@?$AAs?$AAr?$AA?9?$AAB?$AAA?$AA?9?$AAC?$AAy?$AAr?$AAl?$AA?$AA@ 00000001800519d8     libcpmt:winapinls.obj
 0002:000049f0       ??_C@_1O@HEDBLHNP@?$AAs?$AAm?$AAa?$AA?9?$AAS?$AAE?$AA?$AA@ 00000001800519f0     libcpmt:winapinls.obj
 0002:00004a00       ??_C@_1M@DAGCADIM@?$AAa?$AAr?$AA?9?$AAO?$AAM?$AA?$AA@ 0000000180051a00     libcpmt:winapinls.obj
 0002:00004a10       ??_C@_1M@FODLMICG@?$AAe?$AAn?$AA?9?$AAJ?$AAM?$AA?$AA@ 0000000180051a10     libcpmt:winapinls.obj
 0002:00004a20       ??_C@_1M@DNMLCIHB@?$AAe?$AAs?$AA?9?$AAV?$AAE?$AA?$AA@ 0000000180051a20     libcpmt:winapinls.obj
 0002:00004a30       ??_C@_1O@EOKHMKJK@?$AAs?$AAm?$AAs?$AA?9?$AAF?$AAI?$AA?$AA@ 0000000180051a30     libcpmt:winapinls.obj
 0002:00004a40       ??_C@_1M@CAFJMKOF@?$AAa?$AAr?$AA?9?$AAY?$AAE?$AA?$AA@ 0000000180051a40     libcpmt:winapinls.obj
 0002:00004a50       ??_C@_1M@CBFHIJLI@?$AAe?$AAn?$AA?9?$AAC?$AAB?$AA?$AA@ 0000000180051a50     libcpmt:winapinls.obj
 0002:00004a60       ??_C@_1M@BGNFLDN@?$AAe?$AAs?$AA?9?$AAC?$AAO?$AA?$AA@ 0000000180051a60     libcpmt:winapinls.obj
 0002:00004a70       ??_C@_1O@JMPHMAMC@?$AAs?$AAm?$AAn?$AA?9?$AAF?$AAI?$AA?$AA@ 0000000180051a70     libcpmt:winapinls.obj
 0002:00004a80       ??_C@_1M@JLANABKE@?$AAa?$AAr?$AA?9?$AAS?$AAY?$AA?$AA@ 0000000180051a80     libcpmt:winapinls.obj
 0002:00004a90       ??_C@_1M@HPKGCFGN@?$AAe?$AAn?$AA?9?$AAB?$AAZ?$AA?$AA@ 0000000180051a90     libcpmt:winapinls.obj
 0002:00004aa0       ??_C@_1M@OLJCMLGM@?$AAe?$AAs?$AA?9?$AAP?$AAE?$AA?$AA@ 0000000180051aa0     libcpmt:winapinls.obj
 0002:00004ab0       ??_C@_1M@MKKGFKLE@?$AAa?$AAr?$AA?9?$AAJ?$AAO?$AA?$AA@ 0000000180051ab0     libcpmt:winapinls.obj
 0002:00004ac0       ??_C@_1M@EKPGLDNI@?$AAe?$AAn?$AA?9?$AAT?$AAT?$AA?$AA@ 0000000180051ac0     libcpmt:winapinls.obj
 0002:00004ad0       ??_C@_1M@OONGHFHE@?$AAe?$AAs?$AA?9?$AAA?$AAR?$AA?$AA@ 0000000180051ad0     libcpmt:winapinls.obj
 0002:00004ae0       ??_C@_1M@OOJFGBHE@?$AAa?$AAr?$AA?9?$AAL?$AAB?$AA?$AA@ 0000000180051ae0     libcpmt:winapinls.obj
 0002:00004af0       ??_C@_1M@GCEJHNEG@?$AAe?$AAn?$AA?9?$AAZ?$AAW?$AA?$AA@ 0000000180051af0     libcpmt:winapinls.obj
 0002:00004b00       ??_C@_1M@JNOCAHJI@?$AAe?$AAs?$AA?9?$AAE?$AAC?$AA?$AA@ 0000000180051b00     libcpmt:winapinls.obj
 0002:00004b10       ??_C@_1M@JEFHPGGB@?$AAa?$AAr?$AA?9?$AAK?$AAW?$AA?$AA@ 0000000180051b10     libcpmt:winapinls.obj
 0002:00004b20       ??_C@_1M@MLKIBJOJ@?$AAe?$AAn?$AA?9?$AAP?$AAH?$AA?$AA@ 0000000180051b20     libcpmt:winapinls.obj
 0002:00004b30       ??_C@_1M@BDNIPEND@?$AAe?$AAs?$AA?9?$AAC?$AAL?$AA?$AA@ 0000000180051b30     libcpmt:winapinls.obj
 0002:00004b40       ??_C@_1M@MPNMEKBD@?$AAa?$AAr?$AA?9?$AAA?$AAE?$AA?$AA@ 0000000180051b40     libcpmt:winapinls.obj
 0002:00004b50       ??_C@_1M@KBJALCPI@?$AAe?$AAs?$AA?9?$AAU?$AAY?$AA?$AA@ 0000000180051b50     libcpmt:winapinls.obj
 0002:00004b60       ??_C@_1M@LLCCOAGA@?$AAa?$AAr?$AA?9?$AAB?$AAH?$AA?$AA@ 0000000180051b60     libcpmt:winapinls.obj
 0002:00004b70       ??_C@_1M@PBFNCDEL@?$AAe?$AAs?$AA?9?$AAP?$AAY?$AA?$AA@ 0000000180051b70     libcpmt:winapinls.obj
 0002:00004b80       ??_C@_1M@EDGINPNP@?$AAa?$AAr?$AA?9?$AAQ?$AAA?$AA?$AA@ 0000000180051b80     libcpmt:winapinls.obj
 0002:00004b90       ??_C@_1M@MKDBIIJI@?$AAe?$AAs?$AA?9?$AAB?$AAO?$AA?$AA@ 0000000180051b90     libcpmt:winapinls.obj
 0002:00004ba0       ??_C@_1M@CPKKEBLD@?$AAe?$AAs?$AA?9?$AAS?$AAV?$AA?$AA@ 0000000180051ba0     libcpmt:winapinls.obj
 0002:00004bb0       ??_C@_1M@NDBGMMJL@?$AAe?$AAs?$AA?9?$AAH?$AAN?$AA?$AA@ 0000000180051bb0     libcpmt:winapinls.obj
 0002:00004bc0       ??_C@_1M@JIJIBHDP@?$AAe?$AAs?$AA?9?$AAN?$AAI?$AA?$AA@ 0000000180051bc0     libcpmt:winapinls.obj
 0002:00004bd0       ??_C@_1M@CGFMKEEK@?$AAe?$AAs?$AA?9?$AAP?$AAR?$AA?$AA@ 0000000180051bd0     libcpmt:winapinls.obj
 0002:00004be0       ??_C@_1O@ICJHKIIK@?$AAz?$AAh?$AA?9?$AAC?$AAH?$AAT?$AA?$AA@ 0000000180051be0     libcpmt:winapinls.obj
 0002:00004bf0       ??_C@_15CLNEJCE@?$AAs?$AAr?$AA?$AA@ 0000000180051bf0     libcpmt:winapinls.obj
 0002:00004bf8       ??_C@_1M@KAHEKEIG@?$AAa?$AAf?$AA?9?$AAz?$AAa?$AA?$AA@ 0000000180051bf8     libcpmt:winapinls.obj
 0002:00004c08       ??_C@_1M@GIECOABL@?$AAa?$AAr?$AA?9?$AAa?$AAe?$AA?$AA@ 0000000180051c08     libcpmt:winapinls.obj
 0002:00004c18       ??_C@_1M@BMLMEKGI@?$AAa?$AAr?$AA?9?$AAb?$AAh?$AA?$AA@ 0000000180051c18     libcpmt:winapinls.obj
 0002:00004c28       ??_C@_1M@DAPFDGGB@?$AAa?$AAr?$AA?9?$AAd?$AAz?$AA?$AA@ 0000000180051c28     libcpmt:winapinls.obj
 0002:00004c38       ??_C@_1M@FJNKGKIG@?$AAa?$AAr?$AA?9?$AAe?$AAg?$AA?$AA@ 0000000180051c38     libcpmt:winapinls.obj
 0002:00004c48       ??_C@_1M@FLGKKCLO@?$AAa?$AAr?$AA?9?$AAi?$AAq?$AA?$AA@ 0000000180051c48     libcpmt:winapinls.obj
 0002:00004c58       ??_C@_1M@GNDIPALM@?$AAa?$AAr?$AA?9?$AAj?$AAo?$AA?$AA@ 0000000180051c58     libcpmt:winapinls.obj
 0002:00004c68       ??_C@_1M@DDMJFMGJ@?$AAa?$AAr?$AA?9?$AAk?$AAw?$AA?$AA@ 0000000180051c68     libcpmt:winapinls.obj
 0002:00004c78       ??_C@_1M@EJALMLHM@?$AAa?$AAr?$AA?9?$AAl?$AAb?$AA?$AA@ 0000000180051c78     libcpmt:winapinls.obj
 0002:00004c88       ??_C@_1M@MOBDBLOC@?$AAa?$AAr?$AA?9?$AAl?$AAy?$AA?$AA@ 0000000180051c88     libcpmt:winapinls.obj
 0002:00004c98       ??_C@_1M@JAOCLHDH@?$AAa?$AAr?$AA?9?$AAm?$AAa?$AA?$AA@ 0000000180051c98     libcpmt:winapinls.obj
 0002:00004ca8       ??_C@_1M@JHPMKJIE@?$AAa?$AAr?$AA?9?$AAo?$AAm?$AA?$AA@ 0000000180051ca8     libcpmt:winapinls.obj
 0002:00004cb8       ??_C@_1M@OEPGHFNH@?$AAa?$AAr?$AA?9?$AAq?$AAa?$AA?$AA@ 0000000180051cb8     libcpmt:winapinls.obj
 0002:00004cc8       ??_C@_1M@KJDONENM@?$AAa?$AAr?$AA?9?$AAs?$AAa?$AA?$AA@ 0000000180051cc8     libcpmt:winapinls.obj
 0002:00004cd8       ??_C@_1M@DMJDKLKM@?$AAa?$AAr?$AA?9?$AAs?$AAy?$AA?$AA@ 0000000180051cd8     libcpmt:winapinls.obj
 0002:00004ce8       ??_C@_1M@OMFIPEDC@?$AAa?$AAr?$AA?9?$AAt?$AAn?$AA?$AA@ 0000000180051ce8     libcpmt:winapinls.obj
 0002:00004cf8       ??_C@_1M@IHMHGAON@?$AAa?$AAr?$AA?9?$AAy?$AAe?$AA?$AA@ 0000000180051cf8     libcpmt:winapinls.obj
 0002:00004d08       ??_C@_1BG@KDCPGJGB@?$AAa?$AAz?$AA?9?$AAa?$AAz?$AA?9?$AAc?$AAy?$AAr?$AAl?$AA?$AA@ 0000000180051d08     libcpmt:winapinls.obj
 0002:00004d20       ??_C@_1BG@IBCKDDOE@?$AAa?$AAz?$AA?9?$AAa?$AAz?$AA?9?$AAl?$AAa?$AAt?$AAn?$AA?$AA@ 0000000180051d20     libcpmt:winapinls.obj
 0002:00004d38       ??_C@_1M@EGPFDCPD@?$AAb?$AAe?$AA?9?$AAb?$AAy?$AA?$AA@ 0000000180051d38     libcpmt:winapinls.obj
 0002:00004d48       ??_C@_1M@PCMGMCGC@?$AAb?$AAg?$AA?9?$AAb?$AAg?$AA?$AA@ 0000000180051d48     libcpmt:winapinls.obj
 0002:00004d58       ??_C@_1M@BJBMFGOB@?$AAb?$AAn?$AA?9?$AAi?$AAn?$AA?$AA@ 0000000180051d58     libcpmt:winapinls.obj
 0002:00004d68       ??_C@_1BG@EAKMMACD@?$AAb?$AAs?$AA?9?$AAb?$AAa?$AA?9?$AAl?$AAa?$AAt?$AAn?$AA?$AA@ 0000000180051d68     libcpmt:winapinls.obj
 0002:00004d80       ??_C@_1M@KGADAODK@?$AAc?$AAa?$AA?9?$AAe?$AAs?$AA?$AA@ 0000000180051d80     libcpmt:winapinls.obj
 0002:00004d90       ??_C@_1M@COAJPDHI@?$AAc?$AAs?$AA?9?$AAc?$AAz?$AA?$AA@ 0000000180051d90     libcpmt:winapinls.obj
 0002:00004da0       ??_C@_1M@DHBHFONH@?$AAc?$AAy?$AA?9?$AAg?$AAb?$AA?$AA@ 0000000180051da0     libcpmt:winapinls.obj
 0002:00004db0       ??_C@_1M@IMGKELGA@?$AAd?$AAa?$AA?9?$AAd?$AAk?$AA?$AA@ 0000000180051db0     libcpmt:winapinls.obj
 0002:00004dc0       ??_C@_1M@NNDGDNGA@?$AAd?$AAe?$AA?9?$AAa?$AAt?$AA?$AA@ 0000000180051dc0     libcpmt:winapinls.obj
 0002:00004dd0       ??_C@_1M@IKDBHEEM@?$AAd?$AAe?$AA?9?$AAc?$AAh?$AA?$AA@ 0000000180051dd0     libcpmt:winapinls.obj
 0002:00004de0       ??_C@_1M@GFFOJMCJ@?$AAd?$AAe?$AA?9?$AAd?$AAe?$AA?$AA@ 0000000180051de0     libcpmt:winapinls.obj
 0002:00004df0       ??_C@_1M@MDNLKBPM@?$AAd?$AAe?$AA?9?$AAl?$AAi?$AA?$AA@ 0000000180051df0     libcpmt:winapinls.obj
 0002:00004e00       ??_C@_1M@NJBEEJNL@?$AAd?$AAe?$AA?9?$AAl?$AAu?$AA?$AA@ 0000000180051e00     libcpmt:winapinls.obj
 0002:00004e10       ??_C@_1O@GNNELBAP@?$AAd?$AAi?$AAv?$AA?9?$AAm?$AAv?$AA?$AA@ 0000000180051e10     libcpmt:winapinls.obj
 0002:00004e20       ??_C@_1M@EJLEOGAE@?$AAe?$AAl?$AA?9?$AAg?$AAr?$AA?$AA@ 0000000180051e20     libcpmt:winapinls.obj
 0002:00004e30       ??_C@_1M@GMPONJN@?$AAe?$AAn?$AA?9?$AAa?$AAu?$AA?$AA@ 0000000180051e30     libcpmt:winapinls.obj
 0002:00004e40       ??_C@_1M@NIDIIPGF@?$AAe?$AAn?$AA?9?$AAb?$AAz?$AA?$AA@ 0000000180051e40     libcpmt:winapinls.obj
 0002:00004e50       ??_C@_1M@JEHMIMFO@?$AAe?$AAn?$AA?9?$AAc?$AAa?$AA?$AA@ 0000000180051e50     libcpmt:winapinls.obj
 0002:00004e60       ??_C@_1M@IGMJCDLA@?$AAe?$AAn?$AA?9?$AAc?$AAb?$AA?$AA@ 0000000180051e60     libcpmt:winapinls.obj
 0002:00004e70       ??_C@_1M@BNFIGBKG@?$AAe?$AAn?$AA?9?$AAg?$AAb?$AA?$AA@ 0000000180051e70     libcpmt:winapinls.obj
 0002:00004e80       ??_C@_1M@LKIFDIGP@?$AAe?$AAn?$AA?9?$AAi?$AAe?$AA?$AA@ 0000000180051e80     libcpmt:winapinls.obj
 0002:00004e90       ??_C@_1M@PJKFGCCO@?$AAe?$AAn?$AA?9?$AAj?$AAm?$AA?$AA@ 0000000180051e90     libcpmt:winapinls.obj
 0002:00004ea0       ??_C@_1M@KPPKEPBO@?$AAe?$AAn?$AA?9?$AAn?$AAz?$AA?$AA@ 0000000180051ea0     libcpmt:winapinls.obj
 0002:00004eb0       ??_C@_1M@GMDGLDOB@?$AAe?$AAn?$AA?9?$AAp?$AAh?$AA?$AA@ 0000000180051eb0     libcpmt:winapinls.obj
 0002:00004ec0       ??_C@_1M@ONGIBJNA@?$AAe?$AAn?$AA?9?$AAt?$AAt?$AA?$AA@ 0000000180051ec0     libcpmt:winapinls.obj
 0002:00004ed0       ??_C@_1M@LLODPCMM@?$AAe?$AAn?$AA?9?$AAu?$AAs?$AA?$AA@ 0000000180051ed0     libcpmt:winapinls.obj
 0002:00004ee0       ??_C@_1M@LAKFNPAN@?$AAe?$AAn?$AA?9?$AAz?$AAa?$AA?$AA@ 0000000180051ee0     libcpmt:winapinls.obj
 0002:00004ef0       ??_C@_1M@MFNHNHEO@?$AAe?$AAn?$AA?9?$AAz?$AAw?$AA?$AA@ 0000000180051ef0     libcpmt:winapinls.obj
 0002:00004f00       ??_C@_1M@EJEINPHM@?$AAe?$AAs?$AA?9?$AAa?$AAr?$AA?$AA@ 0000000180051f00     libcpmt:winapinls.obj
 0002:00004f10       ??_C@_1M@GNKPCCJA@?$AAe?$AAs?$AA?9?$AAb?$AAo?$AA?$AA@ 0000000180051f10     libcpmt:winapinls.obj
 0002:00004f20       ??_C@_1M@LEEGFONL@?$AAe?$AAs?$AA?9?$AAc?$AAl?$AA?$AA@ 0000000180051f20     libcpmt:winapinls.obj
 0002:00004f30       ??_C@_1M@KGPDPBDF@?$AAe?$AAs?$AA?9?$AAc?$AAo?$AA?$AA@ 0000000180051f30     libcpmt:winapinls.obj
 0002:00004f40       ??_C@_1M@EIAHOHH@?$AAe?$AAs?$AA?9?$AAc?$AAr?$AA?$AA@ 0000000180051f40     libcpmt:winapinls.obj
 0002:00004f50       ??_C@_1M@LLPGMBIN@?$AAe?$AAs?$AA?9?$AAd?$AAo?$AA?$AA@ 0000000180051f50     libcpmt:winapinls.obj
 0002:00004f60       ??_C@_1M@DKHMKNJA@?$AAe?$AAs?$AA?9?$AAe?$AAc?$AA?$AA@ 0000000180051f60     libcpmt:winapinls.obj
 0002:00004f70       ??_C@_1M@GKGFPKAP@?$AAe?$AAs?$AA?9?$AAe?$AAs?$AA?$AA@ 0000000180051f70     libcpmt:winapinls.obj
 0002:00004f80       ??_C@_1M@LKHKGDLN@?$AAe?$AAs?$AA?9?$AAg?$AAt?$AA?$AA@ 0000000180051f80     libcpmt:winapinls.obj
 0002:00004f90       ??_C@_1M@HEIIGGJD@?$AAe?$AAs?$AA?9?$AAh?$AAn?$AA?$AA@ 0000000180051f90     libcpmt:winapinls.obj
 0002:00004fa0       ??_C@_1M@FBDHPPGD@?$AAe?$AAs?$AA?9?$AAm?$AAx?$AA?$AA@ 0000000180051fa0     libcpmt:winapinls.obj
 0002:00004fb0       ??_C@_1M@DPAGLNDH@?$AAe?$AAs?$AA?9?$AAn?$AAi?$AA?$AA@ 0000000180051fb0     libcpmt:winapinls.obj
 0002:00004fc0       ??_C@_1M@MDGOPGDD@?$AAe?$AAs?$AA?9?$AAp?$AAa?$AA?$AA@ 0000000180051fc0     libcpmt:winapinls.obj
 0002:00004fd0       ??_C@_1M@EMAMGBGE@?$AAe?$AAs?$AA?9?$AAp?$AAe?$AA?$AA@ 0000000180051fd0     libcpmt:winapinls.obj
 0002:00004fe0       ??_C@_1M@IBMCAOEC@?$AAe?$AAs?$AA?9?$AAp?$AAr?$AA?$AA@ 0000000180051fe0     libcpmt:winapinls.obj
 0002:00004ff0       ??_C@_1M@FGMDIJED@?$AAe?$AAs?$AA?9?$AAp?$AAy?$AA?$AA@ 0000000180051ff0     libcpmt:winapinls.obj
 0002:00005000       ??_C@_1M@IIDEOLLL@?$AAe?$AAs?$AA?9?$AAs?$AAv?$AA?$AA@ 0000000180052000     libcpmt:winapinls.obj
 0002:00005010       ??_C@_1M@GAOBIPA@?$AAe?$AAs?$AA?9?$AAu?$AAy?$AA?$AA@ 0000000180052010     libcpmt:winapinls.obj
 0002:00005028       ??_7type_info@@6B@         0000000180052028     LIBCMT:std_type_info_static.obj
 0002:00005030       _pRawDllMain               0000000180052030     LIBCMT:dll_dllmain.obj
 0002:00005030       _pDefaultRawDllMain        0000000180052030     LIBCMT:dll_dllmain.obj
 0002:00005050       ??_7bad_array_new_length@std@@6B@ 0000000180052050     LIBCMT:throw_bad_alloc.obj
 0002:00005060       ??_C@_0BF@KINCDENJ@bad?5array?5new?5length?$AA@ 0000000180052060     LIBCMT:throw_bad_alloc.obj
 0002:00005078       _pDestructExceptionObject  0000000180052078     libvcruntime:frame.obj
 0002:00005088       ??_7bad_exception@std@@6B@ 0000000180052088     libvcruntime:frame.obj
 0002:00005098       ??_C@_0O@DPKOEFFH@bad?5exception?$AA@ 0000000180052098     libvcruntime:frame.obj
 0002:000051b0       ??_C@_1BC@DNHGCMLG@?$AAa?$AAd?$AAv?$AAa?$AAp?$AAi?$AA3?$AA2?$AA?$AA@ 00000001800521b0     libvcruntime:winapi_downlevel.obj
 0002:000051c8       ??_C@_1DM@KHCHBNEB@?$AAa?$AAp?$AAi?$AA?9?$AAm?$AAs?$AA?9?$AAw?$AAi?$AAn?$AA?9?$AAc?$AAo?$AAr?$AAe?$AA?9?$AAf?$AAi?$AAb?$AAe?$AAr?$AAs?$AA?9?$AAl?$AA1?$AA?9?$AA1?$AA?9?$AA1?$AA?$AA@ 00000001800521c8     libvcruntime:winapi_downlevel.obj
 0002:00005208       ??_C@_1DK@LPPGFMPP@?$AAa?$AAp?$AAi?$AA?9?$AAm?$AAs?$AA?9?$AAw?$AAi?$AAn?$AA?9?$AAc?$AAo?$AAr?$AAe?$AA?9?$AAs?$AAy?$AAn?$AAc?$AAh?$AA?9?$AAl?$AA1?$AA?9?$AA2?$AA?9?$AA0?$AA?$AA@ 0000000180052208     libvcruntime:winapi_downlevel.obj
 0002:00005248       ??_C@_1BC@GDMECMAK@?$AAk?$AAe?$AAr?$AAn?$AAe?$AAl?$AA3?$AA2?$AA?$AA@ 0000000180052248     libvcruntime:winapi_downlevel.obj
 0002:000055b0       ??_C@_08EHJDFFNH@__based?$CI?$AA@ 00000001800525b0     libvcruntime:undname.obj
 0002:000055c0       ??_C@_07KOLFKCDI@__cdecl?$AA@ 00000001800525c0     libvcruntime:undname.obj
 0002:000055c8       ??_C@_08GHMPAG@__pascal?$AA@ 00000001800525c8     libvcruntime:undname.obj
 0002:000055d8       ??_C@_09IFJBGAPI@__stdcall?$AA@ 00000001800525d8     libvcruntime:undname.obj
 0002:000055e8       ??_C@_0L@NPHFGOKO@__thiscall?$AA@ 00000001800525e8     libvcruntime:undname.obj
 0002:000055f8       ??_C@_0L@JMKHOMEK@__fastcall?$AA@ 00000001800525f8     libvcruntime:undname.obj
 0002:00005608       ??_C@_0N@BCKKPABJ@__vectorcall?$AA@ 0000000180052608     libvcruntime:undname.obj
 0002:00005618       ??_C@_09HIJEGCPM@__clrcall?$AA@ 0000000180052618     libvcruntime:undname.obj
 0002:00005624       ??_C@_06GHPCKEAG@__eabi?$AA@ 0000000180052624     libvcruntime:undname.obj
 0002:00005630       ??_C@_07JOMMBBKO@__ptr64?$AA@ 0000000180052630     libvcruntime:undname.obj
 0002:00005638       ??_C@_0L@PILCLIHE@__restrict?$AA@ 0000000180052638     libvcruntime:undname.obj
 0002:00005648       ??_C@_0M@GFIIJFMG@__unaligned?$AA@ 0000000180052648     libvcruntime:undname.obj
 0002:00005658       ??_C@_09DHDLOLLB@restrict?$CI?$AA@ 0000000180052658     libvcruntime:undname.obj
 0002:00005664       ??_C@_04NIHEBCM@?5new?$AA@ 0000000180052664     libvcruntime:undname.obj
 0002:00005670       ??_C@_07FPCDHGMM@?5delete?$AA@ 0000000180052670     libvcruntime:undname.obj
 0002:00005678       ??_C@_01NEMOKFLO@?$DN?$AA@ 0000000180052678     libvcruntime:undname.obj
 0002:0000567c       ??_C@_02GPIOPFAK@?$DO?$DO?$AA@ 000000018005267c     libvcruntime:undname.obj
 0002:00005680       ??_C@_02FODMEDOG@?$DM?$DM?$AA@ 0000000180052680     libvcruntime:undname.obj
 0002:00005684       ??_C@_01DCLJPIOD@?$CB?$AA@ 0000000180052684     libvcruntime:undname.obj
 0002:00005688       ??_C@_02EGOFBIJA@?$DN?$DN?$AA@ 0000000180052688     libvcruntime:undname.obj
 0002:0000568c       ??_C@_02FDNJECIE@?$CB?$DN?$AA@ 000000018005268c     libvcruntime:undname.obj
 0002:00005690       ??_C@_02GPECMEKF@?$FL?$FN?$AA@ 0000000180052690     libvcruntime:undname.obj
 0002:00005698       ??_C@_08LHJFAFGD@operator?$AA@ 0000000180052698     libvcruntime:undname.obj
 0002:000056a4       ??_C@_02HBOOOICD@?9?$DO?$AA@ 00000001800526a4     libvcruntime:undname.obj
 0002:000056a8       ??_C@_02ECNGHCIF@?$CL?$CL?$AA@ 00000001800526a8     libvcruntime:undname.obj
 0002:000056ac       ??_C@_02BAABKJLB@?9?9?$AA@ 00000001800526ac     libvcruntime:undname.obj
 0002:000056b0       ??_C@_01MIFGBAGJ@?$CL?$AA@ 00000001800526b0     libvcruntime:undname.obj
 0002:000056b4       ??_C@_01HNPIGOCE@?$CG?$AA@ 00000001800526b4     libvcruntime:undname.obj
 0002:000056b8       ??_C@_03MNHNFDLC@?9?$DO?$CK?$AA@ 00000001800526b8     libvcruntime:undname.obj
 0002:000056bc       ??_C@_01KMDKNFGN@?1?$AA@   00000001800526bc     libvcruntime:undname.obj
 0002:000056c0       ??_C@_01FGNFDNOH@?$CF?$AA@ 00000001800526c0     libvcruntime:undname.obj
 0002:000056c4       ??_C@_01MNNFJEPP@?$DM?$AA@ 00000001800526c4     libvcruntime:undname.obj
 0002:000056c8       ??_C@_02EHCHHCKH@?$DM?$DN?$AA@ 00000001800526c8     libvcruntime:undname.obj
 0002:000056cc       ??_C@_01PPODPGHN@?$DO?$AA@ 00000001800526cc     libvcruntime:undname.obj
 0002:000056d0       ??_C@_02EEKDKGMJ@?$DO?$DN?$AA@ 00000001800526d0     libvcruntime:undname.obj
 0002:000056d4       ??_C@_01IHBHIGKO@?0?$AA@   00000001800526d4     libvcruntime:undname.obj
 0002:000056d8       ??_C@_02HCKGKOFO@?$CI?$CJ?$AA@ 00000001800526d8     libvcruntime:undname.obj
 0002:000056dc       ??_C@_01PJKLJHI@?$HO?$AA@  00000001800526dc     libvcruntime:undname.obj
 0002:000056e0       ??_C@_01JKBOJNNK@?$FO?$AA@ 00000001800526e0     libvcruntime:undname.obj
 0002:000056e4       ??_C@_01DNKMNLPK@?$HM?$AA@ 00000001800526e4     libvcruntime:undname.obj
 0002:000056e8       ??_C@_02PPKAJPJL@?$CG?$CG?$AA@ 00000001800526e8     libvcruntime:undname.obj
 0002:000056ec       ??_C@_02NONPIBCD@?$HM?$HM?$AA@ 00000001800526ec     libvcruntime:undname.obj
 0002:000056f0       ??_C@_02FPIMKNGF@?$CK?$DN?$AA@ 00000001800526f0     libvcruntime:undname.obj
 0002:000056f4       ??_C@_02FOEOMHFC@?$CL?$DN?$AA@ 00000001800526f4     libvcruntime:undname.obj
 0002:000056f8       ??_C@_02FKMDLLOA@?9?$DN?$AA@ 00000001800526f8     libvcruntime:undname.obj
 0002:000056fc       ??_C@_02FJEHGPIO@?1?$DN?$AA@ 00000001800526fc     libvcruntime:undname.obj
 0002:00005700       ??_C@_02FENAOKFI@?$CF?$DN?$AA@ 0000000180052700     libvcruntime:undname.obj
 0002:00005704       ??_C@_03IKFCCPFF@?$DO?$DO?$DN?$AA@ 0000000180052704     libvcruntime:undname.obj
 0002:00005708       ??_C@_03CDNPDDLA@?$DM?$DM?$DN?$AA@ 0000000180052708     libvcruntime:undname.obj
 0002:0000570c       ??_C@_02FGJGFEAB@?$CG?$DN?$AA@ 000000018005270c     libvcruntime:undname.obj
 0002:00005710       ??_C@_02DHLNPPGH@?$HM?$DN?$AA@ 0000000180052710     libvcruntime:undname.obj
 0002:00005714       ??_C@_02MHEGNOJ@?$FO?$DN?$AA@ 0000000180052714     libvcruntime:undname.obj
 0002:00005718       ??_C@_09IFPLHPGF@?$GAvftable?8?$AA@ 0000000180052718     libvcruntime:undname.obj
 0002:00005728       ??_C@_09BLBHBJP@?$GAvbtable?8?$AA@ 0000000180052728     libvcruntime:undname.obj
 0002:00005738       ??_C@_07FEEIOKP@?$GAvcall?8?$AA@ 0000000180052738     libvcruntime:undname.obj
 0002:00005740       ??_C@_08LLFFHHDJ@?$GAtypeof?8?$AA@ 0000000180052740     libvcruntime:undname.obj
 0002:00005750       ??_C@_0BF@KDPPACIK@?$GAlocal?5static?5guard?8?$AA@ 0000000180052750     libvcruntime:undname.obj
 0002:00005768       ??_C@_08OBABFOLI@?$GAstring?8?$AA@ 0000000180052768     libvcruntime:undname.obj
 0002:00005778       ??_C@_0BD@JDLKDPAB@?$GAvbase?5destructor?8?$AA@ 0000000180052778     libvcruntime:undname.obj
 0002:00005790       ??_C@_0BN@DEGPLNFK@?$GAvector?5deleting?5destructor?8?$AA@ 0000000180052790     libvcruntime:undname.obj
 0002:000057b0       ??_C@_0BO@OBMKPJIG@?$GAdefault?5constructor?5closure?8?$AA@ 00000001800527b0     libvcruntime:undname.obj
 0002:000057d0       ??_C@_0BN@IMDCHIKM@?$GAscalar?5deleting?5destructor?8?$AA@ 00000001800527d0     libvcruntime:undname.obj
 0002:000057f0       ??_C@_0BO@PFGOCPJJ@?$GAvector?5constructor?5iterator?8?$AA@ 00000001800527f0     libvcruntime:undname.obj
 0002:00005810       ??_C@_0BN@LFPFMEDL@?$GAvector?5destructor?5iterator?8?$AA@ 0000000180052810     libvcruntime:undname.obj
 0002:00005830       ??_C@_0CE@IKBNEHA@?$GAvector?5vbase?5constructor?5iterat@ 0000000180052830     libvcruntime:undname.obj
 0002:00005858       ??_C@_0BL@NILFHHPC@?$GAvirtual?5displacement?5map?8?$AA@ 0000000180052858     libvcruntime:undname.obj
 0002:00005878       ??_C@_0CB@JONCMFFK@?$GAeh?5vector?5constructor?5iterator?8@ 0000000180052878     libvcruntime:undname.obj
 0002:000058a0       ??_C@_0CA@GCEOPDGL@?$GAeh?5vector?5destructor?5iterator?8?$AA@ 00000001800528a0     libvcruntime:undname.obj
 0002:000058c0       ??_C@_0CH@OOJPLCPH@?$GAeh?5vector?5vbase?5constructor?5ite@ 00000001800528c0     libvcruntime:undname.obj
 0002:000058e8       ??_C@_0BL@LLKPOHJI@?$GAcopy?5constructor?5closure?8?$AA@ 00000001800528e8     libvcruntime:undname.obj
 0002:00005908       ??_C@_0BA@KBCDOMBN@?$GAudt?5returning?8?$AA@ 0000000180052908     libvcruntime:undname.obj
 0002:00005918       ??_C@_03KLGMFNMG@?$GAEH?$AA@ 0000000180052918     libvcruntime:undname.obj
 0002:0000591c       ??_C@_05KHLCHHI@?$GARTTI?$AA@ 000000018005291c     libvcruntime:undname.obj
 0002:00005928       ??_C@_0BA@KKLDJDLB@?$GAlocal?5vftable?8?$AA@ 0000000180052928     libvcruntime:undname.obj
 0002:00005938       ??_C@_0CE@IIHCMGGL@?$GAlocal?5vftable?5constructor?5closu@ 0000000180052938     libvcruntime:undname.obj
 0002:0000595c       ??_C@_06FHBGPFGH@?5new?$FL?$FN?$AA@ 000000018005295c     libvcruntime:undname.obj
 0002:00005968       ??_C@_09LBNFPBCA@?5delete?$FL?$FN?$AA@ 0000000180052968     libvcruntime:undname.obj
 0002:00005978       ??_C@_0P@HJKNJFNN@?$GAomni?5callsig?8?$AA@ 0000000180052978     libvcruntime:undname.obj
 0002:00005988       ??_C@_0BL@CNOONJFP@?$GAplacement?5delete?5closure?8?$AA@ 0000000180052988     libvcruntime:undname.obj
 0002:000059a8       ??_C@_0BN@CKNJLHMB@?$GAplacement?5delete?$FL?$FN?5closure?8?$AA@ 00000001800529a8     libvcruntime:undname.obj
 0002:000059c8       ??_C@_0CG@CFDHKGGD@?$GAmanaged?5vector?5constructor?5iter@ 00000001800529c8     libvcruntime:undname.obj
 0002:000059f0       ??_C@_0CF@IMGKMJNO@?$GAmanaged?5vector?5destructor?5itera@ 00000001800529f0     libvcruntime:undname.obj
 0002:00005a18       ??_C@_0CG@HLDDJMAG@?$GAeh?5vector?5copy?5constructor?5iter@ 0000000180052a18     libvcruntime:undname.obj
 0002:00005a40       ??_C@_0CM@FCBBDIGB@?$GAeh?5vector?5vbase?5copy?5constructo@ 0000000180052a40     libvcruntime:undname.obj
 0002:00005a70       ??_C@_0BL@CLIPGLGB@?$GAdynamic?5initializer?5for?5?8?$AA@ 0000000180052a70     libvcruntime:undname.obj
 0002:00005a90       ??_C@_0CB@PDBIFEP@?$GAdynamic?5atexit?5destructor?5for?5?8@ 0000000180052a90     libvcruntime:undname.obj
 0002:00005ab8       ??_C@_0CD@CGAJBKEJ@?$GAvector?5copy?5constructor?5iterato@ 0000000180052ab8     libvcruntime:undname.obj
 0002:00005ae0       ??_C@_0CJ@GJELGAMM@?$GAvector?5vbase?5copy?5constructor?5i@ 0000000180052ae0     libvcruntime:undname.obj
 0002:00005b10       ??_C@_0CL@FGIJHLCE@?$GAmanaged?5vector?5copy?5constructor@ 0000000180052b10     libvcruntime:undname.obj
 0002:00005b40       ??_C@_0BM@PMGGMLDN@?$GAlocal?5static?5thread?5guard?8?$AA@ 0000000180052b40     libvcruntime:undname.obj
 0002:00005b60       ??_C@_0N@BDNMDMOL@operator?5?$CC?$CC?5?$AA@ 0000000180052b60     libvcruntime:undname.obj
 0002:00005b70       ??_C@_0BC@DAFEJGAK@?5Type?5Descriptor?8?$AA@ 0000000180052b70     libvcruntime:undname.obj
 0002:00005b88       ??_C@_0BM@LDKODKLH@?5Base?5Class?5Descriptor?5at?5?$CI?$AA@ 0000000180052b88     libvcruntime:undname.obj
 0002:00005ba8       ??_C@_0BD@LGICGFMM@?5Base?5Class?5Array?8?$AA@ 0000000180052ba8     libvcruntime:undname.obj
 0002:00005bc0       ??_C@_0BN@MECKDCOJ@?5Class?5Hierarchy?5Descriptor?8?$AA@ 0000000180052bc0     libvcruntime:undname.obj
 0002:00005be0       ??_C@_0BK@CFCOFLF@?5Complete?5Object?5Locator?8?$AA@ 0000000180052be0     libvcruntime:undname.obj
 0002:00005c00       standard_lookup_table      0000000180052c00     libucrt:output.obj
 0002:00005c5c       ??_C@_06OJHGLDPL@?$CInull?$CJ?$AA@ 0000000180052c5c     libucrt:output.obj
 0002:00005c68       ??_C@_1O@CEDCILHN@?$AA?$CI?$AAn?$AAu?$AAl?$AAl?$AA?$CJ?$AA?$AA@ 0000000180052c68     libucrt:output.obj
 0002:00005c80       ??_C@_1EK@MBDPDCGA@?$AAM?$AAi?$AAc?$AAr?$AAo?$AAs?$AAo?$AAf?$AAt?$AA?5?$AAV?$AAi?$AAs?$AAu?$AAa?$AAl?$AA?5?$AAC?$AA?$CL?$AA?$CL?$AA?5?$AAR?$AAu?$AAn?$AAt?$AAi?$AAm?$AAe?$AA?5?$AAL?$AAi?$AAb@ 0000000180052c80     libucrt:assert.obj
 0002:00005cd0       ??_C@_1FE@LHBLIKM@?$AAA?$AAs?$AAs?$AAe?$AAr?$AAt?$AAi?$AAo?$AAn?$AA?5?$AAf?$AAa?$AAi?$AAl?$AAe?$AAd?$AA?3?$AA?5?$AA?$CF?$AAT?$AAs?$AA?0?$AA?5?$AAf?$AAi?$AAl?$AAe?$AA?5?$AA?$CF?$AAT?$AAs?$AA?0@ 0000000180052cd0     libucrt:assert.obj
 0002:00005d28       ??_C@_1CE@OJBNHDMO@?$AAA?$AAs?$AAs?$AAe?$AAr?$AAt?$AAi?$AAo?$AAn?$AA?5?$AAf?$AAa?$AAi?$AAl?$AAe?$AAd?$AA?$CB?$AA?$AA@ 0000000180052d28     libucrt:assert.obj
 0002:00005d50       ??_C@_1BE@PHKBBGE@?$AAP?$AAr?$AAo?$AAg?$AAr?$AAa?$AAm?$AA?3?$AA?5?$AA?$AA@ 0000000180052d50     libucrt:assert.obj
 0002:00005d68       ??_C@_1O@HEMHKNDC@?$AAF?$AAi?$AAl?$AAe?$AA?3?$AA?5?$AA?$AA@ 0000000180052d68     libucrt:assert.obj
 0002:00005d78       ??_C@_1O@KCAFKHJE@?$AAL?$AAi?$AAn?$AAe?$AA?3?$AA?5?$AA?$AA@ 0000000180052d78     libucrt:assert.obj
 0002:00005d88       ??_C@_1BK@PEDCIPMA@?$AAE?$AAx?$AAp?$AAr?$AAe?$AAs?$AAs?$AAi?$AAo?$AAn?$AA?3?$AA?5?$AA?$AA@ 0000000180052d88     libucrt:assert.obj
 0002:00005db0       ??_C@_1OA@EGMLFBHJ@?$AAF?$AAo?$AAr?$AA?5?$AAi?$AAn?$AAf?$AAo?$AAr?$AAm?$AAa?$AAt?$AAi?$AAo?$AAn?$AA?5?$AAo?$AAn?$AA?5?$AAh?$AAo?$AAw?$AA?5?$AAy?$AAo?$AAu?$AAr?$AA?5?$AAp?$AAr?$AAo?$AAg@ 0000000180052db0     libucrt:assert.obj
 0002:00005e90       ??_C@_1HK@POCJMFGK@?$AA?$CI?$AAP?$AAr?$AAe?$AAs?$AAs?$AA?5?$AAR?$AAe?$AAt?$AAr?$AAy?$AA?5?$AAt?$AAo?$AA?5?$AAd?$AAe?$AAb?$AAu?$AAg?$AA?5?$AAt?$AAh?$AAe?$AA?5?$AAa?$AAp?$AAp?$AAl?$AAi?$AAc@ 0000000180052e90     libucrt:assert.obj
 0002:00005f10       ??_C@_17LGKOMLJ@?$AA?4?$AA?4?$AA?4?$AA?$AA@ 0000000180052f10     libucrt:assert.obj
 0002:00005f18       ??_C@_13LBAGMAIH@?$AA?6?$AA?$AA@ 0000000180052f18     libucrt:assert.obj
 0002:00005f1c       ??_C@_15IABLJNFO@?$AA?6?$AA?6?$AA?$AA@ 0000000180052f1c     libucrt:assert.obj
 0002:00005f28       ??_C@_1CO@EAEJAADC@?$AA?$DM?$AAp?$AAr?$AAo?$AAg?$AAr?$AAa?$AAm?$AA?5?$AAn?$AAa?$AAm?$AAe?$AA?5?$AAu?$AAn?$AAk?$AAn?$AAo?$AAw?$AAn?$AA?$DO?$AA?$AA@ 0000000180052f28     libucrt:assert.obj
 0002:00005f60       __newctype                 0000000180052f60     libucrt:ctype.obj
 0002:00006260       __newclmap                 0000000180053260     libucrt:ctype.obj
 0002:000063e0       __newcumap                 00000001800533e0     libucrt:ctype.obj
 0002:00006560       _wctype                    0000000180053560     libucrt:ctype.obj
 0002:000068e0       ?large_power_data@?1??multiply_by_power_of_ten@__crt_strtox@@YA_NAEAUbig_integer@2@I@Z@4QBIB 00000001800538e0     libucrt:strtod.obj
 0002:000071f0       ?large_power_indices@?1??multiply_by_power_of_ten@__crt_strtox@@YA_NAEAUbig_integer@2@I@Z@4QBUunpack_index@?1??12@YA_N0I@Z@B 00000001800541f0     libucrt:strtod.obj
 0002:00007288       ?small_powers_of_ten@?6??multiply_by_power_of_ten@__crt_strtox@@YA_NAEAUbig_integer@2@I@Z@4QBIB 0000000180054288     libucrt:strtod.obj
 0002:00008f60       __acrt_exception_action_table 0000000180055f60     libucrt:exception_filter.obj
 0002:00009020       __acrt_signal_action_table_count 0000000180056020     libucrt:exception_filter.obj
 0002:00009028       __acrt_signal_action_first_fpe_index 0000000180056028     libucrt:exception_filter.obj
 0002:00009030       __acrt_signal_action_fpe_count 0000000180056030     libucrt:exception_filter.obj
 0002:00009038       ??_C@_1BI@BGOHAHKC@?$AAm?$AAs?$AAc?$AAo?$AAr?$AAe?$AAe?$AA?4?$AAd?$AAl?$AAl?$AA?$AA@ 0000000180056038     libucrt:exit.obj
 0002:00009050       ??_C@_0P@MIGLKIOC@CorExitProcess?$AA@ 0000000180056050     libucrt:exit.obj
 0002:00009150       ??_C@_03OEIAHPBN@INF?$AA@  0000000180056150     libucrt:cvt.obj
 0002:00009154       ??_C@_03OJHLLCGB@inf?$AA@  0000000180056154     libucrt:cvt.obj
 0002:00009158       ??_C@_03LKNCIKJB@NAN?$AA@  0000000180056158     libucrt:cvt.obj
 0002:0000915c       ??_C@_03LHCJEHON@nan?$AA@  000000018005615c     libucrt:cvt.obj
 0002:00009160       ??_C@_09OFJJIMPC@NAN?$CISNAN?$CJ?$AA@ 0000000180056160     libucrt:cvt.obj
 0002:00009170       ??_C@_09IPFBKMDL@nan?$CIsnan?$CJ?$AA@ 0000000180056170     libucrt:cvt.obj
 0002:00009180       ??_C@_08IKHNHAJ@NAN?$CIIND?$CJ?$AA@ 0000000180056180     libucrt:cvt.obj
 0002:00009190       ??_C@_08OFCDMILK@nan?$CIind?$CJ?$AA@ 0000000180056190     libucrt:cvt.obj
 0002:0000919c       ??_C@_05KLBDPFGC@e?$CL000?$AA@ 000000018005619c     libucrt:cvt.obj
 0002:000091b0       __lc_time_c                00000001800561b0     libucrt:nlsdata.obj
 0002:00009470       ??_C@_03KOEHGMDN@Sun?$AA@  0000000180056470     libucrt:nlsdata.obj
 0002:00009474       ??_C@_03PDAGKDH@Mon?$AA@   0000000180056474     libucrt:nlsdata.obj
 0002:00009478       ??_C@_03NAGEINEP@Tue?$AA@  0000000180056478     libucrt:nlsdata.obj
 0002:0000947c       ??_C@_03MHOMLAJA@Wed?$AA@  000000018005647c     libucrt:nlsdata.obj
 0002:00009480       ??_C@_03IOFIKPDN@Thu?$AA@  0000000180056480     libucrt:nlsdata.obj
 0002:00009484       ??_C@_03IDIOELNC@Fri?$AA@  0000000180056484     libucrt:nlsdata.obj
 0002:00009488       ??_C@_03FEFJNEK@Sat?$AA@   0000000180056488     libucrt:nlsdata.obj
 0002:0000948c       ??_C@_06OOPIFAJ@Sunday?$AA@ 000000018005648c     libucrt:nlsdata.obj
 0002:00009494       ??_C@_06JLEDEDGH@Monday?$AA@ 0000000180056494     libucrt:nlsdata.obj
 0002:000094a0       ??_C@_07BAAGCFCM@Tuesday?$AA@ 00000001800564a0     libucrt:nlsdata.obj
 0002:000094a8       ??_C@_09DLIGFAKA@Wednesday?$AA@ 00000001800564a8     libucrt:nlsdata.obj
 0002:000094b8       ??_C@_08HACCIKIA@Thursday?$AA@ 00000001800564b8     libucrt:nlsdata.obj
 0002:000094c4       ??_C@_06JECMNKMI@Friday?$AA@ 00000001800564c4     libucrt:nlsdata.obj
 0002:000094d0       ??_C@_08INBOOONO@Saturday?$AA@ 00000001800564d0     libucrt:nlsdata.obj
 0002:000094dc       ??_C@_03JIHJHPIE@Jan?$AA@  00000001800564dc     libucrt:nlsdata.obj
 0002:000094e0       ??_C@_03HJBDCHOM@Feb?$AA@  00000001800564e0     libucrt:nlsdata.obj
 0002:000094e4       ??_C@_03ODNJBKGA@Mar?$AA@  00000001800564e4     libucrt:nlsdata.obj
 0002:000094e8       ??_C@_03LEOLGMJP@Apr?$AA@  00000001800564e8     libucrt:nlsdata.obj
 0002:000094ec       ??_C@_03CNMDKL@May?$AA@    00000001800564ec     libucrt:nlsdata.obj
 0002:000094f0       ??_C@_03IDFGHECI@Jun?$AA@  00000001800564f0     libucrt:nlsdata.obj
 0002:000094f4       ??_C@_03LBGABGKK@Jul?$AA@  00000001800564f4     libucrt:nlsdata.obj
 0002:000094f8       ??_C@_03IFJFEIGA@Aug?$AA@  00000001800564f8     libucrt:nlsdata.obj
 0002:000094fc       ??_C@_03GGCAPAJC@Sep?$AA@  00000001800564fc     libucrt:nlsdata.obj
 0002:00009500       ??_C@_03BMAOKBAD@Oct?$AA@  0000000180056500     libucrt:nlsdata.obj
 0002:00009504       ??_C@_03JPJOFNIA@Nov?$AA@  0000000180056504     libucrt:nlsdata.obj
 0002:00009508       ??_C@_03MKABNOCG@Dec?$AA@  0000000180056508     libucrt:nlsdata.obj
 0002:00009510       ??_C@_07CGJPFGJA@January?$AA@ 0000000180056510     libucrt:nlsdata.obj
 0002:00009518       ??_C@_08GNJGEPFN@February?$AA@ 0000000180056518     libucrt:nlsdata.obj
 0002:00009524       ??_C@_05HPCKOFNC@March?$AA@ 0000000180056524     libucrt:nlsdata.obj
 0002:0000952c       ??_C@_05DMJDNLEJ@April?$AA@ 000000018005652c     libucrt:nlsdata.obj
 0002:00009534       ??_C@_04CNLMGBGM@June?$AA@ 0000000180056534     libucrt:nlsdata.obj
 0002:0000953c       ??_C@_04MIEPOIFP@July?$AA@ 000000018005653c     libucrt:nlsdata.obj
 0002:00009544       ??_C@_06LBBHFDDG@August?$AA@ 0000000180056544     libucrt:nlsdata.obj
 0002:00009550       ??_C@_09BHHEALKD@September?$AA@ 0000000180056550     libucrt:nlsdata.obj
 0002:00009560       ??_C@_07JJNFCEND@October?$AA@ 0000000180056560     libucrt:nlsdata.obj
 0002:00009568       ??_C@_08HCHEGEOA@November?$AA@ 0000000180056568     libucrt:nlsdata.obj
 0002:00009578       ??_C@_08EDHMEBNP@December?$AA@ 0000000180056578     libucrt:nlsdata.obj
 0002:00009584       ??_C@_02DEDBPAFC@AM?$AA@   0000000180056584     libucrt:nlsdata.obj
 0002:00009588       ??_C@_02CJNFDJBF@PM?$AA@   0000000180056588     libucrt:nlsdata.obj
 0002:00009590       ??_C@_08BPBNCDIB@MM?1dd?1yy?$AA@ 0000000180056590     libucrt:nlsdata.obj
 0002:000095a0       ??_C@_0BE@CKGJFCPC@dddd?0?5MMMM?5dd?0?5yyyy?$AA@ 00000001800565a0     libucrt:nlsdata.obj
 0002:000095b8       ??_C@_08JCCMCCIL@HH?3mm?3ss?$AA@ 00000001800565b8     libucrt:nlsdata.obj
 0002:000095c8       ??_C@_17MBGCMIPB@?$AAS?$AAu?$AAn?$AA?$AA@ 00000001800565c8     libucrt:nlsdata.obj
 0002:000095d0       ??_C@_17KBOMKBF@?$AAM?$AAo?$AAn?$AA?$AA@ 00000001800565d0     libucrt:nlsdata.obj
 0002:000095d8       ??_C@_17BMKGEGOJ@?$AAT?$AAu?$AAe?$AA?$AA@ 00000001800565d8     libucrt:nlsdata.obj
 0002:000095e0       ??_C@_17CJEDCEPE@?$AAW?$AAe?$AAd?$AA?$AA@ 00000001800565e0     libucrt:nlsdata.obj
 0002:000095e8       ??_C@_17PDPHAADD@?$AAT?$AAh?$AAu?$AA?$AA@ 00000001800565e8     libucrt:nlsdata.obj
 0002:000095f0       ??_C@_17HFOLPPLP@?$AAF?$AAr?$AAi?$AA?$AA@ 00000001800565f0     libucrt:nlsdata.obj
 0002:000095f8       ??_C@_17GGIBDPIH@?$AAS?$AAa?$AAt?$AA?$AA@ 00000001800565f8     libucrt:nlsdata.obj
 0002:00009600       ??_C@_1O@IHNHDHPB@?$AAS?$AAu?$AAn?$AAd?$AAa?$AAy?$AA?$AA@ 0000000180056600     libucrt:nlsdata.obj
 0002:00009610       ??_C@_1O@MMNBFLIA@?$AAM?$AAo?$AAn?$AAd?$AAa?$AAy?$AA?$AA@ 0000000180056610     libucrt:nlsdata.obj
 0002:00009620       ??_C@_1BA@ENFBFFEK@?$AAT?$AAu?$AAe?$AAs?$AAd?$AAa?$AAy?$AA?$AA@ 0000000180056620     libucrt:nlsdata.obj
 0002:00009630       ??_C@_1BE@EBOGMDOH@?$AAW?$AAe?$AAd?$AAn?$AAe?$AAs?$AAd?$AAa?$AAy?$AA?$AA@ 0000000180056630     libucrt:nlsdata.obj
 0002:00009648       ??_C@_1BC@HHMNLIHE@?$AAT?$AAh?$AAu?$AAr?$AAs?$AAd?$AAa?$AAy?$AA?$AA@ 0000000180056648     libucrt:nlsdata.obj
 0002:00009660       ??_C@_1O@PDICJHAG@?$AAF?$AAr?$AAi?$AAd?$AAa?$AAy?$AA?$AA@ 0000000180056660     libucrt:nlsdata.obj
 0002:00009670       ??_C@_1BC@ENMNNPAJ@?$AAS?$AAa?$AAt?$AAu?$AAr?$AAd?$AAa?$AAy?$AA?$AA@ 0000000180056670     libucrt:nlsdata.obj
 0002:00009688       ??_C@_17DKNBKCHM@?$AAJ?$AAa?$AAn?$AA?$AA@ 0000000180056688     libucrt:nlsdata.obj
 0002:00009690       ??_C@_17LMDJEKJN@?$AAF?$AAe?$AAb?$AA?$AA@ 0000000180056690     libucrt:nlsdata.obj
 0002:00009698       ??_C@_17CKNLEDEC@?$AAM?$AAa?$AAr?$AA?$AA@ 0000000180056698     libucrt:nlsdata.obj
 0002:000096a0       ??_C@_17LFPOIHDD@?$AAA?$AAp?$AAr?$AA?$AA@ 00000001800566a0     libucrt:nlsdata.obj
 0002:000096a8       ??_C@_17PNNKMEED@?$AAM?$AAa?$AAy?$AA?$AA@ 00000001800566a8     libucrt:nlsdata.obj
 0002:000096b0       ??_C@_17KCJGOCPB@?$AAJ?$AAu?$AAn?$AA?$AA@ 00000001800566b0     libucrt:nlsdata.obj
 0002:000096b8       ??_C@_17IJPCKHK@?$AAJ?$AAu?$AAl?$AA?$AA@ 00000001800566b8     libucrt:nlsdata.obj
 0002:000096c0       ??_C@_17ICPELBCN@?$AAA?$AAu?$AAg?$AA?$AA@ 00000001800566c0     libucrt:nlsdata.obj
 0002:000096c8       ??_C@_17HCHCOKMG@?$AAS?$AAe?$AAp?$AA?$AA@ 00000001800566c8     libucrt:nlsdata.obj
 0002:000096d0       ??_C@_17FNLKOI@?$AAO?$AAc?$AAt?$AA?$AA@ 00000001800566d0     libucrt:nlsdata.obj
 0002:000096d8       ??_C@_17BBDMLCIG@?$AAN?$AAo?$AAv?$AA?$AA@ 00000001800566d8     libucrt:nlsdata.obj
 0002:000096e0       ??_C@_17EGKACKIF@?$AAD?$AAe?$AAc?$AA?$AA@ 00000001800566e0     libucrt:nlsdata.obj
 0002:000096e8       ??_C@_1BA@EFMEIEBA@?$AAJ?$AAa?$AAn?$AAu?$AAa?$AAr?$AAy?$AA?$AA@ 00000001800566e8     libucrt:nlsdata.obj
 0002:000096f8       ??_C@_1BC@JGDDFFAM@?$AAF?$AAe?$AAb?$AAr?$AAu?$AAa?$AAr?$AAy?$AA?$AA@ 00000001800566f8     libucrt:nlsdata.obj
 0002:00009710       ??_C@_1M@IKEENEDF@?$AAM?$AAa?$AAr?$AAc?$AAh?$AA?$AA@ 0000000180056710     libucrt:nlsdata.obj
 0002:00009720       ??_C@_1M@GJNLMHFD@?$AAA?$AAp?$AAr?$AAi?$AAl?$AA?$AA@ 0000000180056720     libucrt:nlsdata.obj
 0002:00009730       ??_C@_19EPFLPGAP@?$AAJ?$AAu?$AAn?$AAe?$AA?$AA@ 0000000180056730     libucrt:nlsdata.obj
 0002:00009740       ??_C@_19BIFMLPCD@?$AAJ?$AAu?$AAl?$AAy?$AA?$AA@ 0000000180056740     libucrt:nlsdata.obj
 0002:00009750       ??_C@_1O@PAHLKOAC@?$AAA?$AAu?$AAg?$AAu?$AAs?$AAt?$AA?$AA@ 0000000180056750     libucrt:nlsdata.obj
 0002:00009760       ??_C@_1BE@DKAAMBJL@?$AAS?$AAe?$AAp?$AAt?$AAe?$AAm?$AAb?$AAe?$AAr?$AA?$AA@ 0000000180056760     libucrt:nlsdata.obj
 0002:00009778       ??_C@_1BA@EPANDLNG@?$AAO?$AAc?$AAt?$AAo?$AAb?$AAe?$AAr?$AA?$AA@ 0000000180056778     libucrt:nlsdata.obj
 0002:00009788       ??_C@_1BC@BGLIFPF@?$AAN?$AAo?$AAv?$AAe?$AAm?$AAb?$AAe?$AAr?$AA?$AA@ 0000000180056788     libucrt:nlsdata.obj
 0002:000097a0       ??_C@_1BC@FEMKIFH@?$AAD?$AAe?$AAc?$AAe?$AAm?$AAb?$AAe?$AAr?$AA?$AA@ 00000001800567a0     libucrt:nlsdata.obj
 0002:000097b4       ??_C@_15ODEHAHHF@?$AAA?$AAM?$AA?$AA@ 00000001800567b4     libucrt:nlsdata.obj
 0002:000097bc       ??_C@_15CLMNNGEL@?$AAP?$AAM?$AA?$AA@ 00000001800567bc     libucrt:nlsdata.obj
 0002:000097c8       ??_C@_1BC@IEBCMHCM@?$AAM?$AAM?$AA?1?$AAd?$AAd?$AA?1?$AAy?$AAy?$AA?$AA@ 00000001800567c8     libucrt:nlsdata.obj
 0002:000097e0       ??_C@_1CI@KNAKOEBC@?$AAd?$AAd?$AAd?$AAd?$AA?0?$AA?5?$AAM?$AAM?$AAM?$AAM?$AA?5?$AAd?$AAd?$AA?0?$AA?5?$AAy?$AAy?$AAy?$AAy?$AA?$AA@ 00000001800567e0     libucrt:nlsdata.obj
 0002:00009808       ??_C@_1BC@GDGBMEMK@?$AAH?$AAH?$AA?3?$AAm?$AAm?$AA?3?$AAs?$AAs?$AA?$AA@ 0000000180056808     libucrt:nlsdata.obj
 0002:0000981c       ??_C@_03JGHBODFD@pow?$AA@  000000018005681c     libucrt:fpexcept.obj
 0002:00009820       ??_C@_05HGHHAHAP@log10?$AA@ 0000000180056820     libucrt:fpexcept.obj
 0002:000098d0       ??_C@_1EG@CNNIPFIM@?$AAa?$AAp?$AAi?$AA?9?$AAm?$AAs?$AA?9?$AAw?$AAi?$AAn?$AA?9?$AAa?$AAp?$AAp?$AAm?$AAo?$AAd?$AAe?$AAl?$AA?9?$AAr?$AAu?$AAn?$AAt?$AAi?$AAm?$AAe?$AA?9?$AAl?$AA1?$AA?9?$AA1@ 00000001800568d0     libucrt:winapi_thunks.obj
 0002:00009920       ??_C@_1EA@JGEFHKEI@?$AAa?$AAp?$AAi?$AA?9?$AAm?$AAs?$AA?9?$AAw?$AAi?$AAn?$AA?9?$AAc?$AAo?$AAr?$AAe?$AA?9?$AAd?$AAa?$AAt?$AAe?$AAt?$AAi?$AAm?$AAe?$AA?9?$AAl?$AA1?$AA?9?$AA1?$AA?9?$AA1?$AA?$AA@ 0000000180056920     libucrt:winapi_thunks.obj
 0002:00009960       ??_C@_1DI@GCIAAENM@?$AAa?$AAp?$AAi?$AA?9?$AAm?$AAs?$AA?9?$AAw?$AAi?$AAn?$AA?9?$AAc?$AAo?$AAr?$AAe?$AA?9?$AAf?$AAi?$AAl?$AAe?$AA?9?$AAl?$AA2?$AA?9?$AA1?$AA?9?$AA1?$AA?$AA@ 0000000180056960     libucrt:winapi_thunks.obj
 0002:000099a0       ??_C@_1EI@MPIAOHOC@?$AAa?$AAp?$AAi?$AA?9?$AAm?$AAs?$AA?9?$AAw?$AAi?$AAn?$AA?9?$AAc?$AAo?$AAr?$AAe?$AA?9?$AAl?$AAo?$AAc?$AAa?$AAl?$AAi?$AAz?$AAa?$AAt?$AAi?$AAo?$AAn?$AA?9?$AAl?$AA1?$AA?9@ 00000001800569a0     libucrt:winapi_thunks.obj
 0002:000099f0       ??_C@_1FK@FPHCKFIE@?$AAa?$AAp?$AAi?$AA?9?$AAm?$AAs?$AA?9?$AAw?$AAi?$AAn?$AA?9?$AAc?$AAo?$AAr?$AAe?$AA?9?$AAl?$AAo?$AAc?$AAa?$AAl?$AAi?$AAz?$AAa?$AAt?$AAi?$AAo?$AAn?$AA?9?$AAo?$AAb?$AAs@ 00000001800569f0     libucrt:winapi_thunks.obj
 0002:00009a50       ??_C@_1EM@DILCGIIO@?$AAa?$AAp?$AAi?$AA?9?$AAm?$AAs?$AA?9?$AAw?$AAi?$AAn?$AA?9?$AAc?$AAo?$AAr?$AAe?$AA?9?$AAp?$AAr?$AAo?$AAc?$AAe?$AAs?$AAs?$AAt?$AAh?$AAr?$AAe?$AAa?$AAd?$AAs?$AA?9?$AAl@ 0000000180056a50     libucrt:winapi_thunks.obj
 0002:00009aa0       ??_C@_1DM@LNCGDDPN@?$AAa?$AAp?$AAi?$AA?9?$AAm?$AAs?$AA?9?$AAw?$AAi?$AAn?$AA?9?$AAc?$AAo?$AAr?$AAe?$AA?9?$AAs?$AAt?$AAr?$AAi?$AAn?$AAg?$AA?9?$AAl?$AA1?$AA?9?$AA1?$AA?9?$AA0?$AA?$AA@ 0000000180056aa0     libucrt:winapi_thunks.obj
 0002:00009ae0       ??_C@_1DO@FPAPJEMD@?$AAa?$AAp?$AAi?$AA?9?$AAm?$AAs?$AA?9?$AAw?$AAi?$AAn?$AA?9?$AAc?$AAo?$AAr?$AAe?$AA?9?$AAs?$AAy?$AAs?$AAi?$AAn?$AAf?$AAo?$AA?9?$AAl?$AA1?$AA?9?$AA2?$AA?9?$AA1?$AA?$AA@ 0000000180056ae0     libucrt:winapi_thunks.obj
 0002:00009b20       ??_C@_1DK@NDHNAHIO@?$AAa?$AAp?$AAi?$AA?9?$AAm?$AAs?$AA?9?$AAw?$AAi?$AAn?$AA?9?$AAc?$AAo?$AAr?$AAe?$AA?9?$AAw?$AAi?$AAn?$AAr?$AAt?$AA?9?$AAl?$AA1?$AA?9?$AA1?$AA?9?$AA0?$AA?$AA@ 0000000180056b20     libucrt:winapi_thunks.obj
 0002:00009b60       ??_C@_1DM@KGHDGBCM@?$AAa?$AAp?$AAi?$AA?9?$AAm?$AAs?$AA?9?$AAw?$AAi?$AAn?$AA?9?$AAc?$AAo?$AAr?$AAe?$AA?9?$AAx?$AAs?$AAt?$AAa?$AAt?$AAe?$AA?9?$AAl?$AA2?$AA?9?$AA1?$AA?9?$AA0?$AA?$AA@ 0000000180056b60     libucrt:winapi_thunks.obj
 0002:00009ba0       ??_C@_1EO@IJIOEFOH@?$AAa?$AAp?$AAi?$AA?9?$AAm?$AAs?$AA?9?$AAw?$AAi?$AAn?$AA?9?$AAr?$AAt?$AAc?$AAo?$AAr?$AAe?$AA?9?$AAn?$AAt?$AAu?$AAs?$AAe?$AAr?$AA?9?$AAw?$AAi?$AAn?$AAd?$AAo?$AAw?$AA?9@ 0000000180056ba0     libucrt:winapi_thunks.obj
 0002:00009bf0       ??_C@_1FG@HHGEKANL@?$AAa?$AAp?$AAi?$AA?9?$AAm?$AAs?$AA?9?$AAw?$AAi?$AAn?$AA?9?$AAs?$AAe?$AAc?$AAu?$AAr?$AAi?$AAt?$AAy?$AA?9?$AAs?$AAy?$AAs?$AAt?$AAe?$AAm?$AAf?$AAu?$AAn?$AAc?$AAt?$AAi@ 0000000180056bf0     libucrt:winapi_thunks.obj
 0002:00009c50       ??_C@_1FG@NCKKOLKO@?$AAe?$AAx?$AAt?$AA?9?$AAm?$AAs?$AA?9?$AAw?$AAi?$AAn?$AA?9?$AAk?$AAe?$AAr?$AAn?$AAe?$AAl?$AA3?$AA2?$AA?9?$AAp?$AAa?$AAc?$AAk?$AAa?$AAg?$AAe?$AA?9?$AAc?$AAu?$AAr?$AAr@ 0000000180056c50     libucrt:winapi_thunks.obj
 0002:00009cb0       ??_C@_1EG@DBIOJECG@?$AAe?$AAx?$AAt?$AA?9?$AAm?$AAs?$AA?9?$AAw?$AAi?$AAn?$AA?9?$AAn?$AAt?$AAu?$AAs?$AAe?$AAr?$AA?9?$AAd?$AAi?$AAa?$AAl?$AAo?$AAg?$AAb?$AAo?$AAx?$AA?9?$AAl?$AA1?$AA?9?$AA1@ 0000000180056cb0     libucrt:winapi_thunks.obj
 0002:00009d00       ??_C@_1EO@FIHMJCLF@?$AAe?$AAx?$AAt?$AA?9?$AAm?$AAs?$AA?9?$AAw?$AAi?$AAn?$AA?9?$AAn?$AAt?$AAu?$AAs?$AAe?$AAr?$AA?9?$AAw?$AAi?$AAn?$AAd?$AAo?$AAw?$AAs?$AAt?$AAa?$AAt?$AAi?$AAo?$AAn?$AA?9@ 0000000180056d00     libucrt:winapi_thunks.obj
 0002:00009d50       ??_C@_1O@BCCLBEOE@?$AAu?$AAs?$AAe?$AAr?$AA3?$AA2?$AA?$AA@ 0000000180056d50     libucrt:winapi_thunks.obj
 0002:00009d88       ??_C@_0BA@HNOPNCHB@GetActiveWindow?$AA@ 0000000180056d88     libucrt:winapi_thunks.obj
 0002:00009da8       ??_C@_0BD@HHGDFDBJ@GetLastActivePopup?$AA@ 0000000180056da8     libucrt:winapi_thunks.obj
 0002:00009dc8       ??_C@_0BI@DFKBFLJE@GetProcessWindowStation?$AA@ 0000000180056dc8     libucrt:winapi_thunks.obj
 0002:00009de8       ??_C@_0BK@DEKFELLI@GetUserObjectInformationW?$AA@ 0000000180056de8     libucrt:winapi_thunks.obj
 0002:00009e20       ??_C@_0BB@HBDEELFH@LocaleNameToLCID?$AA@ 0000000180056e20     libucrt:winapi_thunks.obj
 0002:00009e40       ??_C@_0M@CHKKJDAI@MessageBoxA?$AA@ 0000000180056e40     libucrt:winapi_thunks.obj
 0002:00009e58       ??_C@_0M@DLDCCGNP@MessageBoxW?$AA@ 0000000180056e58     libucrt:winapi_thunks.obj
 0002:00009eb0       __log_256_lead             0000000180056eb0     libucrt:log_256_lead_tail_table.obj
 0002:0000a6c0       __log_256_tail             00000001800576c0     libucrt:log_256_lead_tail_table.obj
 0002:0000aed0       __two_to_jby64_head_table  0000000180057ed0     libucrt:two_to_jby64_head_tail_table.obj
 0002:0000b0d0       __two_to_jby64_tail_table  00000001800580d0     libucrt:two_to_jby64_head_tail_table.obj
 0002:0000b2d0       ??_C@_04MBFDLNIM@powf?$AA@ 00000001800582d0     libucrt:pow_special.obj
 0002:0000b2e0       __two_to_jby64_table       00000001800582e0     libucrt:two_to_jby64_table.obj
 0002:0000b4e0       __log_F_inv_qword          00000001800584e0     libucrt:log_f_inv_qword_table.obj
 0002:0000bd10       ??_C@_01GBGANLPD@0?$AA@    0000000180058d10     libucrt:cfout.obj
 0002:0000bd14       ??_C@_05DNEBIAHO@1?$CDINF?$AA@ 0000000180058d14     libucrt:cfout.obj
 0002:0000bd1c       ??_C@_06IMKFLFPG@1?$CDQNAN?$AA@ 0000000180058d1c     libucrt:cfout.obj
 0002:0000bd24       ??_C@_06PGGFOGJG@1?$CDSNAN?$AA@ 0000000180058d24     libucrt:cfout.obj
 0002:0000bd2c       ??_C@_05PHHOCPM@1?$CDIND?$AA@ 0000000180058d2c     libucrt:cfout.obj
 0002:0000dc20       __log10_256_lead           000000018005ac20     libucrt:log10_256_lead_tail_table.obj
 0002:0000e430       __log10_256_tail           000000018005b430     libucrt:log10_256_lead_tail_table.obj
 0002:0000ec38       ??_C@_1BA@BALFACEM@?$AAC?$AAO?$AAN?$AAO?$AAU?$AAT?$AA$?$AA?$AA@ 000000018005bc38     libucrt:initcon.obj
 0002:0000ec48       ??_C@_1BK@DBDEIDLH@?$AAK?$AAE?$AAR?$AAN?$AAE?$AAL?$AA3?$AA2?$AA?4?$AAD?$AAL?$AAL?$AA?$AA@ 000000018005bc48     DelayImp:delayhlp.obj
 0002:0000ec68       __pfnDliFailureHook2       000000018005bc68     DelayImp:delayhk1.obj
 0002:0000ec70       _load_config_used          000000018005bc70     LIBCMT:loadcfg.obj
 0002:0000ed04       ??_C@_00CNPNBAHC@?$AA@     000000018005bd04     init.obj
 0002:0000ed08       ??_C@_0BA@JFNIOLAK@string?5too?5long?$AA@ 000000018005bd08     init.obj
 0002:0000ed18       ??_C@_0P@PAFBMNKD@?4?4?2src?2init?4cc?$AA@ 000000018005bd18     init.obj
 0002:0000ed28       ??_C@_06KNJAMCEI@opencv?$AA@ 000000018005bd28     init.obj
 0002:0000ed30       ??_C@_0BI@CFPLBAOH@invalid?5string?5position?$AA@ 000000018005bd30     init.obj
 0002:0000ed60       __pfnDliNotifyHook2        000000018005bd60     win_delay_load_hook.obj
 0002:0000ed68       ??_C@_1DG@OKCGPKIB@?$AAp?$AAe?$AAr?$AAs?$AAi?$AAs?$AAt?$AAe?$AAn?$AAt?$AA?$CI?$AA?$CJ?$AA?4?$AAI?$AAs?$AAN?$AAe?$AAa?$AAr?$AAD?$AAe?$AAa?$AAt?$AAh?$AA?$CI?$AA?$CJ?$AA?$AA@ 000000018005bd68     Matrix.obj
 0002:0000eda0       ??_C@_1CO@EGNPJLKI@?$AAp?$AAe?$AAr?$AAs?$AAi?$AAs?$AAt?$AAe?$AAn?$AAt?$AA?$CI?$AA?$CJ?$AA?4?$AAI?$AAs?$AAE?$AAm?$AAp?$AAt?$AAy?$AA?$CI?$AA?$CJ?$AA?$AA@ 000000018005bda0     Matrix.obj
 0002:0000edd0       ??_C@_1DA@FBGAEOIO@?$AA?$CB?$AAp?$AAe?$AAr?$AAs?$AAi?$AAs?$AAt?$AAe?$AAn?$AAt?$AA?$CI?$AA?$CJ?$AA?4?$AAI?$AAs?$AAE?$AAm?$AAp?$AAt?$AAy?$AA?$CI?$AA?$CJ?$AA?$AA@ 000000018005bdd0     Matrix.obj
 0002:0000ee00       ??_C@_1CO@JCKLEFMA@?$AA?$CB?$AAp?$AAe?$AAr?$AAs?$AAi?$AAs?$AAt?$AAe?$AAn?$AAt?$AA?$CI?$AA?$CJ?$AA?4?$AAI?$AAs?$AAW?$AAe?$AAa?$AAk?$AA?$CI?$AA?$CJ?$AA?$AA@ 000000018005be00     Matrix.obj
 0002:0000ee30       ??_C@_1BE@GMLLOIPJ@?$AAr?$AAe?$AAf?$AAs?$AA_?$AA?5?$AA?$DO?$AA?5?$AA0?$AA?$AA@ 000000018005be30     Matrix.obj
 0002:0000ee48       ??_C@_1CC@GBFLAAPF@?$AAw?$AAr?$AAa?$AAp?$AA?9?$AA?$DO?$AAr?$AAe?$AAf?$AAs?$AA_?$AA?5?$AA?$DN?$AA?$DN?$AA?5?$AA0?$AA?$AA@ 000000018005be48     Matrix.obj
 0002:0000ee70       ??_C@_1HG@GDJGJPHI@?$AAC?$AA?3?$AA?2?$AAU?$AAs?$AAe?$AAr?$AAs?$AA?2?$AAj?$AAa?$AAm?$AAe?$AAs?$AA?2?$AAD?$AAe?$AAs?$AAk?$AAt?$AAo?$AAp?$AA?2?$AAW?$AAe?$AAb?$AA?2?$AAF?$AAa?$AAc?$AAe?$AA_@ 000000018005be70     Matrix.obj
 0002:0000eef0       ??_C@_1FM@LOELJOFK@?$AAs?$AAi?$AAz?$AAe?$AA?5?$AA?$DM?$AA?$DN?$AA?5?$AAi?$AAm?$AAp?$AA?3?$AA?3?$AAk?$AAM?$AAa?$AAx?$AAL?$AAe?$AAn?$AAg?$AAt?$AAh?$AA?5?$AA?$CG?$AA?$CG?$AA?5?$AA?$CC?$AAt?$AAo?$AAo?$AA?5@ 000000018005bef0     Matrix.obj
 0002:0000ef50       ??_C@_1BO@OPFMAOCA@?$AAl?$AAe?$AAn?$AA?5?$AA?$DM?$AA?$DN?$AA?5?$AAI?$AAN?$AAT?$AA_?$AAM?$AAA?$AAX?$AA?$AA@ 000000018005bf50     Matrix.obj
 0002:0000ef70       ??_C@_1BE@CKDJNAPC@?$AAs?$AAt?$AAr?$AA_?$AA?5?$AA?$CB?$AA?$DN?$AA?5?$AA0?$AA?$AA@ 000000018005bf70     Matrix.obj
 0002:0000ef90       ??_C@_1IO@EFNCDBBG@?$AAc?$AA?3?$AA?2?$AAu?$AAs?$AAe?$AAr?$AAs?$AA?2?$AAj?$AAa?$AAm?$AAe?$AAs?$AA?2?$AAd?$AAe?$AAs?$AAk?$AAt?$AAo?$AAp?$AA?2?$AAw?$AAe?$AAb?$AA?2?$AAf?$AAa?$AAc?$AAe?$AA_@ 000000018005bf90     Matrix.obj
 0002:0000f020       ??_C@_1EC@MGGLMBLC@?$AAo?$AAb?$AAj?$AAe?$AAc?$AAt?$AA?9?$AA?$DO?$AAI?$AAn?$AAt?$AAe?$AAr?$AAn?$AAa?$AAl?$AAF?$AAi?$AAe?$AAl?$AAd?$AAC?$AAo?$AAu?$AAn?$AAt?$AA?$CI?$AA?$CJ?$AA?5?$AA?$DO?$AA?5?$AA0@ 000000018005c020     Matrix.obj
 0002:0000f068       ??_C@_1DI@ELDBKNAK@?$AAw?$AAr?$AAa?$AAp?$AA?9?$AA?$DO?$AAh?$AAa?$AAn?$AAd?$AAl?$AAe?$AA_?$AA?4?$AAI?$AAs?$AAN?$AAe?$AAa?$AAr?$AAD?$AAe?$AAa?$AAt?$AAh?$AA?$CI?$AA?$CJ?$AA?$AA@ 000000018005c068     Matrix.obj
 0002:0000f0a0       ??_C@_06OJGDMFIO@Matrix?$AA@ 000000018005c0a0     Matrix.obj
 0002:0000f0a8       ??_C@_03DMHICLNI@row?$AA@  000000018005c0a8     Matrix.obj
 0002:0000f0ac       ??_C@_03HNOLNALI@col?$AA@  000000018005c0ac     Matrix.obj
 0002:0000f0b0       ??_C@_08LPHMKNPI@pixelRow?$AA@ 000000018005c0b0     Matrix.obj
 0002:0000f0c0       ??_C@_08POOPFGJI@pixelCol?$AA@ 000000018005c0c0     Matrix.obj
 0002:0000f0cc       ??_C@_05LBJMNBOG@empty?$AA@ 000000018005c0cc     Matrix.obj
 0002:0000f0d4       ??_C@_03HNAFFKGA@get?$AA@  000000018005c0d4     Matrix.obj
 0002:0000f0d8       ??_C@_03KCHOJKKI@set?$AA@  000000018005c0d8     Matrix.obj
 0002:0000f0dc       ??_C@_03KMONJGDG@put?$AA@  000000018005c0dc     Matrix.obj
 0002:0000f0e0       ??_C@_0L@BECHNFGG@brightness?$AA@ 000000018005c0e0     Matrix.obj
 0002:0000f0f0       ??_C@_09MMDNNKKJ@normalize?$AA@ 000000018005c0f0     Matrix.obj
 0002:0000f0fc       ??_C@_04PLLMIPEP@norm?$AA@ 000000018005c0fc     Matrix.obj
 0002:0000f108       ??_C@_07IDJFBCE@getData?$AA@ 000000018005c108     Matrix.obj
 0002:0000f110       ??_C@_05PIOCODLC@pixel?$AA@ 000000018005c110     Matrix.obj
 0002:0000f118       ??_C@_05IGKADHGO@width?$AA@ 000000018005c118     Matrix.obj
 0002:0000f120       ??_C@_06LNLHEAAG@height?$AA@ 000000018005c120     Matrix.obj
 0002:0000f128       ??_C@_04IAGNFIBA@size?$AA@ 000000018005c128     Matrix.obj
 0002:0000f130       ??_C@_05KFBJCHHJ@clone?$AA@ 000000018005c130     Matrix.obj
 0002:0000f138       ??_C@_04EKMNJIID@crop?$AA@ 000000018005c138     Matrix.obj
 0002:0000f140       ??_C@_08GOCDALDA@toBuffer?$AA@ 000000018005c140     Matrix.obj
 0002:0000f150       ??_C@_0O@NHINPDJJ@toBufferAsync?$AA@ 000000018005c150     Matrix.obj
 0002:0000f160       ??_C@_07IANGJLLC@ellipse?$AA@ 000000018005c160     Matrix.obj
 0002:0000f168       ??_C@_09KEGCCCGI@rectangle?$AA@ 000000018005c168     Matrix.obj
 0002:0000f174       ??_C@_04HJPCFDOP@line?$AA@ 000000018005c174     Matrix.obj
 0002:0000f180       ??_C@_08COGNJJDK@fillPoly?$AA@ 000000018005c180     Matrix.obj
 0002:0000f18c       ??_C@_04EMMDIJJL@save?$AA@ 000000018005c18c     Matrix.obj
 0002:0000f198       ??_C@_09JJHKLFCO@saveAsync?$AA@ 000000018005c198     Matrix.obj
 0002:0000f1a4       ??_C@_06PIONCPJI@resize?$AA@ 000000018005c1a4     Matrix.obj
 0002:0000f1ac       ??_C@_06CEHMNFAL@rotate?$AA@ 000000018005c1ac     Matrix.obj
 0002:0000f1b8       ??_C@_0L@DJAPMNMI@warpAffine?$AA@ 000000018005c1b8     Matrix.obj
 0002:0000f1c4       ??_C@_06EHFKDFKL@copyTo?$AA@ 000000018005c1c4     Matrix.obj
 0002:0000f1d0       ??_C@_09FJAANKJO@convertTo?$AA@ 000000018005c1d0     Matrix.obj
 0002:0000f1e0       ??_C@_07GNGBKJBE@pyrDown?$AA@ 000000018005c1e0     Matrix.obj
 0002:0000f1e8       ??_C@_05DFKDCMJJ@pyrUp?$AA@ 000000018005c1e8     Matrix.obj
 0002:0000f1f0       ??_C@_08PAMBCCJ@channels?$AA@ 000000018005c1f0     Matrix.obj
 0002:0000f200       ??_C@_0BB@MHAJJHCC@convertGrayscale?$AA@ 000000018005c200     Matrix.obj
 0002:0000f218       ??_C@_0BA@NGCOGBBM@convertHSVscale?$AA@ 000000018005c218     Matrix.obj
 0002:0000f228       ??_C@_0N@KHLCBKJA@gaussianBlur?$AA@ 000000018005c228     Matrix.obj
 0002:0000f238       ??_C@_0L@PFBCOKAG@medianBlur?$AA@ 000000018005c238     Matrix.obj
 0002:0000f248       ??_C@_0BA@DHCBAHLD@bilateralFilter?$AA@ 000000018005c248     Matrix.obj
 0002:0000f258       ??_C@_05MOJCNDEH@sobel?$AA@ 000000018005c258     Matrix.obj
 0002:0000f260       ??_C@_04COAGEIMF@copy?$AA@ 000000018005c260     Matrix.obj
 0002:0000f268       ??_C@_04DGGGELON@flip?$AA@ 000000018005c268     Matrix.obj
 0002:0000f270       ??_C@_03OIDJBEAH@roi?$AA@  000000018005c270     Matrix.obj
 0002:0000f274       ??_C@_03PLHFFLIH@ptr?$AA@  000000018005c274     Matrix.obj
 0002:0000f278       ??_C@_07IDKDJPKD@absDiff?$AA@ 000000018005c278     Matrix.obj
 0002:0000f280       ??_C@_0M@IIKJEANM@addWeighted?$AA@ 000000018005c280     Matrix.obj
 0002:0000f290       ??_C@_0L@CIJJHKEA@bitwiseXor?$AA@ 000000018005c290     Matrix.obj
 0002:0000f2a0       ??_C@_0L@LLBNFIF@bitwiseNot?$AA@ 000000018005c2a0     Matrix.obj
 0002:0000f2b0       ??_C@_0L@BINCLNLF@bitwiseAnd?$AA@ 000000018005c2b0     Matrix.obj
 0002:0000f2c0       ??_C@_0N@EMDMDNML@countNonZero?$AA@ 000000018005c2c0     Matrix.obj
 0002:0000f2d0       ??_C@_07MFGGCHMA@moments?$AA@ 000000018005c2d0     Matrix.obj
 0002:0000f2d8       ??_C@_05DECNJPA@canny?$AA@ 000000018005c2d8     Matrix.obj
 0002:0000f2e0       ??_C@_06KGLLEDKB@dilate?$AA@ 000000018005c2e0     Matrix.obj
 0002:0000f2e8       ??_C@_05KBAHGIFB@erode?$AA@ 000000018005c2e8     Matrix.obj
 0002:0000f2f0       ??_C@_0N@IAMCCANA@findContours?$AA@ 000000018005c2f0     Matrix.obj
 0002:0000f300       ??_C@_0M@GLOBMDDK@drawContour?$AA@ 000000018005c300     Matrix.obj
 0002:0000f310       ??_C@_0BA@NGCMCAJ@drawAllContours?$AA@ 000000018005c310     Matrix.obj
 0002:0000f320       ??_C@_0BE@HDDDHMDD@goodFeaturesToTrack?$AA@ 000000018005c320     Matrix.obj
 0002:0000f338       ??_C@_0M@CIJCFMPI@houghLinesP?$AA@ 000000018005c338     Matrix.obj
 0002:0000f348       ??_C@_0N@LPPCIHBJ@houghCircles?$AA@ 000000018005c348     Matrix.obj
 0002:0000f358       ??_C@_07OFAPJJMI@inRange?$AA@ 000000018005c358     Matrix.obj
 0002:0000f360       ??_C@_09GGDJKLGI@adjustROI?$AA@ 000000018005c360     Matrix.obj
 0002:0000f370       ??_C@_09NNMJJDHJ@locateROI?$AA@ 000000018005c370     Matrix.obj
 0002:0000f380       ??_C@_09DEHKFMCJ@threshold?$AA@ 000000018005c380     Matrix.obj
 0002:0000f390       ??_C@_0BC@PGOGMCIO@adaptiveThreshold?$AA@ 000000018005c390     Matrix.obj
 0002:0000f3a8       ??_C@_0L@HLLMAINH@meanStdDev?$AA@ 000000018005c3a8     Matrix.obj
 0002:0000f3b8       ??_C@_08LDNMHNJD@cvtColor?$AA@ 000000018005c3b8     Matrix.obj
 0002:0000f3c4       ??_C@_05EHPMMFBK@split?$AA@ 000000018005c3c4     Matrix.obj
 0002:0000f3cc       ??_C@_05DPKBJALF@merge?$AA@ 000000018005c3cc     Matrix.obj
 0002:0000f3d8       ??_C@_0N@LLHDJFAC@equalizeHist?$AA@ 000000018005c3d8     Matrix.obj
 0002:0000f3e8       ??_C@_09IEJDFBNG@floodFill?$AA@ 000000018005c3e8     Matrix.obj
 0002:0000f3f8       ??_C@_0O@CIJALPKC@matchTemplate?$AA@ 000000018005c3f8     Matrix.obj
 0002:0000f408       ??_C@_0BG@BKAJOJAL@matchTemplateByMatrix?$AA@ 000000018005c408     Matrix.obj
 0002:0000f420       ??_C@_0BA@NIMJJEOH@templateMatches?$AA@ 000000018005c420     Matrix.obj
 0002:0000f430       ??_C@_09POICKNIL@minMaxLoc?$AA@ 000000018005c430     Matrix.obj
 0002:0000f440       ??_C@_08FJPDKMKL@pushBack?$AA@ 000000018005c440     Matrix.obj
 0002:0000f450       ??_C@_07MILEOKHN@putText?$AA@ 000000018005c450     Matrix.obj
 0002:0000f458       ??_C@_0BI@DIMPALDO@getPerspectiveTransform?$AA@ 000000018005c458     Matrix.obj
 0002:0000f470       ??_C@_0BA@KELFFKMC@warpPerspective?$AA@ 000000018005c470     Matrix.obj
 0002:0000f480       ??_C@_05DEFFEDMP@Zeros?$AA@ 000000018005c480     Matrix.obj
 0002:0000f488       ??_C@_04HCIJGELE@Ones?$AA@ 000000018005c488     Matrix.obj
 0002:0000f490       ??_C@_03DBNLEENB@Eye?$AA@  000000018005c490     Matrix.obj
 0002:0000f498       ??_C@_0BE@DKGIBNNG@getRotationMatrix2D?$AA@ 000000018005c498     Matrix.obj
 0002:0000f4b0       ??_C@_0N@DLFKIGOO@copyWithMask?$AA@ 000000018005c4b0     Matrix.obj
 0002:0000f4c0       ??_C@_0M@NPIPPDNH@setWithMask?$AA@ 000000018005c4c0     Matrix.obj
 0002:0000f4d0       ??_C@_0N@IBIBODKF@meanWithMask?$AA@ 000000018005c4d0     Matrix.obj
 0002:0000f4e0       ??_C@_04OGOMFLBB@mean?$AA@ 000000018005c4e0     Matrix.obj
 0002:0000f4e8       ??_C@_05CLOOKOFG@shift?$AA@ 000000018005c4e8     Matrix.obj
 0002:0000f4f0       ??_C@_07EGDDPBAO@reshape?$AA@ 000000018005c4f0     Matrix.obj
 0002:0000f4f8       ??_C@_07EOGFDLKI@release?$AA@ 000000018005c4f8     Matrix.obj
 0002:0000f500       ??_C@_08LJLIHDOM@subtract?$AA@ 000000018005c500     Matrix.obj
 0002:0000f510       ??_C@_0BP@MKEGDBMG@Cannot?5instantiate?5without?5new?$AA@ 000000018005c510     Matrix.obj
 0002:0000f530       ??_C@_0CA@CLJJNNEF@Only?51?93?5channels?5are?5supported?$AA@ 000000018005c530     Matrix.obj
 0002:0000f550       ??_C@_0BM@BOFOKECO@Invalid?5number?5of?5arguments?$AA@ 000000018005c550     Matrix.obj
 0002:0000f570       ??_C@_0N@ECACPLDM@Not?5a?5buffer?$AA@ 000000018005c570     Matrix.obj
 0002:0000f580       ??_C@_06LBMCOACO@Buffer?$AA@ 000000018005c580     Matrix.obj
 0002:0000f588       ??_C@_0CB@HGOPCKAE@those?5channels?5are?5not?5supported@ 000000018005c588     Matrix.obj
 0002:0000f5b0       ??_C@_0CA@NNNEHMFP@Insufficient?5or?5wrong?5arguments?$AA@ 000000018005c5b0     Matrix.obj
 0002:0000f5d0       ??_C@_0JH@KMADPBBA@type?5value?5must?5be?5NORM_INF?$DN1?0?5N@ 000000018005c5d0     Matrix.obj
 0002:0000f668       ??_C@_0BN@DPPBMFEA@min?5is?5required?5?$CIargument?51?$CJ?$AA@ 000000018005c668     Matrix.obj
 0002:0000f688       ??_C@_0BN@NCDFGFGD@max?5is?5required?5?$CIargument?52?$CJ?$AA@ 000000018005c688     Matrix.obj
 0002:0000f6a8       ??_C@_04GNPKBLNA@?4jpg?$AA@ 000000018005c6a8     Matrix.obj
 0002:0000f6b0       ??_C@_03MDPCKCMI@ext?$AA@  000000018005c6b0     Matrix.obj
 0002:0000f6b8       ??_C@_0M@OEDMDMIO@jpegQuality?$AA@ 000000018005c6b8     Matrix.obj
 0002:0000f6c8       ??_C@_0P@LADJAJJC@pngCompression?$AA@ 000000018005c6c8     Matrix.obj
 0002:0000f6d8       ??_C@_0BA@KEENCHNI@nan?3AsyncWorker?$AA@ 000000018005c6d8     Matrix.obj
 0002:0000f6e8       ??_C@_0BO@EOGBJBPM@Argument?50?5must?5be?5a?5function?$AA@ 000000018005c6e8     Matrix.obj
 0002:0000f708       ??_C@_06BBLOAEEI@center?$AA@ 000000018005c708     Matrix.obj
 0002:0000f710       ??_C@_01FJMABOPO@x?$AA@    000000018005c710     Matrix.obj
 0002:0000f714       ??_C@_01EANLCPLP@y?$AA@    000000018005c714     Matrix.obj
 0002:0000f718       ??_C@_04HJAKPNJC@axes?$AA@ 000000018005c718     Matrix.obj
 0002:0000f720       ??_C@_09GLPKLBIH@thickness?$AA@ 000000018005c720     Matrix.obj
 0002:0000f72c       ??_C@_05FECBCJJD@angle?$AA@ 000000018005c72c     Matrix.obj
 0002:0000f738       ??_C@_0L@KMOANKMI@startAngle?$AA@ 000000018005c738     Matrix.obj
 0002:0000f748       ??_C@_08KICKIHDM@endAngle?$AA@ 000000018005c748     Matrix.obj
 0002:0000f758       ??_C@_08HIGKPKIP@lineType?$AA@ 000000018005c758     Matrix.obj
 0002:0000f764       ??_C@_05PEENBMOG@color?$AA@ 000000018005c764     Matrix.obj
 0002:0000f770       ??_C@_0BC@INONGHIP@filename?5required?$AA@ 000000018005c770     Matrix.obj
 0002:0000f788       ??_C@_0BO@NBLLBCGC@Argument?51?5must?5be?5a?5function?$AA@ 000000018005c788     Matrix.obj
 0002:0000f7a8       ??_C@_0BG@HDICIIB@Image?5is?5no?53?9channel?$AA@ 000000018005c7a8     Matrix.obj
 0002:0000f7c0       ??_C@_0CK@FLMCPMFD@?8ksize?8?5argument?5must?5be?5a?52?5dou@ 000000018005c7c0     Matrix.obj
 0002:0000f7f0       ??_C@_0DA@JELNOFAA@?8ksize?8?5argument?5must?5be?5a?5posit@ 000000018005c7f0     Matrix.obj
 0002:0000f820       ??_C@_0CL@IINMOJEI@BilateralFilter?5takes?50?0?53?0?5or?54@ 000000018005c820     Matrix.obj
 0002:0000f850       ??_C@_0HA@PMMHMFH@Need?5more?5arguments?3?5sobel?$CIddept@ 000000018005c850     Matrix.obj
 0002:0000f8c0       ??_C@_0GB@MHOFLMCE@Flip?5requires?5an?5integer?5flipCod@ 000000018005c8c0     Matrix.obj
 0002:0000f928       ??_C@_0BP@GILKPLEM@ROI?5requires?5x?0y?0w?0h?5arguments?$AA@ 000000018005c928     Matrix.obj
 0002:0000f948       ??_C@_03OMNKNMFO@m00?$AA@  000000018005c948     Matrix.obj
 0002:0000f94c       ??_C@_03ONBILGGJ@m10?$AA@  000000018005c94c     Matrix.obj
 0002:0000f950       ??_C@_03PFMBONBP@m01?$AA@  000000018005c950     Matrix.obj
 0002:0000f954       ??_C@_03OPFOAIDA@m20?$AA@  000000018005c954     Matrix.obj
 0002:0000f958       ??_C@_03PEADIHCI@m11?$AA@  000000018005c958     Matrix.obj
 0002:0000f95c       ??_C@_03NOOMLONM@m02?$AA@  000000018005c95c     Matrix.obj
 0002:0000f960       ??_C@_03OOJMGCAH@m30?$AA@  000000018005c960     Matrix.obj
 0002:0000f964       ??_C@_03PGEFDJHB@m21?$AA@  000000018005c964     Matrix.obj
 0002:0000f968       ??_C@_03NPCONEOL@m12?$AA@  000000018005c968     Matrix.obj
 0002:0000f96c       ??_C@_03MHPHIPJN@m03?$AA@  000000018005c96c     Matrix.obj
 0002:0000f970       ??_C@_04PMDHOMLN@mu20?$AA@ 000000018005c970     Matrix.obj
 0002:0000f978       ??_C@_04OHGKGDKF@mu11?$AA@ 000000018005c978     Matrix.obj
 0002:0000f980       ??_C@_04MNIFFKFB@mu02?$AA@ 000000018005c980     Matrix.obj
 0002:0000f988       ??_C@_04PNPFIGIK@mu30?$AA@ 000000018005c988     Matrix.obj
 0002:0000f990       ??_C@_04OFCMNNPM@mu21?$AA@ 000000018005c990     Matrix.obj
 0002:0000f998       ??_C@_04MMEHDAGG@mu12?$AA@ 000000018005c998     Matrix.obj
 0002:0000f9a0       ??_C@_04NEJOGLBA@mu03?$AA@ 000000018005c9a0     Matrix.obj
 0002:0000f9a8       ??_C@_04LLJHJGGN@nu20?$AA@ 000000018005c9a8     Matrix.obj
 0002:0000f9b0       ??_C@_04KAMKBJHF@nu11?$AA@ 000000018005c9b0     Matrix.obj
 0002:0000f9b8       ??_C@_04IKCFCAIB@nu02?$AA@ 000000018005c9b8     Matrix.obj
 0002:0000f9c0       ??_C@_04LKFFPMFK@nu30?$AA@ 000000018005c9c0     Matrix.obj
 0002:0000f9c8       ??_C@_04KCIMKHCM@nu21?$AA@ 000000018005c9c8     Matrix.obj
 0002:0000f9d0       ??_C@_04ILOHEKLG@nu12?$AA@ 000000018005c9d0     Matrix.obj
 0002:0000f9d8       ??_C@_04JDDOBBMA@nu03?$AA@ 000000018005c9d8     Matrix.obj
 0002:0000f9e0       ??_C@_05KKCIMGE@error?$AA@ 000000018005c9e0     Matrix.obj
 0002:0000f9e8       ??_C@_06JCOMDNII@Binary?$AA@ 000000018005c9e8     Matrix.obj
 0002:0000f9f0       ??_C@_0BA@FAKFMDCB@Binary?5Inverted?$AA@ 000000018005c9f0     Matrix.obj
 0002:0000fa00       ??_C@_0BE@KIDJPDK@Threshold?5Truncated?$AA@ 000000018005ca00     Matrix.obj
 0002:0000fa18       ??_C@_0BC@LKOAENJB@Threshold?5to?5Zero?$AA@ 000000018005ca18     Matrix.obj
 0002:0000fa30       ??_C@_0BL@NAMJELLE@Threshold?5to?5Zero?5Inverted?$AA@ 000000018005ca30     Matrix.obj
 0002:0000fa50       ??_C@_0KA@NOKOGNF@?$CC?5is?5no?5supported?5binarization?5t@ 000000018005ca50     Matrix.obj
 0002:0000faf0       ??_C@_06MIPDDPP@Simple?$AA@ 000000018005caf0     Matrix.obj
 0002:0000faf8       ??_C@_04DNMKLAL@Otsu?$AA@  000000018005caf8     Matrix.obj
 0002:0000fb00       ??_C@_0EJ@BCEBGCLE@?$CC?5is?5no?5supported?5threshold?5algo@ 000000018005cb00     Matrix.obj
 0002:0000fb4c       ??_C@_06MACPMDIC@stddev?$AA@ 000000018005cb4c     Matrix.obj
 0002:0000fb58       ??_C@_0M@KEPBGKOF@CV_BGR2GRAY?$AA@ 000000018005cb58     Matrix.obj
 0002:0000fb68       ??_C@_0M@GIGKPEHG@CV_GRAY2BGR?$AA@ 000000018005cb68     Matrix.obj
 0002:0000fb78       ??_C@_0L@JPAAACIE@CV_BGR2XYZ?$AA@ 000000018005cb78     Matrix.obj
 0002:0000fb88       ??_C@_0L@EIAMPJBA@CV_XYZ2BGR?$AA@ 000000018005cb88     Matrix.obj
 0002:0000fb98       ??_C@_0N@BAHMECII@CV_BGR2YCrCb?$AA@ 000000018005cb98     Matrix.obj
 0002:0000fba8       ??_C@_0N@KDNMIIMN@CV_YCrCb2BGR?$AA@ 000000018005cba8     Matrix.obj
 0002:0000fbb8       ??_C@_0L@GODLJPMB@CV_BGR2HSV?$AA@ 000000018005cbb8     Matrix.obj
 0002:0000fbc8       ??_C@_0L@OHAFFHAO@CV_HSV2BGR?$AA@ 000000018005cbc8     Matrix.obj
 0002:0000fbd8       ??_C@_0L@EDGIPMJ@CV_BGR2HLS?$AA@ 000000018005cbd8     Matrix.obj
 0002:0000fbe8       ??_C@_0L@CGFOCKJK@CV_HLS2BGR?$AA@ 000000018005cbe8     Matrix.obj
 0002:0000fbf8       ??_C@_0L@HNJMMKJP@CV_BGR2Lab?$AA@ 000000018005cbf8     Matrix.obj
 0002:0000fc08       ??_C@_0L@MDFIKIDE@CV_Lab2BGR?$AA@ 000000018005cc08     Matrix.obj
 0002:0000fc18       ??_C@_0L@EIBNBGGG@CV_BGR2Luv?$AA@ 000000018005cc18     Matrix.obj
 0002:0000fc28       ??_C@_0L@MIIOFAGE@CV_Luv2BGR?$AA@ 000000018005cc28     Matrix.obj
 0002:0000fc38       ??_C@_0P@GLCLJCPH@CV_BayerBG2BGR?$AA@ 000000018005cc38     Matrix.obj
 0002:0000fc48       ??_C@_0P@GJNOCMOD@CV_BayerGB2BGR?$AA@ 000000018005cc48     Matrix.obj
 0002:0000fc58       ??_C@_0P@MPFAODJ@CV_BayerRG2BGR?$AA@ 000000018005cc58     Matrix.obj
 0002:0000fc68       ??_C@_0P@GKAICOHI@CV_BayerGR2BGR?$AA@ 000000018005cc68     Matrix.obj
 0002:0000fc78       ??_C@_0L@GEBOPEMD@CV_BGR2RGB?$AA@ 000000018005cc78     Matrix.obj
 0002:0000fc88       ??_C@_0BP@OEHNPNH@Conversion?5code?5is?5unsupported?$AA@ 000000018005cc88     Matrix.obj
 0002:0000fca8       ??_C@_0BO@HJHBFJCP@The?5argument?5must?5be?5an?5array?$AA@ 000000018005cca8     Matrix.obj
 0002:0000fcc8       ??_C@_06EDEBOPHP@upDiff?$AA@ 000000018005ccc8     Matrix.obj
 0002:0000fcd0       ??_C@_06EDIHIGCM@loDiff?$AA@ 000000018005ccd0     Matrix.obj
 0002:0000fcd8       ??_C@_04LHPFHFPH@rect?$AA@ 000000018005ccd8     Matrix.obj
 0002:0000fce0       ??_C@_08IBEPLGJB@newColor?$AA@ 000000018005cce0     Matrix.obj
 0002:0000fcf0       ??_C@_09KINFKBOK@seedPoint?$AA@ 000000018005ccf0     Matrix.obj
 0002:0000fd00       ??_C@_0M@MMCNCGAE@probability?$AA@ 000000018005cd00     Matrix.obj
 0002:0000fd0c       ??_C@_06OPDAEPNI@minVal?$AA@ 000000018005cd0c     Matrix.obj
 0002:0000fd14       ??_C@_06OMMDKPJH@maxVal?$AA@ 000000018005cd14     Matrix.obj
 0002:0000fd1c       ??_C@_06FNJCMJOG@minLoc?$AA@ 000000018005cd1c     Matrix.obj
 0002:0000fd24       ??_C@_06FOGBCJKJ@maxLoc?$AA@ 000000018005cd24     Matrix.obj
 0002:0000fd30       ??_C@_0P@NBJMCDDE@HERSEY_SIMPLEX?$AA@ 000000018005cd30     Matrix.obj
 0002:0000fd40       ??_C@_0N@GFFBADCN@HERSEY_PLAIN?$AA@ 000000018005cd40     Matrix.obj
 0002:0000fd50       ??_C@_0O@OGJLJAEF@HERSEY_DUPLEX?$AA@ 000000018005cd50     Matrix.obj
 0002:0000fd60       ??_C@_0P@MOPHCHCF@HERSEY_COMPLEX?$AA@ 000000018005cd60     Matrix.obj
 0002:0000fd70       ??_C@_0P@CFBBKAAP@HERSEY_TRIPLEX?$AA@ 000000018005cd70     Matrix.obj
 0002:0000fd80       ??_C@_0BF@FNAAMGMP@HERSEY_COMPLEX_SMALL?$AA@ 000000018005cd80     Matrix.obj
 0002:0000fd98       ??_C@_0BG@NLAECADK@HERSEY_SCRIPT_SIMPLEX?$AA@ 000000018005cd98     Matrix.obj
 0002:0000fdb0       ??_C@_0BG@MEGPCECL@HERSEY_SCRIPT_COMPLEX?$AA@ 000000018005cdb0     Matrix.obj
 0002:0000fdc8       ??_C@_0BD@OLBABOEK@vector?$DMT?$DO?5too?5long?$AA@ 000000018005cdc8     Matrix.obj
 0002:0000fde0       ??_C@_1CE@LNAGEONJ@?$AA?$CB?$AAo?$AAb?$AAj?$AAe?$AAc?$AAt?$AA?4?$AAI?$AAs?$AAE?$AAm?$AAp?$AAt?$AAy?$AA?$CI?$AA?$CJ?$AA?$AA@ 000000018005cde0     Matrix.obj
 0002:0000fe08       ??_7AsyncWorker@Nan@@6B@   000000018005ce08     Matrix.obj
 0002:0000fe38       ??_7AsyncSaveWorker@@6B@   000000018005ce38     Matrix.obj
 0002:0000fe68       ??_7Matrix@@6B@            000000018005ce68     Matrix.obj
 0002:0000fe80       ??_7_OutputArray@cv@@6B@   000000018005ce80     Matrix.obj
 0002:0000ff28       ??_7ObjectWrap@Nan@@6B@    000000018005cf28     Matrix.obj
 0002:0000ff40       ??_7Matrix@node_opencv@@6B@ 000000018005cf40     Matrix.obj
 0002:0000ff58       ??_7_InputArray@cv@@6B@    000000018005cf58     Matrix.obj
 0002:0000ffb8       ??_7AsyncToBufferWorker@@6B@ 000000018005cfb8     Matrix.obj
 0002:0000ffe8       ??_C@_05EHCKFDAN@?$CFi?4?$CFi?$AA@ 000000018005cfe8     OpenCV.obj
 0002:0000fff0       ??_C@_07CPCPJPKL@version?$AA@ 000000018005cff0     OpenCV.obj
 0002:0000fff8       ??_C@_09EPIPEGN@readImage?$AA@ 000000018005cff8     OpenCV.obj
 0002:00010008       ??_C@_0BD@MIKBHOC@Error?5loading?5file?$AA@ 000000018005d008     OpenCV.obj
 0002:00010020       ??_C@_0BC@OKKMMIHI@CascadeClassifier?$AA@ 000000018005d020     CascadeClassifierWrap.obj
 0002:00010038       ??_C@_0BB@GKEEMIFO@detectMultiScale?$AA@ 000000018005d038     CascadeClassifierWrap.obj
 0002:00010050       ??_C@_0CH@NJPHEOJH@detectMultiScale?5takes?5at?5least?5@ 000000018005d050     CascadeClassifierWrap.obj
 0002:00010078       ??_7AsyncDetectMultiScale@@6B@ 000000018005d078     CascadeClassifierWrap.obj
 0002:000100a8       ??_7CascadeClassifierWrap@@6B@ 000000018005d0a8     CascadeClassifierWrap.obj
 0002:000100c0       ??_C@_08KIPMDINC@Contours?$AA@ 000000018005d0c0     Contours.obj
 0002:000100cc       ??_C@_05BBEJFBFA@point?$AA@ 000000018005d0cc     Contours.obj
 0002:000100d4       ??_C@_06GPGIDCJA@points?$AA@ 000000018005d0d4     Contours.obj
 0002:000100e0       ??_C@_0M@FKHOBHPA@cornerCount?$AA@ 000000018005d0e0     Contours.obj
 0002:000100ec       ??_C@_04GOEDGNCF@area?$AA@ 000000018005d0ec     Contours.obj
 0002:000100f8       ??_C@_09HNMBCJN@arcLength?$AA@ 000000018005d0f8     Contours.obj
 0002:00010108       ??_C@_0N@KKPPKBHO@approxPolyDP?$AA@ 000000018005d108     Contours.obj
 0002:00010118       ??_C@_0L@BCEJKNB@convexHull?$AA@ 000000018005d118     Contours.obj
 0002:00010128       ??_C@_0N@MLADNOBA@boundingRect?$AA@ 000000018005d128     Contours.obj
 0002:00010138       ??_C@_0M@KEDDKEAN@minAreaRect?$AA@ 000000018005d138     Contours.obj
 0002:00010148       ??_C@_0L@EPNJHGHJ@fitEllipse?$AA@ 000000018005d148     Contours.obj
 0002:00010158       ??_C@_08IGAEFEOP@isConvex?$AA@ 000000018005d158     Contours.obj
 0002:00010168       ??_C@_09BMGJOELF@hierarchy?$AA@ 000000018005d168     Contours.obj
 0002:00010178       ??_C@_09HPAMHOHM@serialize?$AA@ 000000018005d178     Contours.obj
 0002:00010188       ??_C@_0M@ONIELNGI@deserialize?$AA@ 000000018005d188     Contours.obj
 0002:00010198       ??_C@_08CKANLKHB@contours?$AA@ 000000018005d198     Contours.obj
 0002:000101a8       ??_7Contour@@6B@           000000018005d1a8     Contours.obj
 0002:000101c0       ??_C@_05BGOFFEGG@Point?$AA@ 000000018005d1c0     Point.obj
 0002:000101c8       ??_C@_03GCCHHAFI@dot?$AA@  000000018005d1c8     Point.obj
 0002:000101d0       ??_C@_0BP@DEJAMPLM@Cannot?5Instantiate?5without?5new?$AA@ 000000018005d1d0     Point.obj
 0002:000101f0       ??_C@_0BD@PFBKGOKM@Point?5is?5immutable?$AA@ 000000018005d1f0     Point.obj
 0002:00010208       ??_7AsyncVCWorker@@6B@     000000018005d208     VideoCaptureWrap.obj
 0002:00010238       ??_7VideoCaptureWrap@@6B@  000000018005d238     VideoCaptureWrap.obj
 0002:00010250       ??_7AsyncGrabWorker@@6B@   000000018005d250     VideoCaptureWrap.obj
 0002:00010280       ??_C@_0N@CGLLNJFA@VideoCapture?$AA@ 000000018005d280     VideoCaptureWrap.obj
 0002:00010290       ??_C@_04POLDLDMI@read?$AA@ 000000018005d290     VideoCaptureWrap.obj
 0002:00010298       ??_C@_08JPMFCCKC@setWidth?$AA@ 000000018005d298     VideoCaptureWrap.obj
 0002:000102a8       ??_C@_09CPHMKLII@setHeight?$AA@ 000000018005d2a8     VideoCaptureWrap.obj
 0002:000102b8       ??_C@_0M@HCLECGPL@setPosition?$AA@ 000000018005d2b8     VideoCaptureWrap.obj
 0002:000102c8       ??_C@_0L@HHOKKJBK@getFrameAt?$AA@ 000000018005d2c8     VideoCaptureWrap.obj
 0002:000102d8       ??_C@_0O@CBKICHPJ@getFrameCount?$AA@ 000000018005d2d8     VideoCaptureWrap.obj
 0002:000102e8       ??_C@_08GOAKCCA@ReadSync?$AA@ 000000018005d2e8     VideoCaptureWrap.obj
 0002:000102f4       ??_C@_04MNCHGDJK@grab?$AA@ 000000018005d2f4     VideoCaptureWrap.obj
 0002:00010300       ??_C@_08NBEJGPCC@retrieve?$AA@ 000000018005d300     VideoCaptureWrap.obj
 0002:00010310       ??_C@_0BL@HINGHBND@Camera?5could?5not?5be?5opened?$AA@ 000000018005d310     VideoCaptureWrap.obj
 0002:00010330       ??_C@_0EB@KGMELMLG@Video?5file?5could?5not?5be?5opened?5?$CI@ 000000018005d330     VideoCaptureWrap.obj
 0002:00010378       ??_C@_0BA@BCGMEMGH@retrieve?5failed?$AA@ 000000018005d378     VideoCaptureWrap.obj
 0002:00010388       ??_C@_0M@EKPJKMNA@grab?5failed?$AA@ 000000018005d388     VideoCaptureWrap.obj
 0002:00010398       ??_C@_0O@PCBPEEJF@TrackedObject?$AA@ 000000018005d398     CamShift.obj
 0002:000103a8       ??_C@_05BCJOPFFH@track?$AA@ 000000018005d3a8     CamShift.obj
 0002:000103b0       ??_C@_0BN@OICPNMNN@Must?5pass?5rectangle?5to?5track?$AA@ 000000018005d3b0     CamShift.obj
 0002:000103d0       ??_C@_07MFOHDNMP@channel?$AA@ 000000018005d3d0     CamShift.obj
 0002:000103d8       ??_C@_03GKJJMKFG@hue?$AA@  000000018005d3d8     CamShift.obj
 0002:000103e0       ??_C@_0L@MOLEDBMN@saturation?$AA@ 000000018005d3e0     CamShift.obj
 0002:000103ec       ??_C@_01LKDEMHDF@s?$AA@    000000018005d3ec     CamShift.obj
 0002:000103f0       ??_C@_05MFEJDJP@value?$AA@ 000000018005d3f0     CamShift.obj
 0002:000103f8       ??_C@_01MHEDDDHA@v?$AA@    000000018005d3f8     CamShift.obj
 0002:00010400       ??_C@_0BL@PCEGKIJF@track?5takes?5an?5image?5param?$AA@ 000000018005d400     CamShift.obj
 0002:00010420       ??_C@_0CK@JLOABPOH@OPENCV?5ERROR?3?5prev?5rectangle?5is?5@ 000000018005d420     CamShift.obj
 0002:00010450       ??_7TrackedObject@@6B@     000000018005d450     CamShift.obj
 0002:00010468       ??_C@_0M@NCFELCBD@NamedWindow?$AA@ 000000018005d468     HighGUI.obj
 0002:00010474       ??_C@_04FKMICODN@show?$AA@ 000000018005d474     HighGUI.obj
 0002:00010480       ??_C@_07OKFGPCEA@destroy?$AA@ 000000018005d480     HighGUI.obj
 0002:00010488       ??_C@_0BA@OLBEHEEI@blockingWaitKey?$AA@ 000000018005d488     HighGUI.obj
 0002:00010498       ??_7NamedWindow@@6B@       000000018005d498     HighGUI.obj
 0002:000104b0       ??_C@_0P@BGFEGPNN@FaceRecognizer?$AA@ 000000018005d4b0     FaceRecognizer.obj
 0002:000104c0       ??_C@_0BJ@JKFNBBPJ@createLBPHFaceRecognizer?$AA@ 000000018005d4c0     FaceRecognizer.obj
 0002:000104e0       ??_C@_0BK@NCGJMOIE@createEigenFaceRecognizer?$AA@ 000000018005d4e0     FaceRecognizer.obj
 0002:00010500       ??_C@_0BL@KAJMAKBO@createFisherFaceRecognizer?$AA@ 000000018005d500     FaceRecognizer.obj
 0002:00010520       ??_C@_09GIAOBKEC@trainSync?$AA@ 000000018005d520     FaceRecognizer.obj
 0002:0001052c       ??_C@_05GCHOIEME@train?$AA@ 000000018005d52c     FaceRecognizer.obj
 0002:00010538       ??_C@_0L@NFIJKLCF@updateSync?$AA@ 000000018005d538     FaceRecognizer.obj
 0002:00010548       ??_C@_0M@LADLGKLG@predictSync?$AA@ 000000018005d548     FaceRecognizer.obj
 0002:00010558       ??_C@_07DOBNEOGC@predict?$AA@ 000000018005d558     FaceRecognizer.obj
 0002:00010560       ??_C@_08HOAFELNP@saveSync?$AA@ 000000018005d560     FaceRecognizer.obj
 0002:00010570       ??_C@_08HBNDKFKI@loadSync?$AA@ 000000018005d570     FaceRecognizer.obj
 0002:0001057c       ??_C@_06BDNBBHAJ@getMat?$AA@ 000000018005d57c     FaceRecognizer.obj
 0002:00010590       ??_C@_0EB@CEMIIOPK@FaceRecognizer?4train?5takes?5a?5lis@ 000000018005d590     FaceRecognizer.obj
 0002:000105d8       ??_C@_0CM@HKHPMOBN@train?5takes?5a?5list?5of?5?$FLlabel?0?5im@ 000000018005d5d8     FaceRecognizer.obj
 0002:00010608       ??_C@_0DA@EOJJMBMB@Invalid?5number?5of?5arguments?5or?5i@ 000000018005d608     FaceRecognizer.obj
 0002:00010638       ??_C@_0CJ@GMKBLJHM@Eigen?5Recognizer?5does?5not?5suppor@ 000000018005d638     FaceRecognizer.obj
 0002:00010668       ??_C@_0CK@KEHLGEGO@Fisher?5Recognizer?5does?5not?5suppo@ 000000018005d668     FaceRecognizer.obj
 0002:00010694       ??_C@_02EGCJHIOB@id?$AA@   000000018005d694     FaceRecognizer.obj
 0002:00010698       ??_C@_0L@KKPMMEDB@confidence?$AA@ 000000018005d698     FaceRecognizer.obj
 0002:000106a8       ??_C@_0BG@GOIDBLEB@Save?5takes?5a?5filename?$AA@ 000000018005d6a8     FaceRecognizer.obj
 0002:000106c0       ??_C@_0BG@BOEBMIBO@Load?5takes?5a?5filename?$AA@ 000000018005d6c0     FaceRecognizer.obj
 0002:000106d8       ??_C@_0BD@LGKMBFJC@getMat?5takes?5a?5key?$AA@ 000000018005d6d8     FaceRecognizer.obj
 0002:000106f0       ??_7TrainASyncWorker@@6B@  000000018005d6f0     FaceRecognizer.obj
 0002:00010720       ??_7PredictASyncWorker@@6B@ 000000018005d720     FaceRecognizer.obj
 0002:00010750       ??_7FaceRecognizerWrap@@6B@ 000000018005d750     FaceRecognizer.obj
 0002:00010768       ??_C@_0BA@MFHDGIKH@ImageSimilarity?$AA@ 000000018005d768     Features2d.obj
 0002:00010778       ??_C@_03LALLLPNB@ORB?$AA@  000000018005d778     Features2d.obj
 0002:00010780       ??_C@_0BD@MDGGGBIH@BruteForce?9Hamming?$AA@ 000000018005d780     Features2d.obj
 0002:00010798       ??_C@_0BO@KKKFJAIB@Argument?52?5must?5be?5a?5function?$AA@ 000000018005d798     Features2d.obj
 0002:000107b8       ??_7AsyncDetectSimilarity@@6B@ 000000018005d7b8     Features2d.obj
 0002:000107e8       ??_C@_0BF@ONFAAOIL@BackgroundSubtractor?$AA@ 000000018005d7e8     BackgroundSubtractor.obj
 0002:00010800       ??_C@_09CBNLAOBC@createMOG?$AA@ 000000018005d800     BackgroundSubtractor.obj
 0002:00010810       ??_C@_08DEKCOBEN@applyMOG?$AA@ 000000018005d810     BackgroundSubtractor.obj
 0002:00010820       ??_C@_0BE@EENDAMGA@Input?5image?5missing?$AA@ 000000018005d820     BackgroundSubtractor.obj
 0002:00010838       ??_7BackgroundSubtractorWrap@@6B@ 000000018005d838     BackgroundSubtractor.obj
 0002:00010850       ??_C@_05OHIBODI@CV_8U?$AA@ 000000018005d850     Constants.obj
 0002:00010858       ??_C@_05FICCLJLO@CV_8S?$AA@ 000000018005d858     Constants.obj
 0002:00010860       ??_C@_06NIFJFDGC@CV_16U?$AA@ 000000018005d860     Constants.obj
 0002:00010868       ??_C@_06IOADPEOE@CV_16S?$AA@ 000000018005d868     Constants.obj
 0002:00010870       ??_C@_06CDADJELD@CV_32S?$AA@ 000000018005d870     Constants.obj
 0002:00010878       ??_C@_06BELGHCKH@CV_32F?$AA@ 000000018005d878     Constants.obj
 0002:00010880       ??_C@_06CHOFPOCH@CV_64F?$AA@ 000000018005d880     Constants.obj
 0002:00010888       ??_C@_0M@JFPIDONA@CV_USRTYPE1?$AA@ 000000018005d888     Constants.obj
 0002:00010898       ??_C@_07FJBBLLML@CV_8UC1?$AA@ 000000018005d898     Constants.obj
 0002:000108a0       ??_C@_07HCDMOIAI@CV_8UC2?$AA@ 000000018005d8a0     Constants.obj
 0002:000108a8       ??_C@_07GLCHNJEJ@CV_8UC3?$AA@ 000000018005d8a8     Constants.obj
 0002:000108b0       ??_C@_07CEGGEPIO@CV_8UC4?$AA@ 000000018005d8b0     Constants.obj
 0002:000108b8       ??_C@_07HMHKOEBH@CV_8SC1?$AA@ 000000018005d8b8     Constants.obj
 0002:000108c0       ??_C@_07FHFHLHNE@CV_8SC2?$AA@ 000000018005d8c0     Constants.obj
 0002:000108c8       ??_C@_07EOEMIGJF@CV_8SC3?$AA@ 000000018005d8c8     Constants.obj
 0002:000108d0       ??_C@_07BANBAFC@CV_8SC4?$AA@ 000000018005d8d0     Constants.obj
 0002:000108d8       ??_C@_08BBCIOFBJ@CV_16UC1?$AA@ 000000018005d8d8     Constants.obj
 0002:000108e8       ??_C@_08DKAFLGNK@CV_16UC2?$AA@ 000000018005d8e8     Constants.obj
 0002:000108f8       ??_C@_08CDBOIHJL@CV_16UC3?$AA@ 000000018005d8f8     Constants.obj
 0002:00010908       ??_C@_08GMFPBBFM@CV_16UC4?$AA@ 000000018005d908     Constants.obj
 0002:00010918       ??_C@_08DEEDLKMF@CV_16SC1?$AA@ 000000018005d918     Constants.obj
 0002:00010928       ??_C@_08BPGOOJAG@CV_16SC2?$AA@ 000000018005d928     Constants.obj
 0002:00010938       ??_C@_08GHFNIEH@CV_16SC3?$AA@ 000000018005d938     Constants.obj
 0002:00010948       ??_C@_08EJDEEOIA@CV_16SC4?$AA@ 000000018005d948     Constants.obj
 0002:00010958       ??_C@_08IMALLNAO@CV_32SC1?$AA@ 000000018005d958     Constants.obj
 0002:00010968       ??_C@_08KHCGOOMN@CV_32SC2?$AA@ 000000018005d968     Constants.obj
 0002:00010978       ??_C@_08LODNNPIM@CV_32SC3?$AA@ 000000018005d978     Constants.obj
 0002:00010988       ??_C@_08PBHMEJEL@CV_32SC4?$AA@ 000000018005d988     Constants.obj
 0002:00010998       ??_C@_08OLMMBKKD@CV_32FC1?$AA@ 000000018005d998     Constants.obj
 0002:000109a8       ??_C@_08MAOBEJGA@CV_32FC2?$AA@ 000000018005d9a8     Constants.obj
 0002:000109b8       ??_C@_08NJPKHICB@CV_32FC3?$AA@ 000000018005d9b8     Constants.obj
 0002:000109c8       ??_C@_08JGLLOOOG@CV_32FC4?$AA@ 000000018005d9c8     Constants.obj
 0002:000109d8       ??_C@_08DEEBHOLA@CV_64FC1?$AA@ 000000018005d9d8     Constants.obj
 0002:000109e8       ??_C@_08BPGMCNHD@CV_64FC2?$AA@ 000000018005d9e8     Constants.obj
 0002:000109f8       ??_C@_08GHHBMDC@CV_64FC3?$AA@ 000000018005d9f8     Constants.obj
 0002:00010a08       ??_C@_08EJDGIKPF@CV_64FC4?$AA@ 000000018005da08     Constants.obj
 0002:00010a14       ??_C@_05KOMLNJPN@CV_PI?$AA@ 000000018005da14     Constants.obj
 0002:00010a20       ??_C@_09EFLPHOLM@CV_FILLED?$AA@ 000000018005da20     Constants.obj
 0002:00010a30       ??_C@_0P@OMCIALBM@BORDER_DEFAULT?$AA@ 000000018005da30     Constants.obj
 0002:00010a40       ??_C@_0BB@PHCOAPIO@BORDER_REPLICATE?$AA@ 000000018005da40     Constants.obj
 0002:00010a58       ??_C@_0P@PFCJOHKD@BORDER_REFLECT?$AA@ 000000018005da58     Constants.obj
 0002:00010a68       ??_C@_0BD@GKAAMMEK@BORDER_REFLECT_101?$AA@ 000000018005da68     Constants.obj
 0002:00010a80       ??_C@_0M@CLGGBJMM@BORDER_WRAP?$AA@ 000000018005da80     Constants.obj
 0002:00010a90       ??_C@_0BA@JMNBKHCJ@BORDER_CONSTANT?$AA@ 000000018005da90     Constants.obj
 0002:00010aa0       ??_C@_0O@LOLMHAEL@INTER_NEAREST?$AA@ 000000018005daa0     Constants.obj
 0002:00010ab0       ??_C@_0N@GKLHHOKH@INTER_LINEAR?$AA@ 000000018005dab0     Constants.obj
 0002:00010ac0       ??_C@_0L@CFPLEHJK@INTER_AREA?$AA@ 000000018005dac0     Constants.obj
 0002:00010ad0       ??_C@_0M@KHIHIJMB@INTER_CUBIC?$AA@ 000000018005dad0     Constants.obj
 0002:00010ae0       ??_C@_0P@DDNEKOMF@INTER_LANCZOS4?$AA@ 000000018005dae0     Constants.obj
 0002:00010af0       ??_C@_0M@IGPOPKGG@NORM_MINMAX?$AA@ 000000018005daf0     Constants.obj
 0002:00010b00       ??_C@_08HIOPAFEN@NORM_INF?$AA@ 000000018005db00     Constants.obj
 0002:00010b10       ??_C@_07NJBPKMDP@NORM_L1?$AA@ 000000018005db10     Constants.obj
 0002:00010b18       ??_C@_07PCDCPPPM@NORM_L2?$AA@ 000000018005db18     Constants.obj
 0002:00010b20       ??_C@_0L@NLGGPNKJ@NORM_L2SQR?$AA@ 000000018005db20     Constants.obj
 0002:00010b30       ??_C@_0N@DLOLCGNF@NORM_HAMMING?$AA@ 000000018005db30     Constants.obj
 0002:00010b40       ??_C@_0O@BLPCJJAM@NORM_HAMMING2?$AA@ 000000018005db40     Constants.obj
 0002:00010b50       ??_C@_0O@PNONJCK@NORM_RELATIVE?$AA@ 000000018005db50     Constants.obj
 0002:00010b60       ??_C@_0P@BKKKKGHD@NORM_TYPE_MASK?$AA@ 000000018005db60     Constants.obj
 0002:00010b70       ??_C@_0O@JBHGNPPI@RETR_EXTERNAL?$AA@ 000000018005db70     Constants.obj
 0002:00010b80       ??_C@_09GGFNJCHC@RETR_LIST?$AA@ 000000018005db80     Constants.obj
 0002:00010b90       ??_C@_0L@LGAIMKHK@RETR_CCOMP?$AA@ 000000018005db90     Constants.obj
 0002:00010ba0       ??_C@_09PKKHGCHN@RETR_TREE?$AA@ 000000018005dba0     Constants.obj
 0002:00010bb0       ??_C@_09EKDBGGMD@Constants?$AA@ 000000018005dbb0     Constants.obj
 0002:00010bc0       ??_C@_0BK@MPJIJEMN@Size?5is?5not?5a?5valid?5array?$AA@ 000000018005dbc0     Calib3D.obj
 0002:00010be0       ??_C@_0BJ@BLJDKNA@Points?5not?5a?5valid?5array?$AA@ 000000018005dbe0     Calib3D.obj
 0002:00010bfc       ??_C@_01GLPGHMHM@z?$AA@    000000018005dbfc     Calib3D.obj
 0002:00010c00       ??_C@_0DA@PONKJKIP@Must?5pass?5array?5of?5object?5points@ 000000018005dc00     Calib3D.obj
 0002:00010c30       ??_C@_0BG@LOLNPFPB@findChessboardCorners?$AA@ 000000018005dc30     Calib3D.obj
 0002:00010c48       ??_C@_0BG@EJGOGIIK@drawChessboardCorners?$AA@ 000000018005dc48     Calib3D.obj
 0002:00010c60       ??_C@_0BA@EOICHGIF@calibrateCamera?$AA@ 000000018005dc60     Calib3D.obj
 0002:00010c70       ??_C@_08CKFDCCPK@solvePnP?$AA@ 000000018005dc70     Calib3D.obj
 0002:00010c80       ??_C@_0BK@DJBDJDEP@getOptimalNewCameraMatrix?$AA@ 000000018005dc80     Calib3D.obj
 0002:00010ca0       ??_C@_0BA@GBPIBKJD@stereoCalibrate?$AA@ 000000018005dca0     Calib3D.obj
 0002:00010cb0       ??_C@_0O@NIJKBGHJ@stereoRectify?$AA@ 000000018005dcb0     Calib3D.obj
 0002:00010cc0       ??_C@_0BK@OMGIFBPM@computeCorrespondEpilines?$AA@ 000000018005dcc0     Calib3D.obj
 0002:00010ce0       ??_C@_0BD@BAPJDIOL@reprojectImageTo3d?$AA@ 000000018005dce0     Calib3D.obj
 0002:00010cf8       ??_C@_07LEPPNAGA@calib3d?$AA@ 000000018005dcf8     Calib3D.obj
 0002:00010d00       ??_C@_05JEMLEKKA@found?$AA@ 000000018005dd00     Calib3D.obj
 0002:00010d08       ??_C@_07IGDAEPBO@corners?$AA@ 000000018005dd08     Calib3D.obj
 0002:00010d10       ??_C@_0BC@KLJOIAOF@reprojectionError?$AA@ 000000018005dd10     Calib3D.obj
 0002:00010d24       ??_C@_01KNKLHLMO@K?$AA@    000000018005dd24     Calib3D.obj
 0002:00010d28       ??_C@_0L@HBCOEABN@distortion?$AA@ 000000018005dd28     Calib3D.obj
 0002:00010d34       ??_C@_04PEFHHFKC@rvec?$AA@ 000000018005dd34     Calib3D.obj
 0002:00010d3c       ??_C@_04HLBHIAAC@tvec?$AA@ 000000018005dd3c     Calib3D.obj
 0002:00010d44       ??_C@_02LKCMEDHO@K1?$AA@   000000018005dd44     Calib3D.obj
 0002:00010d48       ??_C@_0M@KFCKEFCL@distortion1?$AA@ 000000018005dd48     Calib3D.obj
 0002:00010d54       ??_C@_02JBABBALN@K2?$AA@   000000018005dd54     Calib3D.obj
 0002:00010d58       ??_C@_0M@IOAHBGOI@distortion2?$AA@ 000000018005dd58     Calib3D.obj
 0002:00010d64       ??_C@_01DGKLNCNG@R?$AA@    000000018005dd64     Calib3D.obj
 0002:00010d68       ??_C@_01PFHFFBPC@t?$AA@    000000018005dd68     Calib3D.obj
 0002:00010d6c       ??_C@_01DDCIFGEA@E?$AA@    000000018005dd6c     Calib3D.obj
 0002:00010d70       ??_C@_01BIAFAFID@F?$AA@    000000018005dd70     Calib3D.obj
 0002:00010d74       ??_C@_02KJNLNLIB@R1?$AA@   000000018005dd74     Calib3D.obj
 0002:00010d78       ??_C@_02ICPGIIEC@R2?$AA@   000000018005dd78     Calib3D.obj
 0002:00010d7c       ??_C@_02KKFPAPOP@P1?$AA@   000000018005dd7c     Calib3D.obj
 0002:00010d80       ??_C@_02IBHCFMCM@P2?$AA@   000000018005dd80     Calib3D.obj
 0002:00010d84       ??_C@_01BNIGIBBF@Q?$AA@    000000018005dd84     Calib3D.obj
 0002:00010d88       ??_C@_01MCMALHOG@a?$AA@    000000018005dd88     Calib3D.obj
 0002:00010d8c       ??_C@_01OJONOECF@b?$AA@    000000018005dd8c     Calib3D.obj
 0002:00010d90       ??_C@_01PAPGNFGE@c?$AA@    000000018005dd90     Calib3D.obj
 0002:00010d98       ??_C@_09CMLMPKON@undistort?$AA@ 000000018005dd98     ImgProc.obj
 0002:00010da4       ??_C@_05PGGDPNJE@remap?$AA@ 000000018005dda4     ImgProc.obj
 0002:00010db0       ??_C@_0BI@CIGFBMGP@initUndistortRectifyMap?$AA@ 000000018005ddb0     ImgProc.obj
 0002:00010dc8       ??_C@_07JPFGLFGA@imgproc?$AA@ 000000018005ddc8     ImgProc.obj
 0002:00010dd0       ??_C@_0BG@DHBNJFIH@getStructuringElement?$AA@ 000000018005ddd0     ImgProc.obj
 0002:00010de8       ??_C@_04EJEJEEJK@map1?$AA@ 000000018005dde8     ImgProc.obj
 0002:00010df0       ??_C@_0BF@GFPOHJFK@Must?5pass?5image?5size?$AA@ 000000018005ddf0     ImgProc.obj
 0002:00010e08       ??_C@_0CC@BPGICPEI@?8shape?8?5argument?5must?5be?5a?5numbe@ 000000018005de08     ImgProc.obj
 0002:00010e2c       ??_C@_04GCGEBHFJ@map2?$AA@ 000000018005de2c     ImgProc.obj
 0002:00010e40       ??_C@_1EO@NDAHBCK@?$AA?$CI?$AAu?$AAn?$AAs?$AAi?$AAg?$AAn?$AAe?$AAd?$AA?$CJ?$AAC?$AAV?$AA_?$AAM?$AAA?$AAT?$AA_?$AAD?$AAE?$AAP?$AAT?$AAH?$AA?$CI?$AAt?$AAy?$AAp?$AAe?$AA?$CJ?$AA?5?$AA?$DM?$AA?$DN?$AA?5@ 000000018005de40     Stereo.obj
 0002:00010e90       ??_C@_1GM@GEBLNLGC@?$AAC?$AA?3?$AA?2?$AAO?$AAp?$AAe?$AAn?$AAC?$AAV?$AA?2?$AAo?$AAp?$AAe?$AAn?$AAc?$AAv?$AA?2?$AAb?$AAu?$AAi?$AAl?$AAd?$AA?2?$AAi?$AAn?$AAc?$AAl?$AAu?$AAd?$AAe?$AA?2?$AAo@ 000000018005de90     Stereo.obj
 0002:00010f00       ??_C@_08OBAJLBIO@StereoBM?$AA@ 000000018005df00     Stereo.obj
 0002:00010f10       ??_C@_0N@ONMIMPKA@BASIC_PRESET?$AA@ 000000018005df10     Stereo.obj
 0002:00010f20       ??_C@_07ODGMEIEJ@compute?$AA@ 000000018005df20     Stereo.obj
 0002:00010f28       ??_C@_0O@ECNFLNKM@NARROW_PRESET?$AA@ 000000018005df28     Stereo.obj
 0002:00010f38       ??_C@_0BA@FJIKHBBD@FISH_EYE_PRESET?$AA@ 000000018005df38     Stereo.obj
 0002:00010f50       ??_C@_0FK@EJONPJOC@If?5overriding?5default?5settings?0?5@ 000000018005df50     Stereo.obj
 0002:00010fb0       ??_C@_0L@BNJCOBGG@StereoSGBM?$AA@ 000000018005dfb0     Stereo.obj
 0002:00010fc0       ??_C@_08HJEBFOOL@StereoGC?$AA@ 000000018005dfc0     Stereo.obj
 0002:00010fd0       ??_7StereoBM@@6B@          000000018005dfd0     Stereo.obj
 0002:00010fe8       ??_7StereoGC@@6B@          000000018005dfe8     Stereo.obj
 0002:00010fe8       ??_7Point@@6B@             000000018005dfe8     Point.obj
 0002:00011000       ??_7StereoSGBM@@6B@        000000018005e000     Stereo.obj
 0002:00011018       ??_C@_03JBIIJMDO@LDA?$AA@  000000018005e018     LDAWrap.obj
 0002:00011020       ??_C@_0BE@NKFNJEAI@subspaceReconstruct?$AA@ 000000018005e020     LDAWrap.obj
 0002:00011038       ??_C@_0BA@CKEDBBCB@subspaceProject?$AA@ 000000018005e038     LDAWrap.obj
 0002:00011048       ??_C@_0DC@IOCKJPNB@SubspaceReconstruct?5function?5req@ 000000018005e048     LDAWrap.obj
 0002:00011080       ??_C@_0CO@NKDIMPOD@SubspaceProject?5function?5require@ 000000018005e080     LDAWrap.obj
 0002:000110b0       ??_7LDAWrap@@6B@           000000018005e0b0     LDAWrap.obj
 0002:000110c8       ??_C@_08HCOMDCCD@iojs?4exe?$AA@ 000000018005e0c8     win_delay_load_hook.obj
 0002:000110d8       ??_C@_08JDDNMFDB@node?4exe?$AA@ 000000018005e0d8     win_delay_load_hook.obj
 0002:00011138       __real@3cb0000000000000    000000018005e138     Calib3D.obj
 0002:00011140       __real@3eb0c6f7a0b5ed8d    000000018005e140     Calib3D.obj
 0002:00011148       __real@3f847ae147ae147b    000000018005e148     Matrix.obj
 0002:00011150       __real@3f91df46a2529d39    000000018005e150     Matrix.obj
 0002:00011158       __real@3f947ae147ae147b    000000018005e158     Features2d.obj
 0002:00011160       __real@3fa47ae147ae147b    000000018005e160     Matrix.obj
 0002:00011168       __real@3fe0000000000000    000000018005e168     Matrix.obj
 0002:00011170       __real@3ff0000000000000    000000018005e170     Matrix.obj
 0002:00011178       __real@3ff199999999999a    000000018005e178     CascadeClassifierWrap.obj
 0002:00011180       __real@400921fb54442d18    000000018005e180     Constants.obj
 0002:00011188       __real@4024000000000000    000000018005e188     Matrix.obj
 0002:00011190       __real@403e000000000000    000000018005e190     Matrix.obj
 0002:00011198       __real@4054000000000000    000000018005e198     Matrix.obj
 0002:000111a0       __real@4059000000000000    000000018005e1a0     Matrix.obj
 0002:000111a8       __real@406fe00000000000    000000018005e1a8     Matrix.obj
 0002:000111b0       __real@4076800000000000    000000018005e1b0     Matrix.obj
 0002:000111b8       __real@43800000            000000018005e1b8     CamShift.obj
 0002:000111c0       __real@43f0000000000000    000000018005e1c0     Contours.obj
 0002:000111c8       __real@7fefffffffffffff    000000018005e1c8     FaceRecognizer.obj
 0002:000111d0       __real@bff0000000000000    000000018005e1d0     Matrix.obj
 0002:000111d8       __real@c030000000000000    000000018005e1d8     Stereo.obj
 0002:000111e0       __xmm@00000000000000004050400000000000 000000018005e1e0     CamShift.obj
 0002:000111f0       __xmm@0000000000000000406fe00000000000 000000018005e1f0     Matrix.obj
 0002:00011200       __xmm@00000000000000004070000000000000 000000018005e200     CamShift.obj
 0002:00011210       __xmm@404b8000000000000000000000000000 000000018005e210     CamShift.obj
 0002:00011220       __xmm@40700000000000004066800000000000 000000018005e220     CamShift.obj
 0002:00011230       __xmm@7fefffffffffffff7fefffffffffffff 000000018005e230     Matrix.obj
 0002:00014580       __real@3f800000            0000000180061580     libucrt:ceilf.obj
 0002:00014600       _tls_used                  0000000180061600     LIBCMT:tlssup.obj
 0002:00014628       ??_R4exception@std@@6B@    0000000180061628     libcpmt:xthrow.obj
 0002:00014650       ??_R3exception@std@@8      0000000180061650     libcpmt:xthrow.obj
 0002:00014668       ??_R2exception@std@@8      0000000180061668     libcpmt:xthrow.obj
 0002:00014678       ??_R1A@?0A@EA@exception@std@@8 0000000180061678     libcpmt:xthrow.obj
 0002:000146a0       ??_R4bad_alloc@std@@6B@    00000001800616a0     libcpmt:xthrow.obj
 0002:000146c8       ??_R3bad_alloc@std@@8      00000001800616c8     libcpmt:xthrow.obj
 0002:000146e0       ??_R2bad_alloc@std@@8      00000001800616e0     libcpmt:xthrow.obj
 0002:000146f8       ??_R1A@?0A@EA@bad_alloc@std@@8 00000001800616f8     libcpmt:xthrow.obj
 0002:00014720       ??_R4logic_error@std@@6B@  0000000180061720     libcpmt:xthrow.obj
 0002:00014748       ??_R3logic_error@std@@8    0000000180061748     libcpmt:xthrow.obj
 0002:00014760       ??_R2logic_error@std@@8    0000000180061760     libcpmt:xthrow.obj
 0002:00014778       ??_R1A@?0A@EA@logic_error@std@@8 0000000180061778     libcpmt:xthrow.obj
 0002:000147a0       ??_R4length_error@std@@6B@ 00000001800617a0     libcpmt:xthrow.obj
 0002:000147c8       ??_R3length_error@std@@8   00000001800617c8     libcpmt:xthrow.obj
 0002:000147e0       ??_R2length_error@std@@8   00000001800617e0     libcpmt:xthrow.obj
 0002:00014800       ??_R1A@?0A@EA@length_error@std@@8 0000000180061800     libcpmt:xthrow.obj
 0002:00014828       ??_R4out_of_range@std@@6B@ 0000000180061828     libcpmt:xthrow.obj
 0002:00014850       ??_R3out_of_range@std@@8   0000000180061850     libcpmt:xthrow.obj
 0002:00014868       ??_R2out_of_range@std@@8   0000000180061868     libcpmt:xthrow.obj
 0002:00014888       ??_R1A@?0A@EA@out_of_range@std@@8 0000000180061888     libcpmt:xthrow.obj
 0002:000148b0       ??_R4type_info@@6B@        00000001800618b0     LIBCMT:std_type_info_static.obj
 0002:000148d8       ??_R3type_info@@8          00000001800618d8     LIBCMT:std_type_info_static.obj
 0002:000148f0       ??_R2type_info@@8          00000001800618f0     LIBCMT:std_type_info_static.obj
 0002:00014900       ??_R1A@?0A@EA@type_info@@8 0000000180061900     LIBCMT:std_type_info_static.obj
 0002:00014928       ??_R4bad_array_new_length@std@@6B@ 0000000180061928     LIBCMT:throw_bad_alloc.obj
 0002:00014950       ??_R3bad_array_new_length@std@@8 0000000180061950     LIBCMT:throw_bad_alloc.obj
 0002:00014968       ??_R2bad_array_new_length@std@@8 0000000180061968     LIBCMT:throw_bad_alloc.obj
 0002:00014988       ??_R1A@?0A@EA@bad_array_new_length@std@@8 0000000180061988     LIBCMT:throw_bad_alloc.obj
 0002:000149b0       ??_R4bad_exception@std@@6B@ 00000001800619b0     libvcruntime:frame.obj
 0002:000149d8       ??_R3bad_exception@std@@8  00000001800619d8     libvcruntime:frame.obj
 0002:000149f0       ??_R2bad_exception@std@@8  00000001800619f0     libvcruntime:frame.obj
 0002:00014a08       ??_R1A@?0A@EA@bad_exception@std@@8 0000000180061a08     libvcruntime:frame.obj
 0002:00014ed8       __rtc_iaa                  0000000180061ed8     LIBCMT:_initsect_.obj
 0002:00014ee0       __rtc_izz                  0000000180061ee0     LIBCMT:_initsect_.obj
 0002:00014ee8       __rtc_taa                  0000000180061ee8     LIBCMT:_initsect_.obj
 0002:00014ef0       __rtc_tzz                  0000000180061ef0     LIBCMT:_initsect_.obj
 0002:0001eb68       _TI2?AVbad_alloc@std@@     000000018006bb68     libcpmt:xthrow.obj
 0002:0001eb88       _CTA2?AVbad_alloc@std@@    000000018006bb88     libcpmt:xthrow.obj
 0002:0001eba0       _CT??_R0?AVbad_alloc@std@@@8??0bad_alloc@std@@QEAA@AEBV01@@Z24 000000018006bba0     libcpmt:xthrow.obj
 0002:0001ebc8       _CT??_R0?AVexception@std@@@8??0exception@std@@QEAA@AEBV01@@Z24 000000018006bbc8     libcpmt:xthrow.obj
 0002:0001ebf0       _CT??_R0?AVlogic_error@std@@@8??0logic_error@std@@QEAA@AEBV01@@Z24 000000018006bbf0     libcpmt:xthrow.obj
 0002:0001ec18       _TI3?AVlength_error@std@@  000000018006bc18     libcpmt:xthrow.obj
 0002:0001ec38       _CTA3?AVlength_error@std@@ 000000018006bc38     libcpmt:xthrow.obj
 0002:0001ec58       _CT??_R0?AVlength_error@std@@@8??0length_error@std@@QEAA@AEBV01@@Z24 000000018006bc58     libcpmt:xthrow.obj
 0002:0001ec80       _TI3?AVout_of_range@std@@  000000018006bc80     libcpmt:xthrow.obj
 0002:0001eca0       _CTA3?AVout_of_range@std@@ 000000018006bca0     libcpmt:xthrow.obj
 0002:0001ecc0       _CT??_R0?AVout_of_range@std@@@8??0out_of_range@std@@QEAA@AEBV01@@Z24 000000018006bcc0     libcpmt:xthrow.obj
 0002:0001ece8       _TI3?AVbad_array_new_length@std@@ 000000018006bce8     LIBCMT:throw_bad_alloc.obj
 0002:0001ed08       _CTA3?AVbad_array_new_length@std@@ 000000018006bd08     LIBCMT:throw_bad_alloc.obj
 0002:0001ed28       _CT??_R0?AVbad_array_new_length@std@@@8??0bad_array_new_length@std@@QEAA@AEBV01@@Z24 000000018006bd28     LIBCMT:throw_bad_alloc.obj
 0002:0001ed50       _TI2?AVbad_exception@std@@ 000000018006bd50     libvcruntime:frame.obj
 0002:0001ed70       _CTA2?AVbad_exception@std@@ 000000018006bd70     libvcruntime:frame.obj
 0002:0001ed88       _CT??_R0?AVbad_exception@std@@@8??0bad_exception@std@@QEAA@AEBV01@@Z24 000000018006bd88     libvcruntime:frame.obj
 0002:0001edac       __DELAY_IMPORT_DESCRIPTOR_node_exe 000000018006bdac     node:node.exe
 0002:0001edcc       __NULL_DELAY_IMPORT_DESCRIPTOR 000000018006bdcc     node:node.exe
 0002:0001f0d0       \177node_NULL_THUNK_DATA_DLN 000000018006c0d0     node:node.exe
 0002:000207c8       \177node_NULL_THUNK_DATA_DLB 000000018006d7c8     node:node.exe
 0002:00020b00       __IMPORT_DESCRIPTOR_KERNEL32 000000018006db00     kernel32:KERNEL32.dll
 0002:00020b14       __IMPORT_DESCRIPTOR_opencv_calib3d2413 000000018006db14     opencv_calib3d2413:opencv_calib3d2413.dll
 0002:00020b28       __IMPORT_DESCRIPTOR_opencv_contrib2413 000000018006db28     opencv_contrib2413:opencv_contrib2413.dll
 0002:00020b3c       __IMPORT_DESCRIPTOR_opencv_core2413 000000018006db3c     opencv_core2413:opencv_core2413.dll
 0002:00020b50       __IMPORT_DESCRIPTOR_opencv_features2d2413 000000018006db50     opencv_features2d2413:opencv_features2d2413.dll
 0002:00020b64       __IMPORT_DESCRIPTOR_opencv_highgui2413 000000018006db64     opencv_highgui2413:opencv_highgui2413.dll
 0002:00020b78       __IMPORT_DESCRIPTOR_opencv_imgproc2413 000000018006db78     opencv_imgproc2413:opencv_imgproc2413.dll
 0002:00020b8c       __IMPORT_DESCRIPTOR_opencv_legacy2413 000000018006db8c     opencv_legacy2413:opencv_legacy2413.dll
 0002:00020ba0       __IMPORT_DESCRIPTOR_opencv_objdetect2413 000000018006dba0     opencv_objdetect2413:opencv_objdetect2413.dll
 0002:00020bb4       __IMPORT_DESCRIPTOR_opencv_video2413 000000018006dbb4     opencv_video2413:opencv_video2413.dll
 0002:00020bc8       __NULL_IMPORT_DESCRIPTOR   000000018006dbc8     kernel32:KERNEL32.dll
 0003:00000020       ?_PJP_CPP_Copyright@@3PADA 0000000180072020     libcpmt:iosptrs.obj
 0003:00000080       _Init_global_epoch         0000000180072080     LIBCMT:thread_safe_statics.obj
 0003:00000084       __scrt_native_dllmain_reason 0000000180072084     LIBCMT:utility.obj
 0003:00000088       __security_cookie          0000000180072088     LIBCMT:gs_cookie.obj
 0003:00000090       __security_cookie_complement 0000000180072090     LIBCMT:gs_cookie.obj
 0003:00000098       _fltused                   0000000180072098     LIBCMT:fltused.obj
 0003:000000a0       __isa_available            00000001800720a0     LIBCMT:_cpu_disp_.obj
 0003:000000a4       __isa_enabled              00000001800720a4     LIBCMT:_cpu_disp_.obj
 0003:000000a8       __memcpy_nt_iters          00000001800720a8     LIBCMT:_cpu_disp_.obj
 0003:000000c0       __abort_behavior           00000001800720c0     libucrt:abort.obj
 0003:000000d0       __acrt_lconv_c             00000001800720d0     libucrt:localeconv.obj
 0003:00000168       __acrt_lconv_static_decimal 0000000180072168     libucrt:localeconv.obj
 0003:0000016c       __acrt_lconv_static_W_decimal 000000018007216c     libucrt:localeconv.obj
 0003:00000170       _iob                       0000000180072170     libucrt:_file.obj
 0003:00000278       _pwctype                   0000000180072278     libucrt:ctype.obj
 0003:000002a0       __acrt_initial_locale_data 00000001800722a0     libucrt:nlsdata.obj
 0003:000003f8       __acrt_initial_locale_pointers 00000001800723f8     libucrt:nlsdata.obj
 0003:00000408       __acrt_wide_c_locale_string 0000000180072408     libucrt:nlsdata.obj
 0003:00000410       __badioinfo                0000000180072410     libucrt:ioinit.obj
 0003:00000454       __globallocalestatus       0000000180072454     libucrt:glstatus.obj
 0003:000004f0       __acrt_initial_multibyte_data 00000001800724f0     libucrt:mbctype.obj
 0003:00000718       __acrt_current_multibyte_data 0000000180072718     libucrt:mbctype.obj
 0003:00000820       _mbctype                   0000000180072820     libucrt:mbctype.obj
 0003:00000930       _mbcasemap                 0000000180072930     libucrt:mbctype.obj
 0003:00000a40       __dcrt_lowio_console_output_handle 0000000180072a40     libucrt:initcon.obj
 0003:00000a90       ??_R0?AVbad_alloc@std@@@8  0000000180072a90     libcpmt:xthrow.obj
 0003:00000ab8       ??_R0?AVexception@std@@@8  0000000180072ab8     libcpmt:xthrow.obj
 0003:00000ae0       ??_R0?AVlogic_error@std@@@8 0000000180072ae0     libcpmt:xthrow.obj
 0003:00000b08       ??_R0?AVlength_error@std@@@8 0000000180072b08     libcpmt:xthrow.obj
 0003:00000b30       ??_R0?AVout_of_range@std@@@8 0000000180072b30     libcpmt:xthrow.obj
 0003:00000b58       ??_R0?AVtype_info@@@8      0000000180072b58     LIBCMT:std_type_info_static.obj
 0003:00000b78       ??_R0?AVbad_array_new_length@std@@@8 0000000180072b78     LIBCMT:throw_bad_alloc.obj
 0003:00000ba8       ??_R0?AVbad_exception@std@@@8 0000000180072ba8     libvcruntime:frame.obj
 0003:00000bd0       ??_R0?AVException@cv@@@8   0000000180072bd0     Matrix.obj
 0003:00000bf8       __imp_?GetCurrent@Isolate@v8@@SAPEAV12@XZ 0000000180072bf8     node:node.exe
 0003:00000c00       __imp_??1HandleScope@v8@@QEAA@XZ 0000000180072c00     node:node.exe
 0003:00000c08       __imp_??0HandleScope@v8@@QEAA@PEAVIsolate@1@@Z 0000000180072c08     node:node.exe
 0003:00000c10       __imp_node_module_register 0000000180072c10     node:node.exe
 0003:00000c18       __imp_uv_queue_work        0000000180072c18     node:node.exe
 0003:00000c20       __imp_?Global@Context@v8@@QEAA?AV?$Local@VObject@v8@@@2@XZ 0000000180072c20     node:node.exe
 0003:00000c28       __imp_?Value@External@v8@@QEBAPEAXXZ 0000000180072c28     node:node.exe
 0003:00000c30       __imp_?New@External@v8@@SA?AV?$Local@VExternal@v8@@@2@PEAVIsolate@2@PEAX@Z 0000000180072c30     node:node.exe
 0003:00000c38       __imp_?NewFromUnsigned@Integer@v8@@SA?AV?$Local@VInteger@v8@@@2@PEAVIsolate@2@I@Z 0000000180072c38     node:node.exe
 0003:00000c40       __imp_?New@Integer@v8@@SA?AV?$Local@VInteger@v8@@@2@PEAVIsolate@2@H@Z 0000000180072c40     node:node.exe
 0003:00000c48       __imp_?New@Signature@v8@@SA?AV?$Local@VSignature@v8@@@2@PEAVIsolate@2@V?$Local@VFunctionTemplate@v8@@@2@@Z 0000000180072c48     node:node.exe
 0003:00000c50       __imp_?ThrowException@Isolate@v8@@QEAA?AV?$Local@VValue@v8@@@2@V32@@Z 0000000180072c50     node:node.exe
 0003:00000c58       __imp_?GetCurrentContext@Isolate@v8@@QEAA?AV?$Local@VContext@v8@@@2@XZ 0000000180072c58     node:node.exe
 0003:00000c60       __imp_?CreateHandle@HandleScope@v8@@KAPEAPEAVObject@internal@2@PEAVIsolate@42@PEAV342@@Z 0000000180072c60     node:node.exe
 0003:00000c68       __imp_?CreateHandle@HandleScope@v8@@CAPEAPEAVObject@internal@2@PEAVHeapObject@42@PEAV342@@Z 0000000180072c68     node:node.exe
 0003:00000c70       __imp_?Set@Template@v8@@QEAAXV?$Local@VName@v8@@@2@V?$Local@VData@v8@@@2@W4PropertyAttribute@2@@Z 0000000180072c70     node:node.exe
 0003:00000c78       __imp_?Error@Exception@v8@@SA?AV?$Local@VValue@v8@@@2@V?$Local@VString@v8@@@2@@Z 0000000180072c78     node:node.exe
 0003:00000c80       __imp_?TypeError@Exception@v8@@SA?AV?$Local@VValue@v8@@@2@V?$Local@VString@v8@@@2@@Z 0000000180072c80     node:node.exe
 0003:00000c88       __imp_?New@Array@v8@@SA?AV?$Local@VArray@v8@@@2@PEAVIsolate@2@H@Z 0000000180072c88     node:node.exe
 0003:00000c90       __imp_?Length@Array@v8@@QEBAIXZ 0000000180072c90     node:node.exe
 0003:00000c98       __imp_?SetClassName@FunctionTemplate@v8@@QEAAXV?$Local@VString@v8@@@2@@Z 0000000180072c98     node:node.exe
 0003:00000ca0       __imp_?PrototypeTemplate@FunctionTemplate@v8@@QEAA?AV?$Local@VObjectTemplate@v8@@@2@XZ 0000000180072ca0     node:node.exe
 0003:00000ca8       __imp_?InstanceTemplate@FunctionTemplate@v8@@QEAA?AV?$Local@VObjectTemplate@v8@@@2@XZ 0000000180072ca8     node:node.exe
 0003:00000cb0       __imp_?GetFunction@FunctionTemplate@v8@@QEAA?AV?$Local@VFunction@v8@@@2@XZ 0000000180072cb0     node:node.exe
 0003:00000cb8       __imp_?New@FunctionTemplate@v8@@SA?AV?$Local@VFunctionTemplate@v8@@@2@PEAVIsolate@2@P6AXAEBV?$FunctionCallbackInfo@VValue@v8@@@2@@ZV?$Local@VValue@v8@@@2@V?$Local@VSignature@v8@@@2@HW4ConstructorBehavior@2@@Z 0000000180072cb8     node:node.exe
 0003:00000cc0       __imp_?ToLocalEmpty@V8@v8@@CAXXZ 0000000180072cc0     node:node.exe
 0003:00000cc8       __imp_?ClearWeak@V8@v8@@CAPEAXPEAPEAVObject@internal@2@@Z 0000000180072cc8     node:node.exe
 0003:00000cd0       __imp_?MakeWeak@V8@v8@@CAXPEAPEAVObject@internal@2@PEAXP6AXAEBV?$WeakCallbackInfo@X@2@@ZW4WeakCallbackType@2@@Z 0000000180072cd0     node:node.exe
 0003:00000cd8       __imp_?DisposeGlobal@V8@v8@@CAXPEAPEAVObject@internal@2@@Z 0000000180072cd8     node:node.exe
 0003:00000ce0       __imp_?GlobalizeReference@V8@v8@@CAPEAPEAVObject@internal@2@PEAVIsolate@42@PEAPEAV342@@Z 0000000180072ce0     node:node.exe
 0003:00000ce8       __imp_?Uint32Value@Value@v8@@QEBAIXZ 0000000180072ce8     node:node.exe
 0003:00000cf0       __imp_?IntegerValue@Value@v8@@QEBA_JXZ 0000000180072cf0     node:node.exe
 0003:00000cf8       __imp_?NumberValue@Value@v8@@QEBANXZ 0000000180072cf8     node:node.exe
 0003:00000d00       __imp_?BooleanValue@Value@v8@@QEBA_NXZ 0000000180072d00     node:node.exe
 0003:00000d08       __imp_?ToInteger@Value@v8@@QEBA?AV?$MaybeLocal@VInteger@v8@@@2@V?$Local@VContext@v8@@@2@@Z 0000000180072d08     node:node.exe
 0003:00000d10       __imp_?IsInt32@Value@v8@@QEBA_NXZ 0000000180072d10     node:node.exe
 0003:00000d18       __imp_?IsNumber@Value@v8@@QEBA_NXZ 0000000180072d18     node:node.exe
 0003:00000d20       __imp_?IsObject@Value@v8@@QEBA_NXZ 0000000180072d20     node:node.exe
 0003:00000d28       __imp_?IsArray@Value@v8@@QEBA_NXZ 0000000180072d28     node:node.exe
 0003:00000d30       __imp_?IsFunction@Value@v8@@QEBA_NXZ 0000000180072d30     node:node.exe
 0003:00000d38       __imp_?HasCaught@TryCatch@v8@@QEBA_NXZ 0000000180072d38     node:node.exe
 0003:00000d40       __imp_??1TryCatch@v8@@QEAA@XZ 0000000180072d40     node:node.exe
 0003:00000d48       __imp_??0TryCatch@v8@@QEAA@PEAVIsolate@1@@Z 0000000180072d48     node:node.exe
 0003:00000d50       __imp_?Escape@EscapableHandleScope@v8@@AEAAPEAPEAVObject@internal@2@PEAPEAV342@@Z 0000000180072d50     node:node.exe
 0003:00000d58       __imp_??0EscapableHandleScope@v8@@QEAA@PEAVIsolate@1@@Z 0000000180072d58     node:node.exe
 0003:00000d60       __imp_??1Utf8Value@String@v8@@QEAA@XZ 0000000180072d60     node:node.exe
 0003:00000d68       __imp_??0Utf8Value@String@v8@@QEAA@V?$Local@VValue@v8@@@2@@Z 0000000180072d68     node:node.exe
 0003:00000d70       __imp_?NewFromUtf8@String@v8@@SA?AV?$MaybeLocal@VString@v8@@@2@PEAVIsolate@2@PEBDW4NewStringType@2@H@Z 0000000180072d70     node:node.exe
 0003:00000d78       __imp_?WriteUtf8@String@v8@@QEBAHPEADHPEAHH@Z 0000000180072d78     node:node.exe
 0003:00000d80       __imp_?Length@String@v8@@QEBAHXZ 0000000180072d80     node:node.exe
 0003:00000d88       __imp_?Value@Int32@v8@@QEBAHXZ 0000000180072d88     node:node.exe
 0003:00000d90       __imp_?New@Number@v8@@SA?AV?$Local@VNumber@v8@@@2@PEAVIsolate@2@N@Z 0000000180072d90     node:node.exe
 0003:00000d98       __imp_?Value@Number@v8@@QEBANXZ 0000000180072d98     node:node.exe
 0003:00000da0       __imp_?SlowGetAlignedPointerFromInternalField@Object@v8@@AEAAPEAXH@Z 0000000180072da0     node:node.exe
 0003:00000da8       __imp_?SlowGetInternalField@Object@v8@@AEAA?AV?$Local@VValue@v8@@@2@H@Z 0000000180072da8     node:node.exe
 0003:00000db0       __imp_?New@Object@v8@@SA?AV?$Local@VObject@v8@@@2@PEAVIsolate@2@@Z 0000000180072db0     node:node.exe
 0003:00000db8       __imp_?SetAlignedPointerInInternalField@Object@v8@@QEAAXHPEAX@Z 0000000180072db8     node:node.exe
 0003:00000dc0       __imp_?SetInternalField@Object@v8@@QEAAXHV?$Local@VValue@v8@@@2@@Z 0000000180072dc0     node:node.exe
 0003:00000dc8       __imp_?InternalFieldCount@Object@v8@@QEAAHXZ 0000000180072dc8     node:node.exe
 0003:00000dd0       __imp_?Has@Object@v8@@QEAA_NV?$Local@VValue@v8@@@2@@Z 0000000180072dd0     node:node.exe
 0003:00000dd8       __imp_?Get@Object@v8@@QEAA?AV?$Local@VValue@v8@@@2@V32@@Z 0000000180072dd8     node:node.exe
 0003:00000de0       __imp_?Get@Object@v8@@QEAA?AV?$Local@VValue@v8@@@2@I@Z 0000000180072de0     node:node.exe
 0003:00000de8       __imp_?Set@Object@v8@@QEAA_NV?$Local@VValue@v8@@@2@0@Z 0000000180072de8     node:node.exe
 0003:00000df0       __imp_?Set@Object@v8@@QEAA_NIV?$Local@VValue@v8@@@2@@Z 0000000180072df0     node:node.exe
 0003:00000df8       __imp_?NewInstance@Function@v8@@QEBA?AV?$Local@VObject@v8@@@2@HQEAV?$Local@VValue@v8@@@2@@Z 0000000180072df8     node:node.exe
 0003:00000e00       __imp_?NewInstance@Function@v8@@QEBA?AV?$Local@VObject@v8@@@2@XZ 0000000180072e00     node:node.exe
 0003:00000e08       __imp_?SetInternalFieldCount@ObjectTemplate@v8@@QEAAXH@Z 0000000180072e08     node:node.exe
 0003:00000e10       __imp_?NewInstance@ObjectTemplate@v8@@QEAA?AV?$MaybeLocal@VObject@v8@@@2@V?$Local@VContext@v8@@@2@@Z 0000000180072e10     node:node.exe
 0003:00000e18       __imp_?New@ObjectTemplate@v8@@SA?AV?$Local@VObjectTemplate@v8@@@2@PEAVIsolate@2@V?$Local@VFunctionTemplate@v8@@@2@@Z 0000000180072e18     node:node.exe
 0003:00000e20       __imp_?EmitAsyncDestroy@node@@YAXPEAVIsolate@v8@@Uasync_context@1@@Z 0000000180072e20     node:node.exe
 0003:00000e28       __imp_?FatalException@node@@YAXPEAVIsolate@v8@@AEBVTryCatch@3@@Z 0000000180072e28     node:node.exe
 0003:00000e30       __imp_?HasInstance@Buffer@node@@YA_NV?$Local@VValue@v8@@@v8@@@Z 0000000180072e30     node:node.exe
 0003:00000e38       __imp_?New@Buffer@node@@YA?AV?$MaybeLocal@VObject@v8@@@v8@@PEAVIsolate@4@_K@Z 0000000180072e38     node:node.exe
 0003:00000e40       __imp_?New@Buffer@node@@YA?AV?$MaybeLocal@VObject@v8@@@v8@@PEAVIsolate@4@PEAD_K@Z 0000000180072e40     node:node.exe
 0003:00000e48       __imp_?Data@Buffer@node@@YAPEADV?$Local@VValue@v8@@@v8@@@Z 0000000180072e48     node:node.exe
 0003:00000e50       __imp_?Data@Buffer@node@@YAPEADV?$Local@VObject@v8@@@v8@@@Z 0000000180072e50     node:node.exe
 0003:00000e58       __imp_?Length@Buffer@node@@YA_KV?$Local@VValue@v8@@@v8@@@Z 0000000180072e58     node:node.exe
 0003:00000e60       __imp_?MakeCallback@node@@YA?AV?$Local@VValue@v8@@@v8@@PEAVIsolate@3@V?$Local@VObject@v8@@@3@V?$Local@VFunction@v8@@@3@HPEAV23@@Z 0000000180072e60     node:node.exe
 0003:00000e68       __imp_?MakeCallback@node@@YA?AV?$MaybeLocal@VValue@v8@@@v8@@PEAVIsolate@3@V?$Local@VObject@v8@@@3@V?$Local@VFunction@v8@@@3@HPEAV?$Local@VValue@v8@@@3@Uasync_context@1@@Z 0000000180072e68     node:node.exe
 0003:00000e70       __imp_?EmitAsyncInit@node@@YA?AUasync_context@1@PEAVIsolate@v8@@V?$Local@VObject@v8@@@4@V?$Local@VString@v8@@@4@N@Z 0000000180072e70     node:node.exe
 0003:00000e78       __imp_uv_default_loop      0000000180072e78     node:node.exe
 0003:00000e80       __imp_?ToInt32@Value@v8@@QEBA?AV?$Local@VInt32@v8@@@2@XZ 0000000180072e80     node:node.exe
 0003:00000e88       __imp_?ToObject@Value@v8@@QEBA?AV?$Local@VObject@v8@@@2@XZ 0000000180072e88     node:node.exe
 0003:00000e90       __imp_?ToString@Value@v8@@QEBA?AV?$Local@VString@v8@@@2@XZ 0000000180072e90     node:node.exe
 0003:00000e98       __imp_?ToNumber@Value@v8@@QEBA?AV?$Local@VNumber@v8@@@2@XZ 0000000180072e98     node:node.exe
 0003:00000ea0       __imp_??1EscapableHandleScope@v8@@QEAA@XZ 0000000180072ea0     node:node.exe
 0003:00000ea8       __imp_?GetFunction@FunctionTemplate@v8@@QEAA?AV?$MaybeLocal@VFunction@v8@@@2@V?$Local@VContext@v8@@@2@@Z 0000000180072ea8     node:node.exe
 0003:00000eb0       __imp_?Call@Function@v8@@QEAA?AV?$Local@VValue@v8@@@2@V32@HQEAV32@@Z 0000000180072eb0     node:node.exe
 0003:00000eb8       __imp_?Length@Buffer@node@@YA_KV?$Local@VObject@v8@@@v8@@@Z 0000000180072eb8     node:node.exe
 0003:00000ec0       __imp_?SetAccessor@ObjectTemplate@v8@@QEAAXV?$Local@VName@v8@@@2@P6AX0AEBV?$PropertyCallbackInfo@VValue@v8@@@2@@ZP6AX0V?$Local@VValue@v8@@@2@AEBV?$PropertyCallbackInfo@X@2@@Z3W4AccessControl@2@W4PropertyAttribute@2@V?$Local@VAccessorSignature@v8@@@2@@Z 0000000180072ec0     node:node.exe
 0003:00000ec8       __imp_?Value@Boolean@v8@@QEBA_NXZ 0000000180072ec8     node:node.exe
 0003:00000ed0       __imp_?ToBoolean@Value@v8@@QEBA?AV?$Local@VBoolean@v8@@@2@XZ 0000000180072ed0     node:node.exe
 0003:00000ed8       \177node_NULL_THUNK_DATA_DLA 0000000180072ed8     node:node.exe
 0003:00000ee0       __hmod__node_exe           0000000180072ee0     node:node.exe
 0003:00001048       ?_Id_cnt@id@locale@std@@0HA 0000000180073048     libcpmt:locale0.obj
 0003:00001050       ?_Clocptr@_Locimp@locale@std@@0PEAV123@EA 0000000180073050     libcpmt:locale0.obj
 0003:00001060       ?id@?$ctype@_W@std@@2V0locale@2@A 0000000180073060     libcpmt:locale0.obj
 0003:00001068       ?id@?$ctype@D@std@@2V0locale@2@A 0000000180073068     libcpmt:locale0.obj
 0003:00001070       ?id@?$codecvt@GDU_Mbstatet@@@std@@2V0locale@2@A 0000000180073070     libcpmt:locale0.obj
 0003:00001078       ?id@?$ctype@G@std@@2V0locale@2@A 0000000180073078     libcpmt:locale0.obj
 0003:00001090       ?id@?$codecvt@_WDU_Mbstatet@@@std@@2V0locale@2@A 0000000180073090     libcpmt:locale0.obj
 0003:000010a0       ?_Raise_handler@std@@3P6AXAEBVexception@stdext@@@ZEA 00000001800730a0     libcpmt:raisehan.obj
 0003:000010b0       ?_Ptr_cin@std@@3PEAV?$basic_istream@DU?$char_traits@D@std@@@1@EA 00000001800730b0     libcpmt:iosptrs.obj
 0003:000010b8       ?_Ptr_cout@std@@3PEAV?$basic_ostream@DU?$char_traits@D@std@@@1@EA 00000001800730b8     libcpmt:iosptrs.obj
 0003:000010c0       ?_Ptr_cerr@std@@3PEAV?$basic_ostream@DU?$char_traits@D@std@@@1@EA 00000001800730c0     libcpmt:iosptrs.obj
 0003:000010c8       ?_Ptr_clog@std@@3PEAV?$basic_ostream@DU?$char_traits@D@std@@@1@EA 00000001800730c8     libcpmt:iosptrs.obj
 0003:000010d0       ?_Ptr_wcin@std@@3PEAV?$basic_istream@_WU?$char_traits@_W@std@@@1@EA 00000001800730d0     libcpmt:iosptrs.obj
 0003:000010d8       ?_Ptr_wcout@std@@3PEAV?$basic_ostream@_WU?$char_traits@_W@std@@@1@EA 00000001800730d8     libcpmt:iosptrs.obj
 0003:000010e0       ?_Ptr_wcerr@std@@3PEAV?$basic_ostream@_WU?$char_traits@_W@std@@@1@EA 00000001800730e0     libcpmt:iosptrs.obj
 0003:000010e8       ?_Ptr_wclog@std@@3PEAV?$basic_ostream@_WU?$char_traits@_W@std@@@1@EA 00000001800730e8     libcpmt:iosptrs.obj
 0003:00001148       ?id@?$num_get@DV?$istreambuf_iterator@DU?$char_traits@D@std@@@std@@@std@@2V0locale@2@A 0000000180073148     libcpmt:locale.obj
 0003:00001150       ?id@?$codecvt@DDU_Mbstatet@@@std@@2V0locale@2@A 0000000180073150     libcpmt:locale.obj
 0003:00001160       __encodedKERNEL32Functions 0000000180073160     libcpmt:winapisupp.obj
 0003:000012a0       ?id@?$time_put@_WV?$ostreambuf_iterator@_WU?$char_traits@_W@std@@@std@@@std@@2V0locale@2@A 00000001800732a0     libcpmt:wlocale.obj
 0003:000012a8       ?id@?$num_get@_WV?$istreambuf_iterator@_WU?$char_traits@_W@std@@@std@@@std@@2V0locale@2@A 00000001800732a8     libcpmt:wlocale.obj
 0003:000012b0       ?id@?$num_put@_WV?$ostreambuf_iterator@_WU?$char_traits@_W@std@@@std@@@std@@2V0locale@2@A 00000001800732b0     libcpmt:wlocale.obj
 0003:000012b8       ?id@?$numpunct@_W@std@@2V0locale@2@A 00000001800732b8     libcpmt:wlocale.obj
 0003:000012c0       ?id@?$collate@_W@std@@2V0locale@2@A 00000001800732c0     libcpmt:wlocale.obj
 0003:000012c8       ?id@?$messages@_W@std@@2V0locale@2@A 00000001800732c8     libcpmt:wlocale.obj
 0003:000012d0       ?id@?$money_get@_WV?$istreambuf_iterator@_WU?$char_traits@_W@std@@@std@@@std@@2V0locale@2@A 00000001800732d0     libcpmt:wlocale.obj
 0003:000012d8       ?id@?$money_put@_WV?$ostreambuf_iterator@_WU?$char_traits@_W@std@@@std@@@std@@2V0locale@2@A 00000001800732d8     libcpmt:wlocale.obj
 0003:000012e0       ?id@?$moneypunct@_W$0A@@std@@2V0locale@2@A 00000001800732e0     libcpmt:wlocale.obj
 0003:000012e8       ?id@?$moneypunct@_W$00@std@@2V0locale@2@A 00000001800732e8     libcpmt:wlocale.obj
 0003:000012f0       ?id@?$time_get@_WV?$istreambuf_iterator@_WU?$char_traits@_W@std@@@std@@@std@@2V0locale@2@A 00000001800732f0     libcpmt:wlocale.obj
 0003:000012f8       ?id@?$num_get@GV?$istreambuf_iterator@GU?$char_traits@G@std@@@std@@@std@@2V0locale@2@A 00000001800732f8     libcpmt:wlocale.obj
 0003:00001300       ?id@?$num_put@GV?$ostreambuf_iterator@GU?$char_traits@G@std@@@std@@@std@@2V0locale@2@A 0000000180073300     libcpmt:wlocale.obj
 0003:00001308       ?id@?$numpunct@G@std@@2V0locale@2@A 0000000180073308     libcpmt:wlocale.obj
 0003:00001310       ?id@?$collate@G@std@@2V0locale@2@A 0000000180073310     libcpmt:wlocale.obj
 0003:00001318       ?id@?$messages@G@std@@2V0locale@2@A 0000000180073318     libcpmt:wlocale.obj
 0003:00001320       ?id@?$money_get@GV?$istreambuf_iterator@GU?$char_traits@G@std@@@std@@@std@@2V0locale@2@A 0000000180073320     libcpmt:wlocale.obj
 0003:00001328       ?id@?$money_put@GV?$ostreambuf_iterator@GU?$char_traits@G@std@@@std@@@std@@2V0locale@2@A 0000000180073328     libcpmt:wlocale.obj
 0003:00001330       ?id@?$moneypunct@G$0A@@std@@2V0locale@2@A 0000000180073330     libcpmt:wlocale.obj
 0003:00001338       ?id@?$moneypunct@G$00@std@@2V0locale@2@A 0000000180073338     libcpmt:wlocale.obj
 0003:00001340       ?id@?$time_get@GV?$istreambuf_iterator@GU?$char_traits@G@std@@@std@@@std@@2V0locale@2@A 0000000180073340     libcpmt:wlocale.obj
 0003:00001348       ?id@?$time_put@GV?$ostreambuf_iterator@GU?$char_traits@G@std@@@std@@@std@@2V0locale@2@A 0000000180073348     libcpmt:wlocale.obj
 0003:00001350       ?id@?$collate@D@std@@2V0locale@2@A 0000000180073350     libcpmt:xlocale.obj
 0003:00001358       ?id@?$messages@D@std@@2V0locale@2@A 0000000180073358     libcpmt:xlocale.obj
 0003:00001360       ?id@?$money_get@DV?$istreambuf_iterator@DU?$char_traits@D@std@@@std@@@std@@2V0locale@2@A 0000000180073360     libcpmt:xlocale.obj
 0003:00001368       ?id@?$money_put@DV?$ostreambuf_iterator@DU?$char_traits@D@std@@@std@@@std@@2V0locale@2@A 0000000180073368     libcpmt:xlocale.obj
 0003:00001370       ?id@?$moneypunct@D$0A@@std@@2V0locale@2@A 0000000180073370     libcpmt:xlocale.obj
 0003:00001378       ?id@?$moneypunct@D$00@std@@2V0locale@2@A 0000000180073378     libcpmt:xlocale.obj
 0003:00001380       ?id@?$time_get@DV?$istreambuf_iterator@DU?$char_traits@D@std@@@std@@@std@@2V0locale@2@A 0000000180073380     libcpmt:xlocale.obj
 0003:00001388       ?id@?$time_put@DV?$ostreambuf_iterator@DU?$char_traits@D@std@@@std@@@std@@2V0locale@2@A 0000000180073388     libcpmt:xlocale.obj
 0003:000013d8       __scrt_current_native_startup_state 00000001800733d8     LIBCMT:utility.obj
 0003:000013e0       __scrt_native_startup_lock 00000001800733e0     LIBCMT:utility.obj
 0003:00001990       __scrt_debugger_hook_flag  0000000180073990     LIBCMT:utility_desktop.obj
 0003:00001994       _tls_index                 0000000180073994     LIBCMT:tlssup.obj
 0003:00001998       __favor                    0000000180073998     LIBCMT:_cpu_disp_.obj
 0003:000019a0       ?__type_info_root_node@@3U__type_info_node@@A 00000001800739a0     LIBCMT:tncleanup.obj
 0003:000019b0       ?_OptionsStorage@?1??__local_stdio_scanf_options@@9@4_KA 00000001800739b0     LIBCMT:default_local_stdio_options.obj
 0003:000019b8       ?g_OutOfMemoryExceptionCallback@@3P6APEAXXZEA 00000001800739b8     libvcruntime:frame.obj
 0003:00001a28       __pPurecall                0000000180073a28     libvcruntime:purevirt_data.obj
 0003:00001ad8       ?pArgList@UnDecorator@@0PEAVReplicator@@EA 0000000180073ad8     libvcruntime:undname.obj
 0003:00001ae0       ?pZNameList@UnDecorator@@0PEAVReplicator@@EA 0000000180073ae0     libvcruntime:undname.obj
 0003:00001ae8       ?pTemplateArgList@UnDecorator@@0PEAVReplicator@@EA 0000000180073ae8     libvcruntime:undname.obj
 0003:00001af0       ?gName@UnDecorator@@0PEBDEB 0000000180073af0     libvcruntime:undname.obj
 0003:00001af8       ?name@UnDecorator@@0PEBDEB 0000000180073af8     libvcruntime:undname.obj
 0003:00001b00       ?outputString@UnDecorator@@0PEADEA 0000000180073b00     libvcruntime:undname.obj
 0003:00001b08       ?maxStringLength@UnDecorator@@0HA 0000000180073b08     libvcruntime:undname.obj
 0003:00001b0c       ?disableFlags@UnDecorator@@0KA 0000000180073b0c     libvcruntime:undname.obj
 0003:00001b10       ?fExplicitTemplateParams@UnDecorator@@0_NA 0000000180073b10     libvcruntime:undname.obj
 0003:00001b11       ?fGetTemplateArgumentList@UnDecorator@@0_NA 0000000180073b11     libvcruntime:undname.obj
 0003:00001b18       ?m_pGetParameter@UnDecorator@@0P6APEADJ@ZEA 0000000180073b18     libvcruntime:undname.obj
 0003:00001b50       __acrt_lconv_static_null   0000000180073b50     libucrt:localeconv.obj
 0003:00001b54       __acrt_lconv_static_W_null 0000000180073b54     libucrt:localeconv.obj
 0003:00001b58       _nstream                   0000000180073b58     libucrt:_file.obj
 0003:00001b60       __piob                     0000000180073b60     libucrt:_file.obj
 0003:00001b68       _cflush                    0000000180073b68     libucrt:_file.obj
 0003:00001ea8       _environ_table             0000000180073ea8     libucrt:environment_initialization.obj
 0003:00001eb0       _wenviron_table            0000000180073eb0     libucrt:environment_initialization.obj
 0003:00001eb8       __dcrt_initial_wide_environment 0000000180073eb8     libucrt:environment_initialization.obj
 0003:00001ec0       __dcrt_initial_narrow_environment 0000000180073ec0     libucrt:environment_initialization.obj
 0003:00001ec8       __acrt_atexit_table        0000000180073ec8     libucrt:onexit.obj
 0003:00001ee0       __acrt_at_quick_exit_table 0000000180073ee0     libucrt:onexit.obj
 0003:00001f20       __acrt_stdout_buffer       0000000180073f20     libucrt:_sftbuf.obj
 0003:00001f28       __acrt_stderr_buffer       0000000180073f28     libucrt:_sftbuf.obj
 0003:00001f30       __acrt_locale_changed_data 0000000180073f30     libucrt:wsetlocale.obj
 0003:00001f38       __acrt_current_locale_data 0000000180073f38     libucrt:nlsdata.obj
 0003:00001f40       __pioinfo                  0000000180073f40     libucrt:ioinit.obj
 0003:00002340       _nhandle                   0000000180074340     libucrt:ioinit.obj
 0003:00002500       __acrt_heap                0000000180074500     libucrt:heap_handle.obj
 0003:00002508       __fma3_is_available        0000000180074508     libucrt:fma3_available.obj
 0003:0000250c       __use_fma3_lib             000000018007450c     libucrt:fma3_available.obj
 0003:00002510       ?_timezone@@3V?$dual_state_global@J@__crt_state_management@@A 0000000180074510     libucrt:timeset.obj
 0003:00002514       ?_daylight@@3V?$dual_state_global@H@__crt_state_management@@A 0000000180074514     libucrt:timeset.obj
 0003:00002518       ?_dstbias@@3V?$dual_state_global@J@__crt_state_management@@A 0000000180074518     libucrt:timeset.obj
 0003:000025ec       __mbcodepage               00000001800745ec     libucrt:mbctype.obj
 0003:000025f0       __ismbcodepage             00000001800745f0     libucrt:mbctype.obj
 0003:000025f8       __mbulinfo                 00000001800745f8     libucrt:mbctype.obj
 0003:00002608       __mblocalename             0000000180074608     libucrt:mbctype.obj
 0003:00002614       __argc                     0000000180074614     libucrt:argv_data.obj
 0003:00002618       __argv                     0000000180074618     libucrt:argv_data.obj
 0003:00002620       __wargv                    0000000180074620     libucrt:argv_data.obj
 0003:00002628       _acmdln                    0000000180074628     libucrt:argv_data.obj
 0003:00002630       _wcmdln                    0000000180074630     libucrt:argv_data.obj
 0003:00002638       _pgmptr                    0000000180074638     libucrt:argv_data.obj
 0003:00002648       ?DloadKernel32@@3PEAUHINSTANCE__@@EA 0000000180074648     DelayImp:delayhlp.obj
 0003:00002650       ?DloadAcquireSRWLockExclusive@@3P6AXPEA_K@ZEA 0000000180074650     DelayImp:delayhlp.obj
 0003:00002658       ?DloadReleaseSRWLockExclusive@@3P6AXPEA_K@ZEA 0000000180074658     DelayImp:delayhlp.obj
 0003:00002660       ?DloadSrwLock@@3_KA        0000000180074660     DelayImp:delayhlp.obj
 0003:00002668       ?DloadSectionLockCount@@3KA 0000000180074668     DelayImp:delayhlp.obj
 0003:0000266c       ?DloadSectionOldProtection@@3KA 000000018007466c     DelayImp:delayhlp.obj
 0003:00002670       ?DloadSectionCommitPermanent@@3KA 0000000180074670     DelayImp:delayhlp.obj
 0003:00002678       ?_OptionsStorage@?1??__local_stdio_printf_options@@9@4_KA 0000000180074678     init.obj
 0003:00002680       ?id@?$num_put@DV?$ostreambuf_iterator@DU?$char_traits@D@std@@@std@@@std@@2V0locale@2@A 0000000180074680     init.obj
 0003:00002688       ?id@?$numpunct@D@std@@2V0locale@2@A 0000000180074688     init.obj
 0003:00002690       ?policy@?$SinglePolicy@I@anyimpl@cvflann@@0U?$small_any_policy@I@23@A 0000000180074690     init.obj
 0003:00002698       ?policy@?$SinglePolicy@W4flann_algorithm_t@cvflann@@@anyimpl@cvflann@@0U?$big_any_policy@W4flann_algorithm_t@cvflann@@@23@A 0000000180074698     init.obj
 0003:000026a0       ?policy@?$SinglePolicy@Uempty_any@anyimpl@cvflann@@@anyimpl@cvflann@@0U?$big_any_policy@Uempty_any@anyimpl@cvflann@@@23@A 00000001800746a0     init.obj
 0003:000026a8       ?policy@?$SinglePolicy@_N@anyimpl@cvflann@@0U?$small_any_policy@_N@23@A 00000001800746a8     init.obj
 0003:000026b0       ?policy@?$SinglePolicy@V?$basic_string@DU?$char_traits@D@std@@V?$allocator@D@2@@std@@@anyimpl@cvflann@@0U?$big_any_policy@V?$basic_string@DU?$char_traits@D@std@@V?$allocator@D@2@@std@@@23@A 00000001800746b0     init.obj
 0003:000026b8       ?policy@?$SinglePolicy@H@anyimpl@cvflann@@0U?$small_any_policy@H@23@A 00000001800746b8     init.obj
 0003:000026c0       ?policy@?$SinglePolicy@M@anyimpl@cvflann@@0U?$small_any_policy@M@23@A 00000001800746c0     init.obj
 0003:000026c8       ?policy@?$SinglePolicy@W4flann_centers_init_t@cvflann@@@anyimpl@cvflann@@0U?$big_any_policy@W4flann_centers_init_t@cvflann@@@23@A 00000001800746c8     init.obj
 0003:000026d0       ?policy@?$SinglePolicy@PEBD@anyimpl@cvflann@@0U?$small_any_policy@PEBD@23@A 00000001800746d0     init.obj
 0003:000026d8       ?constructor@Matrix@@2V?$Persistent@VFunctionTemplate@v8@@V?$NonCopyablePersistentTraits@VFunctionTemplate@v8@@@2@@Nan@@A 00000001800746d8     Matrix.obj
 0003:000026e0       ?constructor@CascadeClassifierWrap@@2V?$Persistent@VFunctionTemplate@v8@@V?$NonCopyablePersistentTraits@VFunctionTemplate@v8@@@2@@Nan@@A 00000001800746e0     CascadeClassifierWrap.obj
 0003:000026e8       ?constructor@Contour@@2V?$Persistent@VFunctionTemplate@v8@@V?$NonCopyablePersistentTraits@VFunctionTemplate@v8@@@2@@Nan@@A 00000001800746e8     Contours.obj
 0003:000026f0       ?constructor@Point@@2V?$Persistent@VFunctionTemplate@v8@@V?$NonCopyablePersistentTraits@VFunctionTemplate@v8@@@2@@Nan@@A 00000001800746f0     Point.obj
 0003:000026f8       ?constructor@VideoCaptureWrap@@2V?$Persistent@VFunctionTemplate@v8@@V?$NonCopyablePersistentTraits@VFunctionTemplate@v8@@@2@@Nan@@A 00000001800746f8     VideoCaptureWrap.obj
 0003:00002700       ?constructor@TrackedObject@@2V?$Persistent@VFunctionTemplate@v8@@V?$NonCopyablePersistentTraits@VFunctionTemplate@v8@@@2@@Nan@@A 0000000180074700     CamShift.obj
 0003:00002708       ?constructor@NamedWindow@@2V?$Persistent@VFunctionTemplate@v8@@V?$NonCopyablePersistentTraits@VFunctionTemplate@v8@@@2@@Nan@@A 0000000180074708     HighGUI.obj
 0003:00002710       ?constructor@FaceRecognizerWrap@@2V?$Persistent@VFunctionTemplate@v8@@V?$NonCopyablePersistentTraits@VFunctionTemplate@v8@@@2@@Nan@@A 0000000180074710     FaceRecognizer.obj
 0003:00002718       ?constructor@BackgroundSubtractorWrap@@2V?$Persistent@VFunctionTemplate@v8@@V?$NonCopyablePersistentTraits@VFunctionTemplate@v8@@@2@@Nan@@A 0000000180074718     BackgroundSubtractor.obj
 0003:00002720       ?constructor@StereoBM@@2V?$Persistent@VFunctionTemplate@v8@@V?$NonCopyablePersistentTraits@VFunctionTemplate@v8@@@2@@Nan@@A 0000000180074720     Stereo.obj
 0003:00002728       ?constructor@StereoSGBM@@2V?$Persistent@VFunctionTemplate@v8@@V?$NonCopyablePersistentTraits@VFunctionTemplate@v8@@@2@@Nan@@A 0000000180074728     Stereo.obj
 0003:00002730       ?constructor@StereoGC@@2V?$Persistent@VFunctionTemplate@v8@@V?$NonCopyablePersistentTraits@VFunctionTemplate@v8@@@2@@Nan@@A 0000000180074730     Stereo.obj
 0003:00002738       ?constructor@LDAWrap@@2V?$Persistent@VFunctionTemplate@v8@@V?$NonCopyablePersistentTraits@VFunctionTemplate@v8@@@2@@Nan@@A 0000000180074738     LDAWrap.obj
 0003:00002740       __dyn_tls_init_callback    0000000180074740     <common>
 0003:00002748       __scrt_ucrt_dll_is_in_use  0000000180074748     <common>
 0006:00000000       _tls_start                 000000018007a000     LIBCMT:tlssup.obj
 0006:00000004       _Init_thread_epoch         000000018007a004     LIBCMT:thread_safe_statics.obj
 0006:00000008       _tls_end                   000000018007a008     LIBCMT:tlssup.obj

 entry point at        0001:0002ebec

 Static symbols

 0000:fff82000       .debug$S                   0000000180000000     node:node.exe
 0000:fff82000       .debug$S                   0000000180000000     opencv_imgproc2413:opencv_imgproc2413.dll
 0000:fff82000       .debug$S                   0000000180000000     opencv_imgproc2413:opencv_imgproc2413.dll
 0000:fff82000       .debug$S                   0000000180000000     opencv_imgproc2413:opencv_imgproc2413.dll
 0000:fff82000       .debug$S                   0000000180000000     opencv_imgproc2413:opencv_imgproc2413.dll
 0000:fff82000       .debug$S                   0000000180000000     opencv_imgproc2413:opencv_imgproc2413.dll
 0000:fff82000       .debug$S                   0000000180000000     opencv_imgproc2413:opencv_imgproc2413.dll
 0000:fff82000       .debug$S                   0000000180000000     opencv_imgproc2413:opencv_imgproc2413.dll
 0000:fff82000       .debug$S                   0000000180000000     opencv_imgproc2413:opencv_imgproc2413.dll
 0000:fff82000       .debug$S                   0000000180000000     opencv_imgproc2413:opencv_imgproc2413.dll
 0000:fff82000       .debug$S                   0000000180000000     opencv_imgproc2413:opencv_imgproc2413.dll
 0000:fff82000       .debug$S                   0000000180000000     opencv_imgproc2413:opencv_imgproc2413.dll
 0000:fff82000       .debug$S                   0000000180000000     opencv_imgproc2413:opencv_imgproc2413.dll
 0000:fff82000       .debug$S                   0000000180000000     opencv_imgproc2413:opencv_imgproc2413.dll
 0000:fff82000       .debug$S                   0000000180000000     opencv_imgproc2413:opencv_imgproc2413.dll
 0000:fff82000       .debug$S                   0000000180000000     opencv_imgproc2413:opencv_imgproc2413.dll
 0000:fff82000       .debug$S                   0000000180000000     opencv_imgproc2413:opencv_imgproc2413.dll
 0000:fff82000       .debug$S                   0000000180000000     opencv_imgproc2413:opencv_imgproc2413.dll
 0000:fff82000       .debug$S                   0000000180000000     opencv_imgproc2413:opencv_imgproc2413.dll
 0000:fff82000       .debug$S                   0000000180000000     opencv_imgproc2413:opencv_imgproc2413.dll
 0000:fff82000       .debug$S                   0000000180000000     opencv_imgproc2413:opencv_imgproc2413.dll
 0000:fff82000       .debug$S                   0000000180000000     opencv_imgproc2413:opencv_imgproc2413.dll
 0000:fff82000       .debug$S                   0000000180000000     opencv_imgproc2413:opencv_imgproc2413.dll
 0000:fff82000       .debug$S                   0000000180000000     opencv_imgproc2413:opencv_imgproc2413.dll
 0000:fff82000       .debug$S                   0000000180000000     opencv_imgproc2413:opencv_imgproc2413.dll
 0000:fff82000       .debug$S                   0000000180000000     opencv_imgproc2413:opencv_imgproc2413.dll
 0000:fff82000       .debug$S                   0000000180000000     opencv_imgproc2413:opencv_imgproc2413.dll
 0000:fff82000       .debug$S                   0000000180000000     opencv_imgproc2413:opencv_imgproc2413.dll
 0000:fff82000       .debug$S                   0000000180000000     opencv_imgproc2413:opencv_imgproc2413.dll
 0000:fff82000       .debug$S                   0000000180000000     opencv_highgui2413:opencv_highgui2413.dll
 0000:fff82000       .debug$S                   0000000180000000     opencv_highgui2413:opencv_highgui2413.dll
 0000:fff82000       .debug$S                   0000000180000000     opencv_highgui2413:opencv_highgui2413.dll
 0000:fff82000       .debug$S                   0000000180000000     opencv_highgui2413:opencv_highgui2413.dll
 0000:fff82000       .debug$S                   0000000180000000     opencv_highgui2413:opencv_highgui2413.dll
 0000:fff82000       .debug$S                   0000000180000000     opencv_highgui2413:opencv_highgui2413.dll
 0000:fff82000       .debug$S                   0000000180000000     opencv_highgui2413:opencv_highgui2413.dll
 0000:fff82000       .debug$S                   0000000180000000     opencv_highgui2413:opencv_highgui2413.dll
 0000:fff82000       .debug$S                   0000000180000000     opencv_highgui2413:opencv_highgui2413.dll
 0000:fff82000       .debug$S                   0000000180000000     opencv_highgui2413:opencv_highgui2413.dll
 0000:fff82000       .debug$S                   0000000180000000     opencv_features2d2413:opencv_features2d2413.dll
 0000:fff82000       .debug$S                   0000000180000000     opencv_features2d2413:opencv_features2d2413.dll
 0000:fff82000       .debug$S                   0000000180000000     opencv_features2d2413:opencv_features2d2413.dll
 0000:fff82000       .debug$S                   0000000180000000     opencv_features2d2413:opencv_features2d2413.dll
 0000:fff82000       .debug$S                   0000000180000000     opencv_video2413:opencv_video2413.dll
 0000:fff82000       .debug$S                   0000000180000000     opencv_objdetect2413:opencv_objdetect2413.dll
 0000:fff82000       .debug$S                   0000000180000000     opencv_objdetect2413:opencv_objdetect2413.dll
 0000:fff82000       .debug$S                   0000000180000000     opencv_objdetect2413:opencv_objdetect2413.dll
 0000:fff82000       .debug$S                   0000000180000000     opencv_legacy2413:opencv_legacy2413.dll
 0000:fff82000       .debug$S                   0000000180000000     opencv_features2d2413:opencv_features2d2413.dll
 0000:fff82000       .debug$S                   0000000180000000     opencv_legacy2413:opencv_legacy2413.dll
 0000:fff82000       .debug$S                   0000000180000000     opencv_imgproc2413:opencv_imgproc2413.dll
 0000:fff82000       .debug$S                   0000000180000000     opencv_imgproc2413:opencv_imgproc2413.dll
 0000:fff82000       .debug$S                   0000000180000000     opencv_imgproc2413:opencv_imgproc2413.dll
 0000:fff82000       .debug$S                   0000000180000000     opencv_imgproc2413:opencv_imgproc2413.dll
 0000:fff82000       .debug$S                   0000000180000000     opencv_imgproc2413:opencv_imgproc2413.dll
 0000:fff82000       .debug$S                   0000000180000000     opencv_imgproc2413:opencv_imgproc2413.dll
 0000:fff82000       .debug$S                   0000000180000000     opencv_imgproc2413:opencv_imgproc2413.dll
 0000:fff82000       .debug$S                   0000000180000000     opencv_imgproc2413:opencv_imgproc2413.dll
 0000:fff82000       .debug$S                   0000000180000000     opencv_imgproc2413:opencv_imgproc2413.dll
 0000:fff82000       .debug$S                   0000000180000000     opencv_imgproc2413:opencv_imgproc2413.dll
 0000:fff82000       .debug$S                   0000000180000000     opencv_imgproc2413:opencv_imgproc2413.dll
 0000:fff82000       .debug$S                   0000000180000000     opencv_imgproc2413:opencv_imgproc2413.dll
 0000:fff82000       .debug$S                   0000000180000000     opencv_features2d2413:opencv_features2d2413.dll
 0000:fff82000       .debug$S                   0000000180000000     opencv_core2413:opencv_core2413.dll
 0000:fff82000       .debug$S                   0000000180000000     opencv.exp
 0000:fff82000       .debug$S                   0000000180000000     kernel32:KERNEL32.dll
 0000:fff82000       .debug$S                   0000000180000000     kernel32:KERNEL32.dll
 0000:fff82000       .debug$S                   0000000180000000     kernel32:KERNEL32.dll
 0000:fff82000       .debug$S                   0000000180000000     kernel32:KERNEL32.dll
 0000:fff82000       .debug$S                   0000000180000000     kernel32:KERNEL32.dll
 0000:fff82000       .debug$S                   0000000180000000     kernel32:KERNEL32.dll
 0000:fff82000       .debug$S                   0000000180000000     kernel32:KERNEL32.dll
 0000:fff82000       .debug$S                   0000000180000000     kernel32:KERNEL32.dll
 0000:fff82000       .debug$S                   0000000180000000     kernel32:KERNEL32.dll
 0000:fff82000       .debug$S                   0000000180000000     kernel32:KERNEL32.dll
 0000:fff82000       .debug$S                   0000000180000000     kernel32:KERNEL32.dll
 0000:fff82000       .debug$S                   0000000180000000     kernel32:KERNEL32.dll
 0000:fff82000       .debug$S                   0000000180000000     kernel32:KERNEL32.dll
 0000:fff82000       .debug$S                   0000000180000000     kernel32:KERNEL32.dll
 0000:fff82000       .debug$S                   0000000180000000     kernel32:KERNEL32.dll
 0000:fff82000       .debug$S                   0000000180000000     kernel32:KERNEL32.dll
 0000:fff82000       .debug$S                   0000000180000000     kernel32:KERNEL32.dll
 0000:fff82000       .debug$S                   0000000180000000     kernel32:KERNEL32.dll
 0000:fff82000       .debug$S                   0000000180000000     kernel32:KERNEL32.dll
 0000:fff82000       .debug$S                   0000000180000000     kernel32:KERNEL32.dll
 0000:fff82000       .debug$S                   0000000180000000     kernel32:KERNEL32.dll
 0000:fff82000       .debug$S                   0000000180000000     kernel32:KERNEL32.dll
 0000:fff82000       .debug$S                   0000000180000000     kernel32:KERNEL32.dll
 0000:fff82000       .debug$S                   0000000180000000     kernel32:KERNEL32.dll
 0000:fff82000       .debug$S                   0000000180000000     kernel32:KERNEL32.dll
 0000:fff82000       .debug$S                   0000000180000000     kernel32:KERNEL32.dll
 0000:fff82000       .debug$S                   0000000180000000     kernel32:KERNEL32.dll
 0000:fff82000       .debug$S                   0000000180000000     kernel32:KERNEL32.dll
 0000:fff82000       .debug$S                   0000000180000000     kernel32:KERNEL32.dll
 0000:fff82000       .debug$S                   0000000180000000     kernel32:KERNEL32.dll
 0000:fff82000       .debug$S                   0000000180000000     kernel32:KERNEL32.dll
 0000:fff82000       .debug$S                   0000000180000000     kernel32:KERNEL32.dll
 0000:fff82000       .debug$S                   0000000180000000     kernel32:KERNEL32.dll
 0000:fff82000       .debug$S                   0000000180000000     kernel32:KERNEL32.dll
 0000:fff82000       .debug$S                   0000000180000000     kernel32:KERNEL32.dll
 0000:fff82000       .debug$S                   0000000180000000     kernel32:KERNEL32.dll
 0000:fff82000       .debug$S                   0000000180000000     kernel32:KERNEL32.dll
 0000:fff82000       .debug$S                   0000000180000000     kernel32:KERNEL32.dll
 0000:fff82000       .debug$S                   0000000180000000     kernel32:KERNEL32.dll
 0000:fff82000       .debug$S                   0000000180000000     kernel32:KERNEL32.dll
 0000:fff82000       .debug$S                   0000000180000000     kernel32:KERNEL32.dll
 0000:fff82000       .debug$S                   0000000180000000     kernel32:KERNEL32.dll
 0000:fff82000       .debug$S                   0000000180000000     kernel32:KERNEL32.dll
 0000:fff82000       .debug$S                   0000000180000000     kernel32:KERNEL32.dll
 0000:fff82000       .debug$S                   0000000180000000     kernel32:KERNEL32.dll
 0000:fff82000       .debug$S                   0000000180000000     kernel32:KERNEL32.dll
 0000:fff82000       .debug$S                   0000000180000000     kernel32:KERNEL32.dll
 0000:fff82000       .debug$S                   0000000180000000     kernel32:KERNEL32.dll
 0000:fff82000       .debug$S                   0000000180000000     kernel32:KERNEL32.dll
 0000:fff82000       .debug$S                   0000000180000000     kernel32:KERNEL32.dll
 0000:fff82000       .debug$S                   0000000180000000     kernel32:KERNEL32.dll
 0000:fff82000       .debug$S                   0000000180000000     kernel32:KERNEL32.dll
 0000:fff82000       .debug$S                   0000000180000000     kernel32:KERNEL32.dll
 0000:fff82000       .debug$S                   0000000180000000     kernel32:KERNEL32.dll
 0000:fff82000       .debug$S                   0000000180000000     kernel32:KERNEL32.dll
 0000:fff82000       .debug$S                   0000000180000000     kernel32:KERNEL32.dll
 0000:fff82000       .debug$S                   0000000180000000     kernel32:KERNEL32.dll
 0000:fff82000       .debug$S                   0000000180000000     kernel32:KERNEL32.dll
 0000:fff82000       .debug$S                   0000000180000000     kernel32:KERNEL32.dll
 0000:fff82000       .debug$S                   0000000180000000     kernel32:KERNEL32.dll
 0000:fff82000       .debug$S                   0000000180000000     kernel32:KERNEL32.dll
 0000:fff82000       .debug$S                   0000000180000000     kernel32:KERNEL32.dll
 0000:fff82000       .debug$S                   0000000180000000     kernel32:KERNEL32.dll
 0000:fff82000       .debug$S                   0000000180000000     kernel32:KERNEL32.dll
 0000:fff82000       .debug$S                   0000000180000000     kernel32:KERNEL32.dll
 0000:fff82000       .debug$S                   0000000180000000     kernel32:KERNEL32.dll
 0000:fff82000       .debug$S                   0000000180000000     kernel32:KERNEL32.dll
 0000:fff82000       .debug$S                   0000000180000000     kernel32:KERNEL32.dll
 0000:fff82000       .debug$S                   0000000180000000     kernel32:KERNEL32.dll
 0000:fff82000       .debug$S                   0000000180000000     kernel32:KERNEL32.dll
 0000:fff82000       .debug$S                   0000000180000000     kernel32:KERNEL32.dll
 0000:fff82000       .debug$S                   0000000180000000     kernel32:KERNEL32.dll
 0000:fff82000       .debug$S                   0000000180000000     kernel32:KERNEL32.dll
 0000:fff82000       .debug$S                   0000000180000000     kernel32:KERNEL32.dll
 0000:fff82000       .debug$S                   0000000180000000     kernel32:KERNEL32.dll
 0000:fff82000       .debug$S                   0000000180000000     kernel32:KERNEL32.dll
 0000:fff82000       .debug$S                   0000000180000000     kernel32:KERNEL32.dll
 0000:fff82000       .debug$S                   0000000180000000     kernel32:KERNEL32.dll
 0000:fff82000       .debug$S                   0000000180000000     kernel32:KERNEL32.dll
 0000:fff82000       .debug$S                   0000000180000000     kernel32:KERNEL32.dll
 0000:fff82000       .debug$S                   0000000180000000     kernel32:KERNEL32.dll
 0000:fff82000       .debug$S                   0000000180000000     kernel32:KERNEL32.dll
 0000:fff82000       .debug$S                   0000000180000000     kernel32:KERNEL32.dll
 0000:fff82000       .debug$S                   0000000180000000     kernel32:KERNEL32.dll
 0000:fff82000       .debug$S                   0000000180000000     kernel32:KERNEL32.dll
 0000:fff82000       .debug$S                   0000000180000000     kernel32:KERNEL32.dll
 0000:fff82000       .debug$S                   0000000180000000     kernel32:KERNEL32.dll
 0000:fff82000       .debug$S                   0000000180000000     kernel32:KERNEL32.dll
 0000:fff82000       .debug$S                   0000000180000000     kernel32:KERNEL32.dll
 0000:fff82000       .debug$S                   0000000180000000     kernel32:KERNEL32.dll
 0000:fff82000       .debug$S                   0000000180000000     kernel32:KERNEL32.dll
 0000:fff82000       .debug$S                   0000000180000000     kernel32:KERNEL32.dll
 0000:fff82000       .debug$S                   0000000180000000     kernel32:KERNEL32.dll
 0000:fff82000       .debug$S                   0000000180000000     kernel32:KERNEL32.dll
 0000:fff82000       .debug$S                   0000000180000000     kernel32:KERNEL32.dll
 0000:fff82000       .debug$S                   0000000180000000     kernel32:KERNEL32.dll
 0000:fff82000       .debug$S                   0000000180000000     kernel32:KERNEL32.dll
 0000:fff82000       .debug$S                   0000000180000000     kernel32:KERNEL32.dll
 0000:fff82000       .debug$S                   0000000180000000     kernel32:KERNEL32.dll
 0000:fff82000       .debug$S                   0000000180000000     kernel32:KERNEL32.dll
 0000:fff82000       .debug$S                   0000000180000000     node:node.exe
 0000:fff82000       .debug$S                   0000000180000000     node:node.exe
 0000:fff82000       .debug$S                   0000000180000000     node:node.exe
 0000:fff82000       .debug$S                   0000000180000000     node:node.exe
 0000:fff82000       .debug$S                   0000000180000000     node:node.exe
 0000:fff82000       .debug$S                   0000000180000000     node:node.exe
 0000:fff82000       .debug$S                   0000000180000000     node:node.exe
 0000:fff82000       .debug$S                   0000000180000000     node:node.exe
 0000:fff82000       .debug$S                   0000000180000000     node:node.exe
 0000:fff82000       .debug$S                   0000000180000000     node:node.exe
 0000:fff82000       .debug$S                   0000000180000000     node:node.exe
 0000:fff82000       .debug$S                   0000000180000000     node:node.exe
 0000:fff82000       .debug$S                   0000000180000000     node:node.exe
 0000:fff82000       .debug$S                   0000000180000000     node:node.exe
 0000:fff82000       .debug$S                   0000000180000000     node:node.exe
 0000:fff82000       .debug$S                   0000000180000000     node:node.exe
 0000:fff82000       .debug$S                   0000000180000000     node:node.exe
 0000:fff82000       .debug$S                   0000000180000000     node:node.exe
 0000:fff82000       .debug$S                   0000000180000000     node:node.exe
 0000:fff82000       .debug$S                   0000000180000000     node:node.exe
 0000:fff82000       .debug$S                   0000000180000000     node:node.exe
 0000:fff82000       .debug$S                   0000000180000000     node:node.exe
 0000:fff82000       .debug$S                   0000000180000000     node:node.exe
 0000:fff82000       .debug$S                   0000000180000000     node:node.exe
 0000:fff82000       .debug$S                   0000000180000000     node:node.exe
 0000:fff82000       .debug$S                   0000000180000000     node:node.exe
 0000:fff82000       .debug$S                   0000000180000000     node:node.exe
 0000:fff82000       .debug$S                   0000000180000000     node:node.exe
 0000:fff82000       .debug$S                   0000000180000000     node:node.exe
 0000:fff82000       .debug$S                   0000000180000000     node:node.exe
 0000:fff82000       .debug$S                   0000000180000000     node:node.exe
 0000:fff82000       .debug$S                   0000000180000000     node:node.exe
 0000:fff82000       .debug$S                   0000000180000000     node:node.exe
 0000:fff82000       .debug$S                   0000000180000000     node:node.exe
 0000:fff82000       .debug$S                   0000000180000000     node:node.exe
 0000:fff82000       .debug$S                   0000000180000000     node:node.exe
 0000:fff82000       .debug$S                   0000000180000000     node:node.exe
 0000:fff82000       .debug$S                   0000000180000000     node:node.exe
 0000:fff82000       .debug$S                   0000000180000000     node:node.exe
 0000:fff82000       .debug$S                   0000000180000000     node:node.exe
 0000:fff82000       .debug$S                   0000000180000000     node:node.exe
 0000:fff82000       .debug$S                   0000000180000000     node:node.exe
 0000:fff82000       .debug$S                   0000000180000000     node:node.exe
 0000:fff82000       .debug$S                   0000000180000000     node:node.exe
 0000:fff82000       .debug$S                   0000000180000000     node:node.exe
 0000:fff82000       .debug$S                   0000000180000000     node:node.exe
 0000:fff82000       .debug$S                   0000000180000000     node:node.exe
 0000:fff82000       .debug$S                   0000000180000000     node:node.exe
 0000:fff82000       .debug$S                   0000000180000000     node:node.exe
 0000:fff82000       .debug$S                   0000000180000000     node:node.exe
 0000:fff82000       .debug$S                   0000000180000000     node:node.exe
 0000:fff82000       .debug$S                   0000000180000000     node:node.exe
 0000:fff82000       .debug$S                   0000000180000000     node:node.exe
 0000:fff82000       .debug$S                   0000000180000000     node:node.exe
 0000:fff82000       .debug$S                   0000000180000000     node:node.exe
 0000:fff82000       .debug$S                   0000000180000000     node:node.exe
 0000:fff82000       .debug$S                   0000000180000000     node:node.exe
 0000:fff82000       .debug$S                   0000000180000000     node:node.exe
 0000:fff82000       .debug$S                   0000000180000000     node:node.exe
 0000:fff82000       .debug$S                   0000000180000000     node:node.exe
 0000:fff82000       .debug$S                   0000000180000000     node:node.exe
 0000:fff82000       .debug$S                   0000000180000000     node:node.exe
 0000:fff82000       .debug$S                   0000000180000000     node:node.exe
 0000:fff82000       .debug$S                   0000000180000000     node:node.exe
 0000:fff82000       .debug$S                   0000000180000000     node:node.exe
 0000:fff82000       .debug$S                   0000000180000000     node:node.exe
 0000:fff82000       .debug$S                   0000000180000000     node:node.exe
 0000:fff82000       .debug$S                   0000000180000000     node:node.exe
 0000:fff82000       .debug$S                   0000000180000000     node:node.exe
 0000:fff82000       .debug$S                   0000000180000000     node:node.exe
 0000:fff82000       .debug$S                   0000000180000000     node:node.exe
 0000:fff82000       .debug$S                   0000000180000000     node:node.exe
 0000:fff82000       .debug$S                   0000000180000000     node:node.exe
 0000:fff82000       .debug$S                   0000000180000000     node:node.exe
 0000:fff82000       .debug$S                   0000000180000000     node:node.exe
 0000:fff82000       .debug$S                   0000000180000000     node:node.exe
 0000:fff82000       .debug$S                   0000000180000000     node:node.exe
 0000:fff82000       .debug$S                   0000000180000000     node:node.exe
 0000:fff82000       .debug$S                   0000000180000000     node:node.exe
 0000:fff82000       .debug$S                   0000000180000000     node:node.exe
 0000:fff82000       .debug$S                   0000000180000000     node:node.exe
 0000:fff82000       .debug$S                   0000000180000000     node:node.exe
 0000:fff82000       .debug$S                   0000000180000000     node:node.exe
 0000:fff82000       .debug$S                   0000000180000000     node:node.exe
 0000:fff82000       .debug$S                   0000000180000000     node:node.exe
 0000:fff82000       .debug$S                   0000000180000000     node:node.exe
 0000:fff82000       .debug$S                   0000000180000000     node:node.exe
 0000:fff82000       .debug$S                   0000000180000000     node:node.exe
 0000:fff82000       .debug$S                   0000000180000000     node:node.exe
 0000:fff82000       .debug$S                   0000000180000000     node:node.exe
 0000:fff82000       .debug$S                   0000000180000000     node:node.exe
 0000:fff82000       .debug$S                   0000000180000000     node:node.exe
 0000:fff82000       .debug$S                   0000000180000000     node:node.exe
 0000:fff82000       .debug$S                   0000000180000000     node:node.exe
 0000:fff82000       .debug$S                   0000000180000000     node:node.exe
 0000:fff82000       .debug$S                   0000000180000000     node:node.exe
 0000:fff82000       .debug$S                   0000000180000000     node:node.exe
 0000:fff82000       .debug$S                   0000000180000000     node:node.exe
 0000:fff82000       .debug$S                   0000000180000000     opencv_core2413:opencv_core2413.dll
 0000:fff82000       .debug$S                   0000000180000000     node:node.exe
 0000:fff82000       .debug$S                   0000000180000000     node:node.exe
 0000:fff82000       .debug$S                   0000000180000000     node:node.exe
 0000:fff82000       .debug$S                   0000000180000000     node:node.exe
 0000:fff82000       .debug$S                   0000000180000000     node:node.exe
 0000:fff82000       .debug$S                   0000000180000000     node:node.exe
 0000:fff82000       .debug$S                   0000000180000000     opencv_calib3d2413:opencv_calib3d2413.dll
 0000:fff82000       .debug$S                   0000000180000000     opencv_calib3d2413:opencv_calib3d2413.dll
 0000:fff82000       .debug$S                   0000000180000000     opencv_calib3d2413:opencv_calib3d2413.dll
 0000:fff82000       .debug$S                   0000000180000000     opencv_calib3d2413:opencv_calib3d2413.dll
 0000:fff82000       .debug$S                   0000000180000000     opencv_calib3d2413:opencv_calib3d2413.dll
 0000:fff82000       .debug$S                   0000000180000000     opencv_calib3d2413:opencv_calib3d2413.dll
 0000:fff82000       .debug$S                   0000000180000000     opencv_calib3d2413:opencv_calib3d2413.dll
 0000:fff82000       .debug$S                   0000000180000000     opencv_calib3d2413:opencv_calib3d2413.dll
 0000:fff82000       .debug$S                   0000000180000000     opencv_calib3d2413:opencv_calib3d2413.dll
 0000:fff82000       .debug$S                   0000000180000000     opencv_calib3d2413:opencv_calib3d2413.dll
 0000:fff82000       .debug$S                   0000000180000000     opencv_calib3d2413:opencv_calib3d2413.dll
 0000:fff82000       .debug$S                   0000000180000000     opencv_calib3d2413:opencv_calib3d2413.dll
 0000:fff82000       .debug$S                   0000000180000000     opencv_calib3d2413:opencv_calib3d2413.dll
 0000:fff82000       .debug$S                   0000000180000000     opencv_calib3d2413:opencv_calib3d2413.dll
 0000:fff82000       .debug$S                   0000000180000000     opencv_calib3d2413:opencv_calib3d2413.dll
 0000:fff82000       .debug$S                   0000000180000000     opencv_contrib2413:opencv_contrib2413.dll
 0000:fff82000       .debug$S                   0000000180000000     opencv_contrib2413:opencv_contrib2413.dll
 0000:fff82000       .debug$S                   0000000180000000     opencv_contrib2413:opencv_contrib2413.dll
 0000:fff82000       .debug$S                   0000000180000000     opencv_contrib2413:opencv_contrib2413.dll
 0000:fff82000       .debug$S                   0000000180000000     opencv_contrib2413:opencv_contrib2413.dll
 0000:fff82000       .debug$S                   0000000180000000     opencv_contrib2413:opencv_contrib2413.dll
 0000:fff82000       .debug$S                   0000000180000000     opencv_core2413:opencv_core2413.dll
 0000:fff82000       .debug$S                   0000000180000000     opencv_core2413:opencv_core2413.dll
 0000:fff82000       .debug$S                   0000000180000000     opencv_core2413:opencv_core2413.dll
 0000:fff82000       .debug$S                   0000000180000000     opencv_core2413:opencv_core2413.dll
 0000:fff82000       .debug$S                   0000000180000000     opencv_core2413:opencv_core2413.dll
 0000:fff82000       .debug$S                   0000000180000000     opencv_core2413:opencv_core2413.dll
 0000:fff82000       .debug$S                   0000000180000000     opencv_core2413:opencv_core2413.dll
 0000:fff82000       .debug$S                   0000000180000000     opencv_core2413:opencv_core2413.dll
 0000:fff82000       .debug$S                   0000000180000000     opencv_core2413:opencv_core2413.dll
 0000:fff82000       .debug$S                   0000000180000000     opencv_core2413:opencv_core2413.dll
 0000:fff82000       .debug$S                   0000000180000000     opencv_core2413:opencv_core2413.dll
 0000:fff82000       .debug$S                   0000000180000000     opencv_core2413:opencv_core2413.dll
 0000:fff82000       .debug$S                   0000000180000000     opencv_core2413:opencv_core2413.dll
 0000:fff82000       .debug$S                   0000000180000000     opencv_core2413:opencv_core2413.dll
 0000:fff82000       .debug$S                   0000000180000000     opencv_core2413:opencv_core2413.dll
 0000:fff82000       .debug$S                   0000000180000000     opencv_core2413:opencv_core2413.dll
 0000:fff82000       .debug$S                   0000000180000000     opencv_core2413:opencv_core2413.dll
 0000:fff82000       .debug$S                   0000000180000000     opencv_core2413:opencv_core2413.dll
 0000:fff82000       .debug$S                   0000000180000000     opencv_core2413:opencv_core2413.dll
 0000:fff82000       .debug$S                   0000000180000000     opencv_core2413:opencv_core2413.dll
 0000:fff82000       .debug$S                   0000000180000000     opencv_core2413:opencv_core2413.dll
 0000:fff82000       .debug$S                   0000000180000000     opencv_core2413:opencv_core2413.dll
 0000:fff82000       .debug$S                   0000000180000000     opencv_core2413:opencv_core2413.dll
 0000:fff82000       .debug$S                   0000000180000000     opencv_core2413:opencv_core2413.dll
 0000:fff82000       .debug$S                   0000000180000000     opencv_core2413:opencv_core2413.dll
 0000:fff82000       .debug$S                   0000000180000000     opencv_core2413:opencv_core2413.dll
 0000:fff82000       .debug$S                   0000000180000000     opencv_core2413:opencv_core2413.dll
 0000:fff82000       .debug$S                   0000000180000000     opencv_core2413:opencv_core2413.dll
 0000:fff82000       .debug$S                   0000000180000000     opencv_core2413:opencv_core2413.dll
 0000:fff82000       .debug$S                   0000000180000000     opencv_core2413:opencv_core2413.dll
 0000:fff82000       .debug$S                   0000000180000000     opencv_core2413:opencv_core2413.dll
 0000:fff82000       .debug$S                   0000000180000000     opencv_core2413:opencv_core2413.dll
 0000:fff82000       .debug$S                   0000000180000000     opencv_core2413:opencv_core2413.dll
 0000:fff82000       .debug$S                   0000000180000000     opencv_core2413:opencv_core2413.dll
 0000:fff82000       .debug$S                   0000000180000000     opencv_core2413:opencv_core2413.dll
 0000:fff82000       .debug$S                   0000000180000000     opencv_core2413:opencv_core2413.dll
 0000:fff82000       .debug$S                   0000000180000000     opencv_core2413:opencv_core2413.dll
 0000:fff82000       .debug$S                   0000000180000000     opencv_core2413:opencv_core2413.dll
 0000:fff82000       .debug$S                   0000000180000000     opencv_core2413:opencv_core2413.dll
 0000:fff82000       .debug$S                   0000000180000000     opencv_core2413:opencv_core2413.dll
 0000:fff82000       .debug$S                   0000000180000000     opencv_core2413:opencv_core2413.dll
 0000:fff82000       .debug$S                   0000000180000000     opencv_core2413:opencv_core2413.dll
 0000:fff82000       .debug$S                   0000000180000000     opencv_core2413:opencv_core2413.dll
 0000:fff82000       .debug$S                   0000000180000000     opencv_core2413:opencv_core2413.dll
 0000:fff82000       .debug$S                   0000000180000000     opencv_core2413:opencv_core2413.dll
 0000:fff82000       .debug$S                   0000000180000000     opencv_core2413:opencv_core2413.dll
 0000:fff82000       .debug$S                   0000000180000000     opencv_core2413:opencv_core2413.dll
 0000:fff82000       .debug$S                   0000000180000000     opencv_core2413:opencv_core2413.dll
 0000:fff82000       .debug$S                   0000000180000000     opencv_core2413:opencv_core2413.dll
 0000:fff82000       .debug$S                   0000000180000000     opencv_core2413:opencv_core2413.dll
 0000:fff82000       .debug$S                   0000000180000000     opencv_core2413:opencv_core2413.dll
 0000:fff82000       .debug$S                   0000000180000000     opencv_core2413:opencv_core2413.dll
 0000:fff82000       .debug$S                   0000000180000000     opencv_core2413:opencv_core2413.dll
 0000:fff82000       .debug$S                   0000000180000000     opencv_core2413:opencv_core2413.dll
 0000:fff82000       .debug$S                   0000000180000000     opencv_core2413:opencv_core2413.dll
 0000:fff82000       .debug$S                   0000000180000000     opencv_core2413:opencv_core2413.dll
 0000:fff82000       .debug$S                   0000000180000000     opencv_core2413:opencv_core2413.dll
 0000:fff82000       .debug$S                   0000000180000000     opencv_core2413:opencv_core2413.dll
 0000:fff82000       .debug$S                   0000000180000000     opencv_core2413:opencv_core2413.dll
 0000:fff82000       .debug$S                   0000000180000000     opencv_core2413:opencv_core2413.dll
 0000:fff82000       .debug$S                   0000000180000000     opencv_core2413:opencv_core2413.dll
 0000:fff82000       .debug$S                   0000000180000000     opencv_core2413:opencv_core2413.dll
 0000:fff82000       .debug$S                   0000000180000000     opencv_core2413:opencv_core2413.dll
 0000:fff82000       .debug$S                   0000000180000000     opencv_core2413:opencv_core2413.dll
 0000:fff82000       .debug$S                   0000000180000000     opencv_core2413:opencv_core2413.dll
 0000:fff82000       .debug$S                   0000000180000000     opencv_core2413:opencv_core2413.dll
 0000:fff82000       .debug$S                   0000000180000000     opencv_core2413:opencv_core2413.dll
 0000:fff82000       .debug$S                   0000000180000000     opencv_core2413:opencv_core2413.dll
 0000:fff82000       .debug$S                   0000000180000000     opencv_core2413:opencv_core2413.dll
 0000:fff82000       .debug$S                   0000000180000000     opencv_core2413:opencv_core2413.dll
 0000:fff82000       .debug$S                   0000000180000000     opencv_core2413:opencv_core2413.dll
 0000:fff82000       .debug$S                   0000000180000000     opencv_core2413:opencv_core2413.dll
 0000:fff82000       .debug$S                   0000000180000000     opencv_core2413:opencv_core2413.dll
 0000:fff82000       .debug$S                   0000000180000000     opencv_core2413:opencv_core2413.dll
 0000:fff82000       .debug$S                   0000000180000000     opencv_core2413:opencv_core2413.dll
 0000:fff82000       .debug$S                   0000000180000000     opencv_core2413:opencv_core2413.dll
 0000:fff82000       .debug$S                   0000000180000000     opencv_imgproc2413:opencv_imgproc2413.dll
 0001:00000000       ??__E?constructor@Matrix@@2V?$Persistent@VFunctionTemplate@v8@@V?$NonCopyablePersistentTraits@VFunctionTemplate@v8@@@2@@Nan@@A@@YAXXZ 0000000180001000 f   Matrix.obj
 0001:00000030       ??__E?constructor@CascadeClassifierWrap@@2V?$Persistent@VFunctionTemplate@v8@@V?$NonCopyablePersistentTraits@VFunctionTemplate@v8@@@2@@Nan@@A@@YAXXZ 0000000180001030 f   CascadeClassifierWrap.obj
 0001:00000060       ??__E?constructor@Contour@@2V?$Persistent@VFunctionTemplate@v8@@V?$NonCopyablePersistentTraits@VFunctionTemplate@v8@@@2@@Nan@@A@@YAXXZ 0000000180001060 f   Contours.obj
 0001:00000090       ??__E?constructor@Point@@2V?$Persistent@VFunctionTemplate@v8@@V?$NonCopyablePersistentTraits@VFunctionTemplate@v8@@@2@@Nan@@A@@YAXXZ 0000000180001090 f   Point.obj
 0001:000000c0       ??__E?constructor@VideoCaptureWrap@@2V?$Persistent@VFunctionTemplate@v8@@V?$NonCopyablePersistentTraits@VFunctionTemplate@v8@@@2@@Nan@@A@@YAXXZ 00000001800010c0 f   VideoCaptureWrap.obj
 0001:000000f0       ??__E?constructor@TrackedObject@@2V?$Persistent@VFunctionTemplate@v8@@V?$NonCopyablePersistentTraits@VFunctionTemplate@v8@@@2@@Nan@@A@@YAXXZ 00000001800010f0 f   CamShift.obj
 0001:00000120       ??__E?constructor@NamedWindow@@2V?$Persistent@VFunctionTemplate@v8@@V?$NonCopyablePersistentTraits@VFunctionTemplate@v8@@@2@@Nan@@A@@YAXXZ 0000000180001120 f   HighGUI.obj
 0001:00000150       ??__E?constructor@FaceRecognizerWrap@@2V?$Persistent@VFunctionTemplate@v8@@V?$NonCopyablePersistentTraits@VFunctionTemplate@v8@@@2@@Nan@@A@@YAXXZ 0000000180001150 f   FaceRecognizer.obj
 0001:00000180       ??__E?constructor@BackgroundSubtractorWrap@@2V?$Persistent@VFunctionTemplate@v8@@V?$NonCopyablePersistentTraits@VFunctionTemplate@v8@@@2@@Nan@@A@@YAXXZ 0000000180001180 f   BackgroundSubtractor.obj
 0001:000001b0       ??__E?constructor@StereoBM@@2V?$Persistent@VFunctionTemplate@v8@@V?$NonCopyablePersistentTraits@VFunctionTemplate@v8@@@2@@Nan@@A@@YAXXZ 00000001800011b0 f   Stereo.obj
 0001:000001e0       ??__E?constructor@StereoSGBM@@2V?$Persistent@VFunctionTemplate@v8@@V?$NonCopyablePersistentTraits@VFunctionTemplate@v8@@@2@@Nan@@A@@YAXXZ 00000001800011e0 f   Stereo.obj
 0001:00000210       ??__E?constructor@StereoGC@@2V?$Persistent@VFunctionTemplate@v8@@V?$NonCopyablePersistentTraits@VFunctionTemplate@v8@@@2@@Nan@@A@@YAXXZ 0000000180001210 f   Stereo.obj
 0001:00000240       ??__E?constructor@LDAWrap@@2V?$Persistent@VFunctionTemplate@v8@@V?$NonCopyablePersistentTraits@VFunctionTemplate@v8@@@2@@Nan@@A@@YAXXZ 0000000180001240 f   LDAWrap.obj
 0001:00000268       ??__Einitlocks@std@@YAXXZ  0000000180001268 f   libcpmt:xlock.obj
 0001:00000288       ??__E_Fac_tidy_reg@std@@YAXXZ 0000000180001288 f   libcpmt:locale0.obj
 0001:00000294       ??__Eclassic_locale@std@@YAXXZ 0000000180001294 f   libcpmt:locale0.obj
 0001:000002a0       ??__Einit_atexit@@YAXXZ    00000001800012a0 f   libcpmt:iosptrs.obj
 0001:000002ac       ??__Einitlocks@std@@YAXXZ  00000001800012ac f   libcpmt:iosptrs.obj
 0001:00000420       _register_opencv           0000000180001420 f   init.obj
 0001:00000ea0       ?FunctionCallbackWrapper@imp@Nan@@YAXAEBV?$FunctionCallbackInfo@VValue@v8@@@v8@@@Z 0000000180001ea0 f   Matrix.obj
 0001:0001b100       ?GetterCallbackWrapper@imp@Nan@@YAXV?$Local@VName@v8@@@v8@@AEBV?$PropertyCallbackInfo@VValue@v8@@@4@@Z 000000018001c100 f   Point.obj
 0001:0001b1d0       ?SetterCallbackWrapper@imp@Nan@@YAXV?$Local@VName@v8@@@v8@@V?$Local@VValue@v8@@@4@AEBV?$PropertyCallbackInfo@X@4@@Z 000000018001c1d0 f   Point.obj
 0001:0002c218       $LN1658                    000000018002d218     Stereo.obj
 0001:0002d440       ?load_exe_hook@@YAP6A_JXZIPEAUDelayLoadInfo@@@Z 000000018002e440 f   win_delay_load_hook.obj
 0001:0002dd88       ?initialize_pointers@@YAHXZ 000000018002ed88 f   libcpmt:winapisupp.obj
 0001:0002e2c0       $$000000                   000000018002f2c0     LIBCMT:_amdsecgs_.obj
 0001:0002e2f4       ?__scrt_initialize_thread_safe_statics@@YAHXZ 000000018002f2f4 f   LIBCMT:thread_safe_statics.obj
 0001:0002e414       ?__scrt_uninitialize_thread_safe_statics@@YAXXZ 000000018002f414 f   LIBCMT:thread_safe_statics.obj
 0001:0002e8a0       ?dllmain_crt_dispatch@@YAHQEAUHINSTANCE__@@KQEAX@Z 000000018002f8a0 f   LIBCMT:dll_dllmain.obj
 0001:0002e8f0       ?dllmain_crt_process_attach@@YAHQEAUHINSTANCE__@@QEAX@Z 000000018002f8f0 f   LIBCMT:dll_dllmain.obj
 0001:0002ea1c       ?dllmain_crt_process_detach@@YAH_N@Z 000000018002fa1c f   LIBCMT:dll_dllmain.obj
 0001:0002eaa0       ?dllmain_dispatch@@YAHQEAUHINSTANCE__@@KQEAX@Z 000000018002faa0 f   LIBCMT:dll_dllmain.obj
 0001:0002eb98       ?dllmain_raw@@YAHQEAUHINSTANCE__@@KQEAX@Z 000000018002fb98 f   LIBCMT:dll_dllmain.obj
 0001:0002ed30       $$000000                   000000018002fd30     LIBCMT:_chkstk_.obj
 0001:0002ef4c       capture_current_context    000000018002ff4c f   LIBCMT:gs_report.obj
 0001:0002efbc       capture_previous_context   000000018002ffbc f   LIBCMT:gs_report.obj
 0001:0002f570       $$000000                   0000000180030570     libvcruntime:memcpy.obj
 0001:0002f617       MoveSmall                  0000000180030617     libvcruntime:memcpy.obj
 0001:0002fb20       ?CatchIt@@YAXPEAUEHExceptionRecord@@PEA_KPEAU_CONTEXT@@PEAU_xDISPATCHER_CONTEXT@@PEBU_s_FuncInfo@@PEBU_s_HandlerType@@PEBU_s_CatchableType@@PEBU_s_TryBlockMapEntry@@H1EE@Z 0000000180030b20 f   libvcruntime:frame.obj
 0001:0002fbe4       ?ExFilterRethrow@@YAHPEAU_EXCEPTION_POINTERS@@PEAUEHExceptionRecord@@PEAH@Z 0000000180030be4 f   libvcruntime:frame.obj
 0001:0002fc6c       ?FindHandler@@YAXPEAUEHExceptionRecord@@PEA_KPEAU_CONTEXT@@PEAU_xDISPATCHER_CONTEXT@@PEBU_s_FuncInfo@@EH1@Z 0000000180030c6c f   libvcruntime:frame.obj
 0001:0003013c       ?FindHandlerForForeignException@@YAXPEAUEHExceptionRecord@@PEA_KPEAU_CONTEXT@@PEAU_xDISPATCHER_CONTEXT@@PEBU_s_FuncInfo@@HH1@Z 000000018003113c f   libvcruntime:frame.obj
 0001:000303a8       ?IsInExceptionSpec@@YAEPEAUEHExceptionRecord@@PEBU_s_ESTypeList@@@Z 00000001800313a8 f   libvcruntime:frame.obj
 0001:00031720       $$000000                   0000000180032720     libvcruntime:memset.obj
 0001:0003180c       MsetTab                    000000018003280c     libvcruntime:memset.obj
 0001:000318d0       $$000000                   00000001800328d0     libvcruntime:memcmp.obj
 0001:000319a8       ?try_get_function@@YAPEAXW4function_id@?A0x679b24ab@@QEBDQEBW4module_id@2@2@Z 00000001800329a8 f   libvcruntime:winapi_downlevel.obj
 0001:00032390       $$000000                   0000000180033390     libvcruntime:handlers.obj
 0001:000323e0       $$000000                   00000001800333e0     libvcruntime:_jmpuwind_.obj
 0001:00032e14       ??R<lambda_0a64b6a4deda75c01876f29c44fc5eb3>@@QEBAHXZ 0000000180033e14 f   libucrt:output.obj
 0001:00032f04       ??R<lambda_dd75445284c072d0bd3768540cc698fa>@@QEBAHXZ 0000000180033f04 f   libucrt:output.obj
 0001:00036714       ??$common_assert_to_message_box@_W@@YAXQEB_W0IQEAX@Z 0000000180037714 f   libucrt:assert.obj
 0001:000367d8       ??$common_assert_to_message_box_build_string@_W@@YAXQEA_W_KQEB_W2IQEAX@Z 00000001800377d8 f   libucrt:assert.obj
 0001:00036fac       ??$common_assert_to_stderr@_W@@YAXQEB_W0I@Z 0000000180037fac f   libucrt:assert.obj
 0001:0003711c       ?get_assert_format@@YAPEB_W_W@Z 000000018003811c f   libucrt:assert.obj
 0001:0003762c       ?x_ismbbtype_l@@YAHPEAU__crt_locale_pointers@@IHH@Z 000000018003862c f   libucrt:ismbbyte.obj
 0001:00037c80       $$000000                   0000000180038c80     libucrt:pow.obj
 0001:00039320       $$000000                   000000018003a320     libucrt:powf.obj
 0001:0003a240       ?internal_isupper_l@@YA_NHQEAU__crt_locale_pointers@@@Z 000000018003b240 f   libucrt:tolower_toupper.obj
 0001:0003a9d0       ?atexit_exception_filter@@YAHK@Z 000000018003b9d0 f   libucrt:exit.obj
 0001:0003a9dc       ?common_exit@@YAXHW4_crt_exit_cleanup_mode@@W4_crt_exit_return_mode@@@Z 000000018003b9dc f   libucrt:exit.obj
 0001:0003ab48       ?exit_or_terminate_process@@YAXI@Z 000000018003bb48 f   libucrt:exit.obj
 0001:0003ab94       ?try_cor_exit_process@@YAXI@Z 000000018003bb94 f   libucrt:exit.obj
 0001:0003ac2c       ??$parse_command_line@D@@YAXPEADPEAPEAD0PEA_K2@Z 000000018003bc2c f   libucrt:argv_parsing.obj
 0001:0003afc4       ??$common_initialize_environment_nolock@D@@YAHXZ 000000018003bfc4 f   libucrt:environment_initialization.obj
 0001:0003b030       ??$create_environment@D@@YAQEAPEADQEAD@Z 000000018003c030 f   libucrt:environment_initialization.obj
 0001:0003b12c       ??$free_environment@D@@YAXQEAPEAD@Z 000000018003c12c f   libucrt:environment_initialization.obj
 0001:0003b12c       ??$free_environment@_W@@YAXQEAPEA_W@Z 000000018003c12c f   libucrt:environment_initialization.obj
 0001:0003b170       ??$uninitialize_environment_internal@D@@YAXAEAPEAPEAD@Z 000000018003c170 f   libucrt:environment_initialization.obj
 0001:0003b18c       ??$uninitialize_environment_internal@_W@@YAXAEAPEAPEA_W@Z 000000018003c18c f   libucrt:environment_initialization.obj
 0001:0003b3c4       ??R<lambda_4e60a939b0d047cfe11ddc22648dfba9>@@QEBAHXZ 000000018003c3c4 f   libucrt:onexit.obj
 0001:0003b674       initialize_global_variables 000000018003c674 f   libucrt:initialization.obj
 0001:0003b688       initialize_c               000000018003c688 f   libucrt:initialization.obj
 0001:0003b6ac       uninitialize_environment   000000018003c6ac f   libucrt:initialization.obj
 0001:0003b6bc       initialize_global_state_isolation 000000018003c6bc f   libucrt:initialization.obj
 0001:0003b6bc       initialize_environment     000000018003c6bc f   libucrt:initialization.obj
 0001:0003b6bc       uninitialize_c             000000018003c6bc f   libucrt:initialization.obj
 0001:0003b6bc       uninitialize_global_state_isolation 000000018003c6bc f   libucrt:initialization.obj
 0001:0003b6bc       report_memory_leaks        000000018003c6bc f   libucrt:initialization.obj
 0001:0003b6c0       initialize_pointers        000000018003c6c0 f   libucrt:initialization.obj
 0001:0003b714       uninitialize_vcruntime     000000018003c714 f   libucrt:initialization.obj
 0001:0003b71c       uninitialize_allocated_memory 000000018003c71c f   libucrt:initialization.obj
 0001:0003c7c4       ?construct_ptd_array@@YAXQEAU__acrt_ptd@@@Z 000000018003d7c4 f   libucrt:per_thread_data.obj
 0001:0003c894       ?destroy_fls@@YAXPEAX@Z    000000018003d894 f   libucrt:per_thread_data.obj
 0001:0003c8b4       ?destroy_ptd_array@@YAXQEAU__acrt_ptd@@@Z 000000018003d8b4 f   libucrt:per_thread_data.obj
 0001:0003c9ac       ?replace_current_thread_locale_nolock@@YAXQEAU__acrt_ptd@@QEAU__crt_locale_data@@@Z 000000018003d9ac f   libucrt:per_thread_data.obj
 0001:0003d004       ?fp_format_a@@YAHQEBNPEAD_KQEAD2H_NIQEAU__crt_locale_pointers@@@Z 000000018003e004 f   libucrt:cvt.obj
 0001:0003d364       ?fp_format_e@@YAHQEBNQEAD_K12H_NIQEAU__crt_locale_pointers@@@Z 000000018003e364 f   libucrt:cvt.obj
 0001:0003d434       ?fp_format_e_internal@@YAHQEAD_KH_NIQEAU_strflt@@2QEAU__crt_locale_pointers@@@Z 000000018003e434 f   libucrt:cvt.obj
 0001:0003d610       ?fp_format_f_internal@@YAHQEAD_KHQEAU_strflt@@_NQEAU__crt_locale_pointers@@@Z 000000018003e610 f   libucrt:cvt.obj
 0001:0003d758       ?fp_format_g@@YAHQEBNQEAD_K12H_NIQEAU__crt_locale_pointers@@@Z 000000018003e758 f   libucrt:cvt.obj
 0001:0003d890       ?fp_format_nan_or_infinity@@YAHW4__acrt_fp_class@@_NPEAD_K1@Z 000000018003e890 f   libucrt:cvt.obj
 0001:0003df4c       ?initialize_inherited_file_handles_nolock@@YAXXZ 000000018003ef4c f   libucrt:ioinit.obj
 0001:0003e038       ?initialize_stdio_handles_nolock@@YAXXZ 000000018003f038 f   libucrt:ioinit.obj
 0001:0003e60c       ?try_get_function@@YAPEAXW4function_id@?A0x63058377@@QEBDQEBW4module_id@2@2@Z 000000018003f60c f   libucrt:winapi_thunks.obj
 0001:0003efbc       common_flush_all           000000018003ffbc f   libucrt:fflush.obj
 0001:0003f244       ??$common_xtox@K_W@@YAHKQEA_W_KI_N@Z 0000000180040244 f   libucrt:xtoa.obj
 0001:0003f2f0       ??$common_xtox_s@K_W@@YAHKQEA_W_KI_N@Z 00000001800402f0 f   libucrt:xtoa.obj
 0001:0003f54c       ??$message_box_wait_thread@_W@@YAKQEAX@Z 000000018004054c f   libucrt:crtmbox.obj
 0001:0003f6d0       ??R<lambda_b721fa326cdb32351d23dfa67958c160>@@QEBAHXZ 00000001800406d0 f   libucrt:setvbuf.obj
 0001:0003fb54       ?__acrt_LCMapStringA_stat@@YAHPEAU__crt_locale_pointers@@PEB_WKPEBDHPEADHHH@Z 0000000180040b54 f   libucrt:lcmapstringa.obj
 0001:00040350       ?<helper_func_cdecl>@<lambda_2feae5270eb4d0d5532525f423405775>@@CAHPEBX0@Z 0000000180041350 f   libucrt:argv_wildcards.obj
 0001:00040364       ??$common_expand_argv_wildcards@D@@YAHQEAPEADQEAPEAPEAD@Z 0000000180041364 f   libucrt:argv_wildcards.obj
 0001:00040570       ??$copy_and_add_argument_to_buffer@D@@YAHQEBD0_KAEAV?$argument_list@D@?A0xca0879c4@@@Z 0000000180041570 f   libucrt:argv_wildcards.obj
 0001:00040680       ??$expand_argument_wildcards@D@@YAHQEAD0AEAV?$argument_list@D@?A0xca0879c4@@@Z 0000000180041680 f   libucrt:argv_wildcards.obj
 0001:00040934       ??R<lambda_ad1ced32f4ac17aa236e5ef05d6b3b7c>@@QEBAXXZ 0000000180041934 f   libucrt:mbctype.obj
 0001:00040b4c       ?getSystemCP@@YAHH@Z       0000000180041b4c f   libucrt:mbctype.obj
 0001:00040bcc       ?setSBCS@@YAXPEAU__crt_multibyte_data@@@Z 0000000180041bcc f   libucrt:mbctype.obj
 0001:00040c5c       ?setSBUpLow@@YAXPEAU__crt_multibyte_data@@@Z 0000000180041c5c f   libucrt:mbctype.obj
 0001:00040e40       ?setmbcp_internal@@YAHH_N@Z 0000000180041e40 f   libucrt:mbctype.obj
 0001:00042ee0       memcpy_s                   0000000180043ee0 f   libucrt:strtod.obj
 0001:00042ee0       memcpy_s                   0000000180043ee0 f   libucrt:cfout.obj
 0001:00042f68       ??$write_buffer_nolock@D@@YA_NDV__crt_stdio_stream@@@Z 0000000180043f68 f   libucrt:_flsbuf.obj
 0001:0004306c       ??$write_buffer_nolock@_W@@YA_N_WV__crt_stdio_stream@@@Z 000000018004406c f   libucrt:_flsbuf.obj
 0001:00043524       ?free_crt_array_internal@@YAXQEAPEBX_K@Z 0000000180044524 f   libucrt:inittime.obj
 0001:000439a0       $$000000                   00000001800449a0     libucrt:fpsr.obj
 0001:00043a00       ?GetTableIndexFromLocaleName@@YAHPEB_W@Z 0000000180044a00 f   libucrt:lcidtoname_downlevel.obj
 0001:00043d0c       ?write_double_translated_ansi_nolock@@YA?AUwrite_result@?A0x9c548279@@HQEBDI@Z 0000000180044d0c f   libucrt:write.obj
 0001:00043f14       ?write_text_ansi_nolock@@YA?AUwrite_result@?A0x9c548279@@HQEBDI@Z 0000000180044f14 f   libucrt:write.obj
 0001:0004401c       ?write_text_utf16le_nolock@@YA?AUwrite_result@?A0x9c548279@@HQEBDI@Z 000000018004501c f   libucrt:write.obj
 0001:00044138       ?write_text_utf8_nolock@@YA?AUwrite_result@?A0x9c548279@@HQEBDI@Z 0000000180045138 f   libucrt:write.obj
 0001:000447d8       _call_matherr              00000001800457d8 f   libucrt:libm_error.obj
 0001:00044840       _exception_enabled         0000000180045840 f   libucrt:libm_error.obj
 0001:00044b90       ?shortsort@@YAXPEAD0_KP6AHPEBX2@Z@Z 0000000180045b90 f   libucrt:qsort.obj
 0001:000450d4       ?initialize_multibyte@@YAHXZ 00000001800460d4 f   libucrt:multibyte_initializer.obj
 0001:000452b0       $$000000                   00000001800462b0     libucrt:log10.obj
 0001:0004585c       ??$common_lseek@_J@@YA_JH_JH@Z 000000018004685c f   libucrt:lseek.obj
 0001:0004594c       ??$common_lseek_nolock@_J@@YA_JH_JH@Z 000000018004694c f   libucrt:lseek.obj
 0001:00045d78       common_control87           0000000180046d78 f   libucrt:ieee.obj
 0001:00046030       _log_special_common        0000000180047030 f   libucrt:log_special.obj
 0001:00046a90       $$000000                   0000000180047a90     libucrt:strcmp.obj
 0001:00046b10       $$000000                   0000000180047b10     LIBCMT:_guard_dispatch_.obj
 0001:00046b30       ?dtor$0@?0???1HandleScope@Nan@@QEAA@XZ@4HA 0000000180047b30 f   init.obj
 0001:00046b40       init$dtor$1                0000000180047b40 f   init.obj
 0001:00046b4e       init$dtor$0                0000000180047b4e f   init.obj
 0001:00046b5a       init$dtor$3                0000000180047b5a f   init.obj
 0001:00046b68       init$dtor$2                0000000180047b68 f   init.obj
 0001:00046b74       init$dtor$4                0000000180047b74 f   init.obj
 0001:00046b82       init$dtor$5                0000000180047b82 f   init.obj
 0001:00046b90       ?dtor$0@?0??clone@Mat@cv@@QEBA?AV12@XZ@4HA 0000000180047b90 f   Matrix.obj
 0001:00046bc0       ?dtor$0@?0???BMatExpr@cv@@QEBA?AVMat@1@XZ@4HA 0000000180047bc0 f   Matrix.obj
 0001:00046bc0       ?dtor$0@?0???RMat@cv@@QEBA?AV01@AEBV?$Rect_@H@1@@Z@4HA 0000000180047bc0 f   Matrix.obj
 0001:00046bf0       ?dtor$0@?0??NewInstance@Nan@@YA?AV?$MaybeLocal@VObject@v8@@@v8@@V?$Local@VObjectTemplate@v8@@@3@@Z@4HA 0000000180047bf0 f   Matrix.obj
 0001:00046bf0       ?dtor$0@?0??convert@?$ToFactory@VInteger@v8@@@imp@Nan@@SA?AV?$MaybeLocal@VInteger@v8@@@v8@@V?$Local@VValue@v8@@@5@@Z@4HA 0000000180047bf0 f   Matrix.obj
 0001:00046bf0       ?dtor$0@?0??GetFunction@Nan@@YA?AV?$MaybeLocal@VFunction@v8@@@v8@@V?$Local@VFunctionTemplate@v8@@@3@@Z@4HA 0000000180047bf0 f   OpenCV.obj
 0001:00046bfe       ?dtor$1@?0??convert@?$ToFactory@VInteger@v8@@@imp@Nan@@SA?AV?$MaybeLocal@VInteger@v8@@@v8@@V?$Local@VValue@v8@@@5@@Z@4HA 0000000180047bfe f   Matrix.obj
 0001:00046bfe       ?dtor$1@?0??NewInstance@Nan@@YA?AV?$MaybeLocal@VObject@v8@@@v8@@V?$Local@VObjectTemplate@v8@@@3@@Z@4HA 0000000180047bfe f   Matrix.obj
 0001:00046bfe       ?dtor$1@?0??GetFunction@Nan@@YA?AV?$MaybeLocal@VFunction@v8@@@v8@@V?$Local@VFunctionTemplate@v8@@@3@@Z@4HA 0000000180047bfe f   OpenCV.obj
 0001:00046c10       ?dtor$0@?0??New@?$Factory@VFunctionTemplate@v8@@@imp@Nan@@SA?AV?$Local@VFunctionTemplate@v8@@@v8@@P6AXAEBV?$FunctionCallbackInfo@VValue@v8@@@3@@ZV?$Local@VValue@v8@@@5@V?$Local@VSignature@v8@@@5@@Z@4HA 0000000180047c10 f   Matrix.obj
 0001:00046c1e       ?dtor$2@?0??New@?$Factory@VFunctionTemplate@v8@@@imp@Nan@@SA?AV?$Local@VFunctionTemplate@v8@@@v8@@P6AXAEBV?$FunctionCallbackInfo@VValue@v8@@@3@@ZV?$Local@VValue@v8@@@5@V?$Local@VSignature@v8@@@5@@Z@4HA 0000000180047c1e f   Matrix.obj
 0001:00046c30       ?dtor$0@?0???1EscapableHandleScope@Nan@@QEAA@XZ@4HA 0000000180047c30 f   Matrix.obj
 0001:00046c3e       ?dtor$1@?0???1EscapableHandleScope@Nan@@QEAA@XZ@4HA 0000000180047c3e f   Matrix.obj
 0001:00046c50       ?dtor$1@?0??ThrowError@Nan@@YAXPEBD@Z@4HA 0000000180047c50 f   Matrix.obj
 0001:00046c50       ?dtor$1@?0??Subtract@Matrix@@SAXAEBV?$FunctionCallbackInfo@VValue@v8@@@Nan@@@Z@4HA 0000000180047c50 f   Matrix.obj
 0001:00046c50       ?dtor$1@?0??Init@CascadeClassifierWrap@@SAXV?$Local@VObject@v8@@@v8@@@Z@4HA 0000000180047c50 f   CascadeClassifierWrap.obj
 0001:00046c50       ?dtor$1@?0??ThrowTypeError@Nan@@YAXPEBD@Z@4HA 0000000180047c50 f   Matrix.obj
 0001:00046c50       ?dtor$1@?0??MeanWithMask@Matrix@@SAXAEBV?$FunctionCallbackInfo@VValue@v8@@@Nan@@@Z@4HA 0000000180047c50 f   Matrix.obj
 0001:00046c50       ?dtor$1@?0??MeanStdDev@Matrix@@SAXAEBV?$FunctionCallbackInfo@VValue@v8@@@Nan@@@Z@4HA 0000000180047c50 f   Matrix.obj
 0001:00046c50       ?dtor$1@?0??Init@NamedWindow@@SAXV?$Local@VObject@v8@@@v8@@@Z@4HA 0000000180047c50 f   HighGUI.obj
 0001:00046c50       ?dtor$1@?0??Init@StereoSGBM@@SAXV?$Local@VObject@v8@@@v8@@@Z@4HA 0000000180047c50 f   Stereo.obj
 0001:00046c50       ?dtor$1@?0??Mean@Matrix@@SAXAEBV?$FunctionCallbackInfo@VValue@v8@@@Nan@@@Z@4HA 0000000180047c50 f   Matrix.obj
 0001:00046c50       ?dtor$1@?0??Init@TrackedObject@@SAXV?$Local@VObject@v8@@@v8@@@Z@4HA 0000000180047c50 f   CamShift.obj
 0001:00046c50       ?dtor$1@?0??ConvertTo@Matrix@@SAXAEBV?$FunctionCallbackInfo@VValue@v8@@@Nan@@@Z@4HA 0000000180047c50 f   Matrix.obj
 0001:00046c50       ?dtor$1@?0??Point@Contour@@SAXAEBV?$FunctionCallbackInfo@VValue@v8@@@Nan@@@Z@4HA 0000000180047c50 f   Contours.obj
 0001:00046c50       ?dtor$1@?0??Init@Contour@@SAXV?$Local@VObject@v8@@@v8@@@Z@4HA 0000000180047c50 f   Contours.obj
 0001:00046c50       ?dtor$1@?0??Init@VideoCaptureWrap@@SAXV?$Local@VObject@v8@@@v8@@@Z@4HA 0000000180047c50 f   VideoCaptureWrap.obj
 0001:00046c50       ?dtor$1@?0??Init@StereoGC@@SAXV?$Local@VObject@v8@@@v8@@@Z@4HA 0000000180047c50 f   Stereo.obj
 0001:00046c50       ?dtor$1@?0??Hierarchy@Contour@@SAXAEBV?$FunctionCallbackInfo@VValue@v8@@@Nan@@@Z@4HA 0000000180047c50 f   Contours.obj
 0001:00046c50       ?dtor$1@?0??HandleOKCallback@AsyncDetectSimilarity@@UEAAXXZ@4HA 0000000180047c50 f   Features2d.obj
 0001:00046c50       ?dtor$1@?0??AdjustROI@Matrix@@SAXAEBV?$FunctionCallbackInfo@VValue@v8@@@Nan@@@Z@4HA 0000000180047c50 f   Matrix.obj
 0001:00046c50       ?dtor$1@?0??Canny@Matrix@@SAXAEBV?$FunctionCallbackInfo@VValue@v8@@@Nan@@@Z@4HA 0000000180047c50 f   Matrix.obj
 0001:00046c50       ?dtor$1@?0???0Utf8String@Nan@@QEAA@V?$Local@VValue@v8@@@v8@@@Z@4HA 0000000180047c50 f   Matrix.obj
 0001:00046c5e       ?dtor$0@?0??Init@StereoGC@@SAXV?$Local@VObject@v8@@@v8@@@Z@4HA 0000000180047c5e f   Stereo.obj
 0001:00046c5e       ?dtor$0@?0??Init@StereoSGBM@@SAXV?$Local@VObject@v8@@@v8@@@Z@4HA 0000000180047c5e f   Stereo.obj
 0001:00046c5e       ?dtor$0@?0??ThrowTypeError@Nan@@YAXPEBD@Z@4HA 0000000180047c5e f   Matrix.obj
 0001:00046c5e       ?dtor$0@?0??ThrowError@Nan@@YAXPEBD@Z@4HA 0000000180047c5e f   Matrix.obj
 0001:00046c5e       ?dtor$0@?0??Init@TrackedObject@@SAXV?$Local@VObject@v8@@@v8@@@Z@4HA 0000000180047c5e f   CamShift.obj
 0001:00046c5e       ?dtor$0@?0??Point@Contour@@SAXAEBV?$FunctionCallbackInfo@VValue@v8@@@Nan@@@Z@4HA 0000000180047c5e f   Contours.obj
 0001:00046c5e       ?dtor$0@?0??Subtract@Matrix@@SAXAEBV?$FunctionCallbackInfo@VValue@v8@@@Nan@@@Z@4HA 0000000180047c5e f   Matrix.obj
 0001:00046c5e       ?dtor$0@?0??Init@VideoCaptureWrap@@SAXV?$Local@VObject@v8@@@v8@@@Z@4HA 0000000180047c5e f   VideoCaptureWrap.obj
 0001:00046c5e       ?dtor$0@?0??MeanWithMask@Matrix@@SAXAEBV?$FunctionCallbackInfo@VValue@v8@@@Nan@@@Z@4HA 0000000180047c5e f   Matrix.obj
 0001:00046c5e       ?dtor$0@?0??MeanStdDev@Matrix@@SAXAEBV?$FunctionCallbackInfo@VValue@v8@@@Nan@@@Z@4HA 0000000180047c5e f   Matrix.obj
 0001:00046c5e       ?dtor$0@?0??Mean@Matrix@@SAXAEBV?$FunctionCallbackInfo@VValue@v8@@@Nan@@@Z@4HA 0000000180047c5e f   Matrix.obj
 0001:00046c5e       ?dtor$0@?0??Init@CascadeClassifierWrap@@SAXV?$Local@VObject@v8@@@v8@@@Z@4HA 0000000180047c5e f   CascadeClassifierWrap.obj
 0001:00046c5e       ?dtor$0@?0??HandleOKCallback@AsyncDetectSimilarity@@UEAAXXZ@4HA 0000000180047c5e f   Features2d.obj
 0001:00046c5e       ?dtor$0@?0???0Utf8String@Nan@@QEAA@V?$Local@VValue@v8@@@v8@@@Z@4HA 0000000180047c5e f   Matrix.obj
 0001:00046c5e       ?dtor$0@?0??AdjustROI@Matrix@@SAXAEBV?$FunctionCallbackInfo@VValue@v8@@@Nan@@@Z@4HA 0000000180047c5e f   Matrix.obj
 0001:00046c5e       ?dtor$0@?0??Canny@Matrix@@SAXAEBV?$FunctionCallbackInfo@VValue@v8@@@Nan@@@Z@4HA 0000000180047c5e f   Matrix.obj
 0001:00046c5e       ?dtor$0@?0??Init@Contour@@SAXV?$Local@VObject@v8@@@v8@@@Z@4HA 0000000180047c5e f   Contours.obj
 0001:00046c5e       ?dtor$0@?0??Hierarchy@Contour@@SAXAEBV?$FunctionCallbackInfo@VValue@v8@@@Nan@@@Z@4HA 0000000180047c5e f   Contours.obj
 0001:00046c5e       ?dtor$0@?0??ConvertTo@Matrix@@SAXAEBV?$FunctionCallbackInfo@VValue@v8@@@Nan@@@Z@4HA 0000000180047c5e f   Matrix.obj
 0001:00046c5e       ?dtor$0@?0??Init@NamedWindow@@SAXV?$Local@VObject@v8@@@v8@@@Z@4HA 0000000180047c5e f   HighGUI.obj
 0001:00046c6a       ?dtor$2@?0??Init@VideoCaptureWrap@@SAXV?$Local@VObject@v8@@@v8@@@Z@4HA 0000000180047c6a f   VideoCaptureWrap.obj
 0001:00046c6a       ?dtor$2@?0??Init@StereoGC@@SAXV?$Local@VObject@v8@@@v8@@@Z@4HA 0000000180047c6a f   Stereo.obj
 0001:00046c6a       ?dtor$2@?0??Init@StereoSGBM@@SAXV?$Local@VObject@v8@@@v8@@@Z@4HA 0000000180047c6a f   Stereo.obj
 0001:00046c6a       ?dtor$2@?0??Point@Contour@@SAXAEBV?$FunctionCallbackInfo@VValue@v8@@@Nan@@@Z@4HA 0000000180047c6a f   Contours.obj
 0001:00046c6a       ?dtor$2@?0??MeanStdDev@Matrix@@SAXAEBV?$FunctionCallbackInfo@VValue@v8@@@Nan@@@Z@4HA 0000000180047c6a f   Matrix.obj
 0001:00046c6a       ?dtor$2@?0??Init@Contour@@SAXV?$Local@VObject@v8@@@v8@@@Z@4HA 0000000180047c6a f   Contours.obj
 0001:00046c6a       ?dtor$2@?0??ThrowTypeError@Nan@@YAXPEBD@Z@4HA 0000000180047c6a f   Matrix.obj
 0001:00046c6a       ?dtor$2@?0??ThrowError@Nan@@YAXPEBD@Z@4HA 0000000180047c6a f   Matrix.obj
 0001:00046c6a       ?dtor$2@?0???0Utf8String@Nan@@QEAA@V?$Local@VValue@v8@@@v8@@@Z@4HA 0000000180047c6a f   Matrix.obj
 0001:00046c6a       ?dtor$2@?0??MeanWithMask@Matrix@@SAXAEBV?$FunctionCallbackInfo@VValue@v8@@@Nan@@@Z@4HA 0000000180047c6a f   Matrix.obj
 0001:00046c6a       ?dtor$2@?0??AdjustROI@Matrix@@SAXAEBV?$FunctionCallbackInfo@VValue@v8@@@Nan@@@Z@4HA 0000000180047c6a f   Matrix.obj
 0001:00046c6a       ?dtor$2@?0??Canny@Matrix@@SAXAEBV?$FunctionCallbackInfo@VValue@v8@@@Nan@@@Z@4HA 0000000180047c6a f   Matrix.obj
 0001:00046c6a       ?dtor$2@?0??Hierarchy@Contour@@SAXAEBV?$FunctionCallbackInfo@VValue@v8@@@Nan@@@Z@4HA 0000000180047c6a f   Contours.obj
 0001:00046c6a       ?dtor$2@?0??ConvertTo@Matrix@@SAXAEBV?$FunctionCallbackInfo@VValue@v8@@@Nan@@@Z@4HA 0000000180047c6a f   Matrix.obj
 0001:00046c6a       ?dtor$2@?0??Subtract@Matrix@@SAXAEBV?$FunctionCallbackInfo@VValue@v8@@@Nan@@@Z@4HA 0000000180047c6a f   Matrix.obj
 0001:00046c6a       ?dtor$2@?0??Mean@Matrix@@SAXAEBV?$FunctionCallbackInfo@VValue@v8@@@Nan@@@Z@4HA 0000000180047c6a f   Matrix.obj
 0001:00046c6a       ?dtor$2@?0??Init@CascadeClassifierWrap@@SAXV?$Local@VObject@v8@@@v8@@@Z@4HA 0000000180047c6a f   CascadeClassifierWrap.obj
 0001:00046c6a       ?dtor$3@?0??HandleOKCallback@AsyncDetectSimilarity@@UEAAXXZ@4HA 0000000180047c6a f   Features2d.obj
 0001:00046c6a       ?dtor$2@?0??Init@NamedWindow@@SAXV?$Local@VObject@v8@@@v8@@@Z@4HA 0000000180047c6a f   HighGUI.obj
 0001:00046c6a       ?dtor$2@?0??Init@TrackedObject@@SAXV?$Local@VObject@v8@@@v8@@@Z@4HA 0000000180047c6a f   CamShift.obj
 0001:00046c80       ?dtor$0@?0??Call@Callback@Nan@@QEBA?AV?$Local@VValue@v8@@@v8@@HQEAV34@@Z@4HA 0000000180047c80 f   Matrix.obj
 0001:00046c8e       ?dtor$2@?0??Call@Callback@Nan@@QEBA?AV?$Local@VValue@v8@@@v8@@HQEAV34@@Z@4HA 0000000180047c8e f   Matrix.obj
 0001:00046ca0       ?dtor$1@?0??Call_@Callback@Nan@@AEBA?AV?$MaybeLocal@VValue@v8@@@v8@@PEAVIsolate@4@V?$Local@VObject@v8@@@4@HQEAV?$Local@VValue@v8@@@4@PEAVAsyncResource@2@@Z@4HA 0000000180047ca0 f   Matrix.obj
 0001:00046cae       ?dtor$0@?0??Call_@Callback@Nan@@AEBA?AV?$MaybeLocal@VValue@v8@@@v8@@PEAVIsolate@4@V?$Local@VObject@v8@@@4@HQEAV?$Local@VValue@v8@@@4@PEAVAsyncResource@2@@Z@4HA 0000000180047cae f   Matrix.obj
 0001:00046cba       ?dtor$2@?0??Call_@Callback@Nan@@AEBA?AV?$MaybeLocal@VValue@v8@@@v8@@PEAVIsolate@4@V?$Local@VObject@v8@@@4@HQEAV?$Local@VValue@v8@@@4@PEAVAsyncResource@2@@Z@4HA 0000000180047cba f   Matrix.obj
 0001:00046cc8       ?dtor$3@?0??Call_@Callback@Nan@@AEBA?AV?$MaybeLocal@VValue@v8@@@v8@@PEAVIsolate@4@V?$Local@VObject@v8@@@4@HQEAV?$Local@VValue@v8@@@4@PEAVAsyncResource@2@@Z@4HA 0000000180047cc8 f   Matrix.obj
 0001:00046cd6       ?dtor$4@?0??Call_@Callback@Nan@@AEBA?AV?$MaybeLocal@VValue@v8@@@v8@@PEAVIsolate@4@V?$Local@VObject@v8@@@4@HQEAV?$Local@VValue@v8@@@4@PEAVAsyncResource@2@@Z@4HA 0000000180047cd6 f   Matrix.obj
 0001:00046ce4       ?dtor$5@?0??Call_@Callback@Nan@@AEBA?AV?$MaybeLocal@VValue@v8@@@v8@@PEAVIsolate@4@V?$Local@VObject@v8@@@4@HQEAV?$Local@VValue@v8@@@4@PEAVAsyncResource@2@@Z@4HA 0000000180047ce4 f   Matrix.obj
 0001:00046d00       ?dtor$1@?0??Error@Nan@@YA?AV?$Local@VValue@v8@@@v8@@PEBD@Z@4HA 0000000180047d00 f   OpenCV.obj
 0001:00046d00       ?dtor$1@?0??Call_@Callback@Nan@@AEBA?AV?$Local@VValue@v8@@@v8@@PEAVIsolate@4@V?$Local@VObject@v8@@@4@HQEAV34@@Z@4HA 0000000180047d00 f   Matrix.obj
 0001:00046d0e       ?dtor$0@?0??Error@Nan@@YA?AV?$Local@VValue@v8@@@v8@@PEBD@Z@4HA 0000000180047d0e f   OpenCV.obj
 0001:00046d0e       ?dtor$0@?0??Call_@Callback@Nan@@AEBA?AV?$Local@VValue@v8@@@v8@@PEAVIsolate@4@V?$Local@VObject@v8@@@4@HQEAV34@@Z@4HA 0000000180047d0e f   Matrix.obj
 0001:00046d1a       ?dtor$2@?0??Error@Nan@@YA?AV?$Local@VValue@v8@@@v8@@PEBD@Z@4HA 0000000180047d1a f   OpenCV.obj
 0001:00046d1a       ?dtor$2@?0??Call_@Callback@Nan@@AEBA?AV?$Local@VValue@v8@@@v8@@PEAVIsolate@4@V?$Local@VObject@v8@@@4@HQEAV34@@Z@4HA 0000000180047d1a f   Matrix.obj
 0001:00046d28       ?dtor$3@?0??Call_@Callback@Nan@@AEBA?AV?$Local@VValue@v8@@@v8@@PEAVIsolate@4@V?$Local@VObject@v8@@@4@HQEAV34@@Z@4HA 0000000180047d28 f   Matrix.obj
 0001:00046d28       ?dtor$3@?0??Error@Nan@@YA?AV?$Local@VValue@v8@@@v8@@PEBD@Z@4HA 0000000180047d28 f   OpenCV.obj
 0001:00046d40       ?dtor$0@?0???1?$Persistent@VObject@v8@@V?$NonCopyablePersistentTraits@VObject@v8@@@2@@Nan@@QEAA@XZ@4HA 0000000180047d40 f   Matrix.obj
 0001:00046d40       ?dtor$0@?0???1?$Persistent@VFunction@v8@@V?$NonCopyablePersistentTraits@VFunction@v8@@@2@@Nan@@QEAA@XZ@4HA 0000000180047d40 f   Matrix.obj
 0001:00046d50       ?dtor$3@?0???0AsyncWorker@Nan@@QEAA@PEAVCallback@1@PEBD@Z@4HA 0000000180047d50 f   Matrix.obj
 0001:00046d5c       ?dtor$0@?0???0AsyncWorker@Nan@@QEAA@PEAVCallback@1@PEBD@Z@4HA 0000000180047d5c f   Matrix.obj
 0001:00046d6f       ?dtor$4@?0???0AsyncWorker@Nan@@QEAA@PEAVCallback@1@PEBD@Z@4HA 0000000180047d6f f   Matrix.obj
 0001:00046d7d       ?dtor$1@?0???0AsyncWorker@Nan@@QEAA@PEAVCallback@1@PEBD@Z@4HA 0000000180047d7d f   Matrix.obj
 0001:00046d89       ?dtor$2@?0???0AsyncWorker@Nan@@QEAA@PEAVCallback@1@PEBD@Z@4HA 0000000180047d89 f   Matrix.obj
 0001:00046da6       ?dtor$5@?0???0AsyncWorker@Nan@@QEAA@PEAVCallback@1@PEBD@Z@4HA 0000000180047da6 f   Matrix.obj
 0001:00046dc0       ?dtor$0@?0???1AsyncWorker@Nan@@UEAA@XZ@4HA 0000000180047dc0 f   Matrix.obj
 0001:00046dd3       ?dtor$2@?0???1AsyncWorker@Nan@@UEAA@XZ@4HA 0000000180047dd3 f   Matrix.obj
 0001:00046de1       ?dtor$1@?0???1AsyncWorker@Nan@@UEAA@XZ@4HA 0000000180047de1 f   Matrix.obj
 0001:00046ded       ?dtor$3@?0???1AsyncWorker@Nan@@UEAA@XZ@4HA 0000000180047ded f   Matrix.obj
 0001:00046df9       ?dtor$4@?0???1AsyncWorker@Nan@@UEAA@XZ@4HA 0000000180047df9 f   Matrix.obj
 0001:00046e05       ?dtor$5@?0???1AsyncWorker@Nan@@UEAA@XZ@4HA 0000000180047e05 f   Matrix.obj
 0001:00046e13       ?dtor$6@?0???1AsyncWorker@Nan@@UEAA@XZ@4HA 0000000180047e13 f   Matrix.obj
 0001:00046e20       ?dtor$1@?0??WorkComplete@AsyncWorker@Nan@@UEAAXXZ@4HA 0000000180047e20 f   Matrix.obj
 0001:00046e2e       ?dtor$0@?0??WorkComplete@AsyncWorker@Nan@@UEAAXXZ@4HA 0000000180047e2e f   Matrix.obj
 0001:00046e3a       ?dtor$2@?0??WorkComplete@AsyncWorker@Nan@@UEAAXXZ@4HA 0000000180047e3a f   Matrix.obj
 0001:00046e46       ?dtor$3@?0??WorkComplete@AsyncWorker@Nan@@UEAAXXZ@4HA 0000000180047e46 f   Matrix.obj
 0001:00046e52       ?dtor$4@?0??WorkComplete@AsyncWorker@Nan@@UEAAXXZ@4HA 0000000180047e52 f   Matrix.obj
 0001:00046e60       ?dtor$1@?0??AdaptiveThreshold@Matrix@@SAXAEBV?$FunctionCallbackInfo@VValue@v8@@@Nan@@@Z@4HA 0000000180047e60 f   Matrix.obj
 0001:00046e60       ?dtor$1@?0??HandleOKCallback@AsyncWorker@Nan@@MEAAXXZ@4HA 0000000180047e60 f   Matrix.obj
 0001:00046e60       ?dtor$1@?0??Init@OpenCV@@SAXV?$Local@VObject@v8@@@v8@@@Z@4HA 0000000180047e60 f   OpenCV.obj
 0001:00046e60       ?dtor$1@?0??HandleErrorCallback@AsyncWorker@Nan@@MEAAXXZ@4HA 0000000180047e60 f   Matrix.obj
 0001:00046e6e       ?dtor$0@?0??AdaptiveThreshold@Matrix@@SAXAEBV?$FunctionCallbackInfo@VValue@v8@@@Nan@@@Z@4HA 0000000180047e6e f   Matrix.obj
 0001:00046e6e       ?dtor$0@?0??HandleErrorCallback@AsyncWorker@Nan@@MEAAXXZ@4HA 0000000180047e6e f   Matrix.obj
 0001:00046e6e       ?dtor$0@?0??Init@OpenCV@@SAXV?$Local@VObject@v8@@@v8@@@Z@4HA 0000000180047e6e f   OpenCV.obj
 0001:00046e6e       ?dtor$0@?0??HandleOKCallback@AsyncWorker@Nan@@MEAAXXZ@4HA 0000000180047e6e f   Matrix.obj
 0001:00046e7a       ?dtor$2@?0??AdaptiveThreshold@Matrix@@SAXAEBV?$FunctionCallbackInfo@VValue@v8@@@Nan@@@Z@4HA 0000000180047e7a f   Matrix.obj
 0001:00046e7a       ?dtor$2@?0??HandleErrorCallback@AsyncWorker@Nan@@MEAAXXZ@4HA 0000000180047e7a f   Matrix.obj
 0001:00046e7a       ?dtor$2@?0??Init@OpenCV@@SAXV?$Local@VObject@v8@@@v8@@@Z@4HA 0000000180047e7a f   OpenCV.obj
 0001:00046e7a       ?dtor$2@?0??HandleOKCallback@AsyncWorker@Nan@@MEAAXXZ@4HA 0000000180047e7a f   Matrix.obj
 0001:00046e90       ?dtor$1@?0???$SetMethod@VObject@v8@@VLocal@2@@Nan@@YAXV?$Local@VObject@v8@@@v8@@PEBDP6AXAEBV?$FunctionCallbackInfo@VValue@v8@@@0@@Z@Z@4HA 0000000180047e90 f   OpenCV.obj
 0001:00046e90       ?dtor$1@?0???$SetMethod@VFunctionTemplate@v8@@VLocal@2@@Nan@@YAXV?$Local@VFunctionTemplate@v8@@@v8@@PEBDP6AXAEBV?$FunctionCallbackInfo@VValue@v8@@@0@@Z@Z@4HA 0000000180047e90 f   Matrix.obj
 0001:00046e90       ?dtor$1@?0??Init@StereoBM@@SAXV?$Local@VObject@v8@@@v8@@@Z@4HA 0000000180047e90 f   Stereo.obj
 0001:00046e90       ?dtor$1@?0??SetPrototypeMethod@Nan@@YAXV?$Local@VFunctionTemplate@v8@@@v8@@PEBDP6AXAEBV?$FunctionCallbackInfo@VValue@v8@@@1@@Z@Z@4HA 0000000180047e90 f   Matrix.obj
 0001:00046e9e       ?dtor$0@?0??Init@StereoBM@@SAXV?$Local@VObject@v8@@@v8@@@Z@4HA 0000000180047e9e f   Stereo.obj
 0001:00046e9e       ?dtor$0@?0???$SetMethod@VFunctionTemplate@v8@@VLocal@2@@Nan@@YAXV?$Local@VFunctionTemplate@v8@@@v8@@PEBDP6AXAEBV?$FunctionCallbackInfo@VValue@v8@@@0@@Z@Z@4HA 0000000180047e9e f   Matrix.obj
 0001:00046e9e       ?dtor$0@?0??SetPrototypeMethod@Nan@@YAXV?$Local@VFunctionTemplate@v8@@@v8@@PEBDP6AXAEBV?$FunctionCallbackInfo@VValue@v8@@@1@@Z@Z@4HA 0000000180047e9e f   Matrix.obj
 0001:00046e9e       ?dtor$0@?0???$SetMethod@VObject@v8@@VLocal@2@@Nan@@YAXV?$Local@VObject@v8@@@v8@@PEBDP6AXAEBV?$FunctionCallbackInfo@VValue@v8@@@0@@Z@Z@4HA 0000000180047e9e f   OpenCV.obj
 0001:00046eaa       ?dtor$5@?0??Init@StereoBM@@SAXV?$Local@VObject@v8@@@v8@@@Z@4HA 0000000180047eaa f   Stereo.obj
 0001:00046eaa       ?dtor$2@?0???$SetMethod@VFunctionTemplate@v8@@VLocal@2@@Nan@@YAXV?$Local@VFunctionTemplate@v8@@@v8@@PEBDP6AXAEBV?$FunctionCallbackInfo@VValue@v8@@@0@@Z@Z@4HA 0000000180047eaa f   Matrix.obj
 0001:00046eaa       ?dtor$2@?0???$SetMethod@VObject@v8@@VLocal@2@@Nan@@YAXV?$Local@VObject@v8@@@v8@@PEBDP6AXAEBV?$FunctionCallbackInfo@VValue@v8@@@0@@Z@Z@4HA 0000000180047eaa f   OpenCV.obj
 0001:00046eaa       ?dtor$2@?0??SetPrototypeMethod@Nan@@YAXV?$Local@VFunctionTemplate@v8@@@v8@@PEBDP6AXAEBV?$FunctionCallbackInfo@VValue@v8@@@1@@Z@Z@4HA 0000000180047eaa f   Matrix.obj
 0001:00046ec0       ?dtor$0@?0???1ObjectWrap@Nan@@UEAA@XZ@4HA 0000000180047ec0 f   Matrix.obj
 0001:00046ed0       ?dtor$1@?0???1ObjectWrap@Nan@@UEAA@XZ@4HA 0000000180047ed0 f   Matrix.obj
 0001:00046ee0       ?dtor$0@?0???1Matrix@node_opencv@@UEAA@XZ@4HA 0000000180047ee0 f   Matrix.obj
 0001:00046ee0       ?dtor$0@?0???_GMatrix@node_opencv@@UEAAPEAXI@Z@4HA 0000000180047ee0 f   Matrix.obj
 0001:00046eec       ?dtor$1@?0???1Matrix@node_opencv@@UEAA@XZ@4HA 0000000180047eec f   Matrix.obj
 0001:00046eec       ?dtor$1@?0???_GMatrix@node_opencv@@UEAAPEAXI@Z@4HA 0000000180047eec f   Matrix.obj
 0001:00046f00       ?dtor$0@?0???__F?constructor@Matrix@@2V?$Persistent@VFunctionTemplate@v8@@V?$NonCopyablePersistentTraits@VFunctionTemplate@v8@@@2@@Nan@@A@@YAXXZ@4HA 0000000180047f00 f   Matrix.obj
 0001:00046f00       ?dtor$0@?0???__E?constructor@Matrix@@2V?$Persistent@VFunctionTemplate@v8@@V?$NonCopyablePersistentTraits@VFunctionTemplate@v8@@@2@@Nan@@A@@YAXXZ@4HA 0000000180047f00 f   Matrix.obj
 0001:00046f10       ?dtor$1@?0??Init@Matrix@@SAXV?$Local@VObject@v8@@@v8@@@Z@4HA 0000000180047f10 f   Matrix.obj
 0001:00046f10       ?dtor$1@?0??Init@LDAWrap@@SAXV?$Local@VObject@v8@@@v8@@@Z@4HA 0000000180047f10 f   LDAWrap.obj
 0001:00046f10       ?dtor$1@?0??Init@FaceRecognizerWrap@@SAXV?$Local@VObject@v8@@@v8@@@Z@4HA 0000000180047f10 f   FaceRecognizer.obj
 0001:00046f10       ?dtor$1@?0??Init@BackgroundSubtractorWrap@@SAXV?$Local@VObject@v8@@@v8@@@Z@4HA 0000000180047f10 f   BackgroundSubtractor.obj
 0001:00046f1e       ?dtor$0@?0??Init@FaceRecognizerWrap@@SAXV?$Local@VObject@v8@@@v8@@@Z@4HA 0000000180047f1e f   FaceRecognizer.obj
 0001:00046f1e       ?dtor$0@?0??Init@Matrix@@SAXV?$Local@VObject@v8@@@v8@@@Z@4HA 0000000180047f1e f   Matrix.obj
 0001:00046f1e       ?dtor$0@?0??Init@BackgroundSubtractorWrap@@SAXV?$Local@VObject@v8@@@v8@@@Z@4HA 0000000180047f1e f   BackgroundSubtractor.obj
 0001:00046f1e       ?dtor$0@?0??Init@LDAWrap@@SAXV?$Local@VObject@v8@@@v8@@@Z@4HA 0000000180047f1e f   LDAWrap.obj
 0001:00046f2a       ?dtor$3@?0??Init@FaceRecognizerWrap@@SAXV?$Local@VObject@v8@@@v8@@@Z@4HA 0000000180047f2a f   FaceRecognizer.obj
 0001:00046f2a       ?dtor$3@?0??Init@LDAWrap@@SAXV?$Local@VObject@v8@@@v8@@@Z@4HA 0000000180047f2a f   LDAWrap.obj
 0001:00046f2a       ?dtor$3@?0??Init@Matrix@@SAXV?$Local@VObject@v8@@@v8@@@Z@4HA 0000000180047f2a f   Matrix.obj
 0001:00046f2a       ?dtor$3@?0??Init@BackgroundSubtractorWrap@@SAXV?$Local@VObject@v8@@@v8@@@Z@4HA 0000000180047f2a f   BackgroundSubtractor.obj
 0001:00046f38       ?dtor$2@?0??Init@LDAWrap@@SAXV?$Local@VObject@v8@@@v8@@@Z@4HA 0000000180047f38 f   LDAWrap.obj
 0001:00046f38       ?dtor$2@?0??Init@Matrix@@SAXV?$Local@VObject@v8@@@v8@@@Z@4HA 0000000180047f38 f   Matrix.obj
 0001:00046f38       ?dtor$2@?0??Init@BackgroundSubtractorWrap@@SAXV?$Local@VObject@v8@@@v8@@@Z@4HA 0000000180047f38 f   BackgroundSubtractor.obj
 0001:00046f38       ?dtor$2@?0??Init@FaceRecognizerWrap@@SAXV?$Local@VObject@v8@@@v8@@@Z@4HA 0000000180047f38 f   FaceRecognizer.obj
 0001:00046f44       ?dtor$4@?0??Init@FaceRecognizerWrap@@SAXV?$Local@VObject@v8@@@v8@@@Z@4HA 0000000180047f44 f   FaceRecognizer.obj
 0001:00046f44       ?dtor$4@?0??Init@Matrix@@SAXV?$Local@VObject@v8@@@v8@@@Z@4HA 0000000180047f44 f   Matrix.obj
 0001:00046f44       ?dtor$4@?0??Init@BackgroundSubtractorWrap@@SAXV?$Local@VObject@v8@@@v8@@@Z@4HA 0000000180047f44 f   BackgroundSubtractor.obj
 0001:00046f44       ?dtor$4@?0??Init@LDAWrap@@SAXV?$Local@VObject@v8@@@v8@@@Z@4HA 0000000180047f44 f   LDAWrap.obj
 0001:00046f52       ?dtor$5@?0??Init@Matrix@@SAXV?$Local@VObject@v8@@@v8@@@Z@4HA 0000000180047f52 f   Matrix.obj
 0001:00046f52       ?dtor$5@?0??Init@BackgroundSubtractorWrap@@SAXV?$Local@VObject@v8@@@v8@@@Z@4HA 0000000180047f52 f   BackgroundSubtractor.obj
 0001:00046f52       ?dtor$5@?0??Init@LDAWrap@@SAXV?$Local@VObject@v8@@@v8@@@Z@4HA 0000000180047f52 f   LDAWrap.obj
 0001:00046f52       ?dtor$5@?0??Init@FaceRecognizerWrap@@SAXV?$Local@VObject@v8@@@v8@@@Z@4HA 0000000180047f52 f   FaceRecognizer.obj
 0001:00046f60       ?dtor$7@?0??New@Matrix@@SAXAEBV?$FunctionCallbackInfo@VValue@v8@@@Nan@@@Z@4HA 0000000180047f60 f   Matrix.obj
 0001:00046f6e       ?dtor$0@?0??New@Matrix@@SAXAEBV?$FunctionCallbackInfo@VValue@v8@@@Nan@@@Z@4HA 0000000180047f6e f   Matrix.obj
 0001:00046f7a       ?dtor$1@?0??New@Matrix@@SAXAEBV?$FunctionCallbackInfo@VValue@v8@@@Nan@@@Z@4HA 0000000180047f7a f   Matrix.obj
 0001:00046f9a       ?dtor$2@?0??New@Matrix@@SAXAEBV?$FunctionCallbackInfo@VValue@v8@@@Nan@@@Z@4HA 0000000180047f9a f   Matrix.obj
 0001:00046fba       ?dtor$3@?0??New@Matrix@@SAXAEBV?$FunctionCallbackInfo@VValue@v8@@@Nan@@@Z@4HA 0000000180047fba f   Matrix.obj
 0001:00046fda       ?dtor$4@?0??New@Matrix@@SAXAEBV?$FunctionCallbackInfo@VValue@v8@@@Nan@@@Z@4HA 0000000180047fda f   Matrix.obj
 0001:00046ffa       ?dtor$5@?0??New@Matrix@@SAXAEBV?$FunctionCallbackInfo@VValue@v8@@@Nan@@@Z@4HA 0000000180047ffa f   Matrix.obj
 0001:0004701a       ?dtor$6@?0??New@Matrix@@SAXAEBV?$FunctionCallbackInfo@VValue@v8@@@Nan@@@Z@4HA 000000018004801a f   Matrix.obj
 0001:00047026       ?dtor$8@?0??New@Matrix@@SAXAEBV?$FunctionCallbackInfo@VValue@v8@@@Nan@@@Z@4HA 0000000180048026 f   Matrix.obj
 0001:00047040       ?dtor$5@?0???0Matrix@@QEAA@XZ@4HA 0000000180048040 f   Matrix.obj
 0001:0004704c       ?dtor$4@?0???0Matrix@@QEAA@XZ@4HA 000000018004804c f   Matrix.obj
 0001:0004705c       ?dtor$2@?0???0Matrix@@QEAA@XZ@4HA 000000018004805c f   Matrix.obj
 0001:00047068       ?dtor$3@?0???0Matrix@@QEAA@XZ@4HA 0000000180048068 f   Matrix.obj
 0001:00047078       ?dtor$0@?0???0Matrix@@QEAA@XZ@4HA 0000000180048078 f   Matrix.obj
 0001:00047084       ?dtor$1@?0???0Matrix@@QEAA@XZ@4HA 0000000180048084 f   Matrix.obj
 0001:00047090       ?dtor$0@?0???_GMatrix@@UEAAPEAXI@Z@4HA 0000000180048090 f   Matrix.obj
 0001:0004709c       ?dtor$1@?0???_GMatrix@@UEAAPEAXI@Z@4HA 000000018004809c f   Matrix.obj
 0001:000470a8       ?dtor$2@?0???_GMatrix@@UEAAPEAXI@Z@4HA 00000001800480a8 f   Matrix.obj
 0001:000470c0       ?dtor$5@?0???0Matrix@@QEAA@HHH@Z@4HA 00000001800480c0 f   Matrix.obj
 0001:000470c0       ?dtor$5@?0???0Matrix@@QEAA@HH@Z@4HA 00000001800480c0 f   Matrix.obj
 0001:000470cc       ?dtor$4@?0???0Matrix@@QEAA@HHH@Z@4HA 00000001800480cc f   Matrix.obj
 0001:000470cc       ?dtor$4@?0???0Matrix@@QEAA@HH@Z@4HA 00000001800480cc f   Matrix.obj
 0001:000470dc       ?dtor$2@?0???0Matrix@@QEAA@HHH@Z@4HA 00000001800480dc f   Matrix.obj
 0001:000470dc       ?dtor$2@?0???0Matrix@@QEAA@HH@Z@4HA 00000001800480dc f   Matrix.obj
 0001:000470e8       ?dtor$3@?0???0Matrix@@QEAA@HH@Z@4HA 00000001800480e8 f   Matrix.obj
 0001:000470e8       ?dtor$3@?0???0Matrix@@QEAA@HHH@Z@4HA 00000001800480e8 f   Matrix.obj
 0001:000470f8       ?dtor$0@?0???0Matrix@@QEAA@HH@Z@4HA 00000001800480f8 f   Matrix.obj
 0001:000470f8       ?dtor$0@?0???0Matrix@@QEAA@HHH@Z@4HA 00000001800480f8 f   Matrix.obj
 0001:00047104       ?dtor$1@?0???0Matrix@@QEAA@HH@Z@4HA 0000000180048104 f   Matrix.obj
 0001:00047104       ?dtor$1@?0???0Matrix@@QEAA@HHH@Z@4HA 0000000180048104 f   Matrix.obj
 0001:00047110       ?dtor$0@?0???0Matrix@@QEAA@VMat@cv@@V?$Rect_@H@2@@Z@4HA 0000000180048110 f   Matrix.obj
 0001:0004711c       ?dtor$6@?0???0Matrix@@QEAA@VMat@cv@@V?$Rect_@H@2@@Z@4HA 000000018004811c f   Matrix.obj
 0001:00047128       ?dtor$5@?0???0Matrix@@QEAA@VMat@cv@@V?$Rect_@H@2@@Z@4HA 0000000180048128 f   Matrix.obj
 0001:00047138       ?dtor$3@?0???0Matrix@@QEAA@VMat@cv@@V?$Rect_@H@2@@Z@4HA 0000000180048138 f   Matrix.obj
 0001:00047144       ?dtor$4@?0???0Matrix@@QEAA@VMat@cv@@V?$Rect_@H@2@@Z@4HA 0000000180048144 f   Matrix.obj
 0001:00047154       ?dtor$1@?0???0Matrix@@QEAA@VMat@cv@@V?$Rect_@H@2@@Z@4HA 0000000180048154 f   Matrix.obj
 0001:00047160       ?dtor$2@?0???0Matrix@@QEAA@VMat@cv@@V?$Rect_@H@2@@Z@4HA 0000000180048160 f   Matrix.obj
 0001:00047170       ?dtor$5@?0???0Matrix@@QEAA@HHHV?$Local@VObject@v8@@@v8@@@Z@4HA 0000000180048170 f   Matrix.obj
 0001:0004717c       ?dtor$4@?0???0Matrix@@QEAA@HHHV?$Local@VObject@v8@@@v8@@@Z@4HA 000000018004817c f   Matrix.obj
 0001:0004718c       ?dtor$2@?0???0Matrix@@QEAA@HHHV?$Local@VObject@v8@@@v8@@@Z@4HA 000000018004818c f   Matrix.obj
 0001:00047198       ?dtor$3@?0???0Matrix@@QEAA@HHHV?$Local@VObject@v8@@@v8@@@Z@4HA 0000000180048198 f   Matrix.obj
 0001:000471a8       ?dtor$0@?0???0Matrix@@QEAA@HHHV?$Local@VObject@v8@@@v8@@@Z@4HA 00000001800481a8 f   Matrix.obj
 0001:000471b4       ?dtor$1@?0???0Matrix@@QEAA@HHHV?$Local@VObject@v8@@@v8@@@Z@4HA 00000001800481b4 f   Matrix.obj
 0001:000471c0       ?dtor$1@?0??CopyWithMask@Matrix@@SAXAEBV?$FunctionCallbackInfo@VValue@v8@@@Nan@@@Z@4HA 00000001800481c0 f   Matrix.obj
 0001:000471c0       ?dtor$1@?0??Copy@Matrix@@SAXAEBV?$FunctionCallbackInfo@VValue@v8@@@Nan@@@Z@4HA 00000001800481c0 f   Matrix.obj
 0001:000471c0       ?dtor$1@?0??Width@Matrix@@SAXAEBV?$FunctionCallbackInfo@VValue@v8@@@Nan@@@Z@4HA 00000001800481c0 f   Matrix.obj
 0001:000471c0       ?dtor$1@?0??CountNonZero@Matrix@@SAXAEBV?$FunctionCallbackInfo@VValue@v8@@@Nan@@@Z@4HA 00000001800481c0 f   Matrix.obj
 0001:000471c0       ?dtor$1@?0??Flip@Matrix@@SAXAEBV?$FunctionCallbackInfo@VValue@v8@@@Nan@@@Z@4HA 00000001800481c0 f   Matrix.obj
 0001:000471c0       ?dtor$1@?0??ConvertGrayscale@Matrix@@SAXAEBV?$FunctionCallbackInfo@VValue@v8@@@Nan@@@Z@4HA 00000001800481c0 f   Matrix.obj
 0001:000471c0       ?dtor$1@?0??Channels@Matrix@@SAXAEBV?$FunctionCallbackInfo@VValue@v8@@@Nan@@@Z@4HA 00000001800481c0 f   Matrix.obj
 0001:000471c0       ?dtor$1@?0??BlockingWaitKey@NamedWindow@@SAXAEBV?$FunctionCallbackInfo@VValue@v8@@@Nan@@@Z@4HA 00000001800481c0 f   HighGUI.obj
 0001:000471c0       ?dtor$1@?0??SetPosition@VideoCaptureWrap@@SAXAEBV?$FunctionCallbackInfo@VValue@v8@@@Nan@@@Z@4HA 00000001800481c0 f   VideoCaptureWrap.obj
 0001:000471c0       ?dtor$1@?0??SetHeight@VideoCaptureWrap@@SAXAEBV?$FunctionCallbackInfo@VValue@v8@@@Nan@@@Z@4HA 00000001800481c0 f   VideoCaptureWrap.obj
 0001:000471c0       ?dtor$1@?0??Release@VideoCaptureWrap@@SAXAEBV?$FunctionCallbackInfo@VValue@v8@@@Nan@@@Z@4HA 00000001800481c0 f   VideoCaptureWrap.obj
 0001:000471c0       ?dtor$1@?0??Size@Matrix@@SAXAEBV?$FunctionCallbackInfo@VValue@v8@@@Nan@@@Z@4HA 00000001800481c0 f   Matrix.obj
 0001:000471c0       ?dtor$1@?0??Height@Matrix@@SAXAEBV?$FunctionCallbackInfo@VValue@v8@@@Nan@@@Z@4HA 00000001800481c0 f   Matrix.obj
 0001:000471c0       ?dtor$1@?0??ReadSync@VideoCaptureWrap@@SAXAEBV?$FunctionCallbackInfo@VValue@v8@@@Nan@@@Z@4HA 00000001800481c0 f   VideoCaptureWrap.obj
 0001:000471c0       ?dtor$1@?0??CornerCount@Contour@@SAXAEBV?$FunctionCallbackInfo@VValue@v8@@@Nan@@@Z@4HA 00000001800481c0 f   Contours.obj
 0001:000471c0       ?dtor$1@?0??Set@Matrix@@SAXAEBV?$FunctionCallbackInfo@VValue@v8@@@Nan@@@Z@4HA 00000001800481c0 f   Matrix.obj
 0001:000471c0       ?dtor$1@?0??AbsDiff@Matrix@@SAXAEBV?$FunctionCallbackInfo@VValue@v8@@@Nan@@@Z@4HA 00000001800481c0 f   Matrix.obj
 0001:000471c0       ?dtor$1@?0??GetFrameCount@VideoCaptureWrap@@SAXAEBV?$FunctionCallbackInfo@VValue@v8@@@Nan@@@Z@4HA 00000001800481c0 f   VideoCaptureWrap.obj
 0001:000471c0       ?dtor$1@?0??GetFrameAt@VideoCaptureWrap@@SAXAEBV?$FunctionCallbackInfo@VValue@v8@@@Nan@@@Z@4HA 00000001800481c0 f   VideoCaptureWrap.obj
 0001:000471c0       ?dtor$1@?0??LocateROI@Matrix@@SAXAEBV?$FunctionCallbackInfo@VValue@v8@@@Nan@@@Z@4HA 00000001800481c0 f   Matrix.obj
 0001:000471c0       ?dtor$1@?0??Empty@Matrix@@SAXAEBV?$FunctionCallbackInfo@VValue@v8@@@Nan@@@Z@4HA 00000001800481c0 f   Matrix.obj
 0001:000471c0       ?dtor$1@?0??MatchTemplateByMatrix@Matrix@@SAXAEBV?$FunctionCallbackInfo@VValue@v8@@@Nan@@@Z@4HA 00000001800481c0 f   Matrix.obj
 0001:000471c0       ?dtor$1@?0??Release@Matrix@@SAXAEBV?$FunctionCallbackInfo@VValue@v8@@@Nan@@@Z@4HA 00000001800481c0 f   Matrix.obj
 0001:000471c0       ?dtor$1@?0??Destroy@NamedWindow@@SAXAEBV?$FunctionCallbackInfo@VValue@v8@@@Nan@@@Z@4HA 00000001800481c0 f   HighGUI.obj
 0001:000471c0       ?dtor$1@?0??SetWidth@VideoCaptureWrap@@SAXAEBV?$FunctionCallbackInfo@VValue@v8@@@Nan@@@Z@4HA 00000001800481c0 f   VideoCaptureWrap.obj
 0001:000471c0       ?dtor$1@?0??PyrUp@Matrix@@SAXAEBV?$FunctionCallbackInfo@VValue@v8@@@Nan@@@Z@4HA 00000001800481c0 f   Matrix.obj
 0001:000471c0       ?dtor$1@?0??Size@Contour@@SAXAEBV?$FunctionCallbackInfo@VValue@v8@@@Nan@@@Z@4HA 00000001800481c0 f   Contours.obj
 0001:000471c0       ?dtor$1@?0??PyrDown@Matrix@@SAXAEBV?$FunctionCallbackInfo@VValue@v8@@@Nan@@@Z@4HA 00000001800481c0 f   Matrix.obj
 0001:000471c0       ?dtor$1@?0??GetY@Point@@SAXV?$Local@VString@v8@@@v8@@AEBV?$PropertyCallbackInfo@VValue@v8@@@Nan@@@Z@4HA 00000001800481c0 f   Point.obj
 0001:000471c0       ?dtor$1@?0??Put@Matrix@@SAXAEBV?$FunctionCallbackInfo@VValue@v8@@@Nan@@@Z@4HA 00000001800481c0 f   Matrix.obj
 0001:000471c0       ?dtor$1@?0??EqualizeHist@Matrix@@SAXAEBV?$FunctionCallbackInfo@VValue@v8@@@Nan@@@Z@4HA 00000001800481c0 f   Matrix.obj
 0001:000471c0       ?dtor$1@?0??Ptr@Matrix@@SAXAEBV?$FunctionCallbackInfo@VValue@v8@@@Nan@@@Z@4HA 00000001800481c0 f   Matrix.obj
 0001:000471c0       ?dtor$1@?0??GetX@Point@@SAXV?$Local@VString@v8@@@v8@@AEBV?$PropertyCallbackInfo@VValue@v8@@@Nan@@@Z@4HA 00000001800481c0 f   Point.obj
 0001:000471c0       ?dtor$1@?0??PushBack@Matrix@@SAXAEBV?$FunctionCallbackInfo@VValue@v8@@@Nan@@@Z@4HA 00000001800481c0 f   Matrix.obj
 0001:000471c0       ?dtor$1@?0??Pixel@Matrix@@SAXAEBV?$FunctionCallbackInfo@VValue@v8@@@Nan@@@Z@4HA 00000001800481c0 f   Matrix.obj
 0001:000471c0       ?dtor$1@?0??Dot@Point@@SAXAEBV?$FunctionCallbackInfo@VValue@v8@@@Nan@@@Z@4HA 00000001800481c0 f   Point.obj
 0001:000471ce       ?dtor$0@?0??GetY@Point@@SAXV?$Local@VString@v8@@@v8@@AEBV?$PropertyCallbackInfo@VValue@v8@@@Nan@@@Z@4HA 00000001800481ce f   Point.obj
 0001:000471ce       ?dtor$0@?0??GetX@Point@@SAXV?$Local@VString@v8@@@v8@@AEBV?$PropertyCallbackInfo@VValue@v8@@@Nan@@@Z@4HA 00000001800481ce f   Point.obj
 0001:000471ce       ?dtor$0@?0??Dot@Point@@SAXAEBV?$FunctionCallbackInfo@VValue@v8@@@Nan@@@Z@4HA 00000001800481ce f   Point.obj
 0001:000471ce       ?dtor$0@?0??Width@Matrix@@SAXAEBV?$FunctionCallbackInfo@VValue@v8@@@Nan@@@Z@4HA 00000001800481ce f   Matrix.obj
 0001:000471ce       ?dtor$0@?0??GetFrameAt@VideoCaptureWrap@@SAXAEBV?$FunctionCallbackInfo@VValue@v8@@@Nan@@@Z@4HA 00000001800481ce f   VideoCaptureWrap.obj
 0001:000471ce       ?dtor$0@?0??GetFrameCount@VideoCaptureWrap@@SAXAEBV?$FunctionCallbackInfo@VValue@v8@@@Nan@@@Z@4HA 00000001800481ce f   VideoCaptureWrap.obj
 0001:000471ce       ?dtor$0@?0??ReadSync@VideoCaptureWrap@@SAXAEBV?$FunctionCallbackInfo@VValue@v8@@@Nan@@@Z@4HA 00000001800481ce f   VideoCaptureWrap.obj
 0001:000471ce       ?dtor$0@?0??Release@VideoCaptureWrap@@SAXAEBV?$FunctionCallbackInfo@VValue@v8@@@Nan@@@Z@4HA 00000001800481ce f   VideoCaptureWrap.obj
 0001:000471ce       ?dtor$0@?0??SetHeight@VideoCaptureWrap@@SAXAEBV?$FunctionCallbackInfo@VValue@v8@@@Nan@@@Z@4HA 00000001800481ce f   VideoCaptureWrap.obj
 0001:000471ce       ?dtor$0@?0??SetPosition@VideoCaptureWrap@@SAXAEBV?$FunctionCallbackInfo@VValue@v8@@@Nan@@@Z@4HA 00000001800481ce f   VideoCaptureWrap.obj
 0001:000471ce       ?dtor$0@?0??Size@Matrix@@SAXAEBV?$FunctionCallbackInfo@VValue@v8@@@Nan@@@Z@4HA 00000001800481ce f   Matrix.obj
 0001:000471ce       ?dtor$0@?0??SetWidth@VideoCaptureWrap@@SAXAEBV?$FunctionCallbackInfo@VValue@v8@@@Nan@@@Z@4HA 00000001800481ce f   VideoCaptureWrap.obj
 0001:000471ce       ?dtor$0@?0??Set@Matrix@@SAXAEBV?$FunctionCallbackInfo@VValue@v8@@@Nan@@@Z@4HA 00000001800481ce f   Matrix.obj
 0001:000471ce       ?dtor$0@?0??Release@Matrix@@SAXAEBV?$FunctionCallbackInfo@VValue@v8@@@Nan@@@Z@4HA 00000001800481ce f   Matrix.obj
 0001:000471ce       ?dtor$0@?0??PyrUp@Matrix@@SAXAEBV?$FunctionCallbackInfo@VValue@v8@@@Nan@@@Z@4HA 00000001800481ce f   Matrix.obj
 0001:000471ce       ?dtor$0@?0??PyrDown@Matrix@@SAXAEBV?$FunctionCallbackInfo@VValue@v8@@@Nan@@@Z@4HA 00000001800481ce f   Matrix.obj
 0001:000471ce       ?dtor$0@?0??Put@Matrix@@SAXAEBV?$FunctionCallbackInfo@VValue@v8@@@Nan@@@Z@4HA 00000001800481ce f   Matrix.obj
 0001:000471ce       ?dtor$0@?0??PushBack@Matrix@@SAXAEBV?$FunctionCallbackInfo@VValue@v8@@@Nan@@@Z@4HA 00000001800481ce f   Matrix.obj
 0001:000471ce       ?dtor$0@?0??Ptr@Matrix@@SAXAEBV?$FunctionCallbackInfo@VValue@v8@@@Nan@@@Z@4HA 00000001800481ce f   Matrix.obj
 0001:000471ce       ?dtor$0@?0??Pixel@Matrix@@SAXAEBV?$FunctionCallbackInfo@VValue@v8@@@Nan@@@Z@4HA 00000001800481ce f   Matrix.obj
 0001:000471ce       ?dtor$0@?0??Size@Contour@@SAXAEBV?$FunctionCallbackInfo@VValue@v8@@@Nan@@@Z@4HA 00000001800481ce f   Contours.obj
 0001:000471ce       ?dtor$0@?0??CornerCount@Contour@@SAXAEBV?$FunctionCallbackInfo@VValue@v8@@@Nan@@@Z@4HA 00000001800481ce f   Contours.obj
 0001:000471ce       ?dtor$0@?0??MatchTemplateByMatrix@Matrix@@SAXAEBV?$FunctionCallbackInfo@VValue@v8@@@Nan@@@Z@4HA 00000001800481ce f   Matrix.obj
 0001:000471ce       ?dtor$0@?0??LocateROI@Matrix@@SAXAEBV?$FunctionCallbackInfo@VValue@v8@@@Nan@@@Z@4HA 00000001800481ce f   Matrix.obj
 0001:000471ce       ?dtor$0@?0??Height@Matrix@@SAXAEBV?$FunctionCallbackInfo@VValue@v8@@@Nan@@@Z@4HA 00000001800481ce f   Matrix.obj
 0001:000471ce       ?dtor$0@?0??BlockingWaitKey@NamedWindow@@SAXAEBV?$FunctionCallbackInfo@VValue@v8@@@Nan@@@Z@4HA 00000001800481ce f   HighGUI.obj
 0001:000471ce       ?dtor$0@?0??AbsDiff@Matrix@@SAXAEBV?$FunctionCallbackInfo@VValue@v8@@@Nan@@@Z@4HA 00000001800481ce f   Matrix.obj
 0001:000471ce       ?dtor$0@?0??Flip@Matrix@@SAXAEBV?$FunctionCallbackInfo@VValue@v8@@@Nan@@@Z@4HA 00000001800481ce f   Matrix.obj
 0001:000471ce       ?dtor$0@?0??Channels@Matrix@@SAXAEBV?$FunctionCallbackInfo@VValue@v8@@@Nan@@@Z@4HA 00000001800481ce f   Matrix.obj
 0001:000471ce       ?dtor$0@?0??EqualizeHist@Matrix@@SAXAEBV?$FunctionCallbackInfo@VValue@v8@@@Nan@@@Z@4HA 00000001800481ce f   Matrix.obj
 0001:000471ce       ?dtor$0@?0??Destroy@NamedWindow@@SAXAEBV?$FunctionCallbackInfo@VValue@v8@@@Nan@@@Z@4HA 00000001800481ce f   HighGUI.obj
 0001:000471ce       ?dtor$0@?0??Empty@Matrix@@SAXAEBV?$FunctionCallbackInfo@VValue@v8@@@Nan@@@Z@4HA 00000001800481ce f   Matrix.obj
 0001:000471ce       ?dtor$0@?0??CountNonZero@Matrix@@SAXAEBV?$FunctionCallbackInfo@VValue@v8@@@Nan@@@Z@4HA 00000001800481ce f   Matrix.obj
 0001:000471ce       ?dtor$0@?0??ConvertGrayscale@Matrix@@SAXAEBV?$FunctionCallbackInfo@VValue@v8@@@Nan@@@Z@4HA 00000001800481ce f   Matrix.obj
 0001:000471ce       ?dtor$0@?0??CopyWithMask@Matrix@@SAXAEBV?$FunctionCallbackInfo@VValue@v8@@@Nan@@@Z@4HA 00000001800481ce f   Matrix.obj
 0001:000471ce       ?dtor$0@?0??Copy@Matrix@@SAXAEBV?$FunctionCallbackInfo@VValue@v8@@@Nan@@@Z@4HA 00000001800481ce f   Matrix.obj
 0001:000471da       ?dtor$2@?0??LocateROI@Matrix@@SAXAEBV?$FunctionCallbackInfo@VValue@v8@@@Nan@@@Z@4HA 00000001800481da f   Matrix.obj
 0001:000471da       ?dtor$2@?0??Destroy@NamedWindow@@SAXAEBV?$FunctionCallbackInfo@VValue@v8@@@Nan@@@Z@4HA 00000001800481da f   HighGUI.obj
 0001:000471da       ?dtor$2@?0??BlockingWaitKey@NamedWindow@@SAXAEBV?$FunctionCallbackInfo@VValue@v8@@@Nan@@@Z@4HA 00000001800481da f   HighGUI.obj
 0001:000471da       ?dtor$2@?0??Set@Matrix@@SAXAEBV?$FunctionCallbackInfo@VValue@v8@@@Nan@@@Z@4HA 00000001800481da f   Matrix.obj
 0001:000471da       ?dtor$2@?0??Width@Matrix@@SAXAEBV?$FunctionCallbackInfo@VValue@v8@@@Nan@@@Z@4HA 00000001800481da f   Matrix.obj
 0001:000471da       ?dtor$2@?0??MatchTemplateByMatrix@Matrix@@SAXAEBV?$FunctionCallbackInfo@VValue@v8@@@Nan@@@Z@4HA 00000001800481da f   Matrix.obj
 0001:000471da       ?dtor$2@?0??Pixel@Matrix@@SAXAEBV?$FunctionCallbackInfo@VValue@v8@@@Nan@@@Z@4HA 00000001800481da f   Matrix.obj
 0001:000471da       ?dtor$2@?0??AbsDiff@Matrix@@SAXAEBV?$FunctionCallbackInfo@VValue@v8@@@Nan@@@Z@4HA 00000001800481da f   Matrix.obj
 0001:000471da       ?dtor$2@?0??Channels@Matrix@@SAXAEBV?$FunctionCallbackInfo@VValue@v8@@@Nan@@@Z@4HA 00000001800481da f   Matrix.obj
 0001:000471da       ?dtor$3@?0??SetWidth@VideoCaptureWrap@@SAXAEBV?$FunctionCallbackInfo@VValue@v8@@@Nan@@@Z@4HA 00000001800481da f   VideoCaptureWrap.obj
 0001:000471da       ?dtor$2@?0??ConvertGrayscale@Matrix@@SAXAEBV?$FunctionCallbackInfo@VValue@v8@@@Nan@@@Z@4HA 00000001800481da f   Matrix.obj
 0001:000471da       ?dtor$2@?0??Ptr@Matrix@@SAXAEBV?$FunctionCallbackInfo@VValue@v8@@@Nan@@@Z@4HA 00000001800481da f   Matrix.obj
 0001:000471da       ?dtor$2@?0??Size@Contour@@SAXAEBV?$FunctionCallbackInfo@VValue@v8@@@Nan@@@Z@4HA 00000001800481da f   Contours.obj
 0001:000471da       ?dtor$2@?0??Copy@Matrix@@SAXAEBV?$FunctionCallbackInfo@VValue@v8@@@Nan@@@Z@4HA 00000001800481da f   Matrix.obj
 0001:000471da       ?dtor$3@?0??SetPosition@VideoCaptureWrap@@SAXAEBV?$FunctionCallbackInfo@VValue@v8@@@Nan@@@Z@4HA 00000001800481da f   VideoCaptureWrap.obj
 0001:000471da       ?dtor$2@?0??CopyWithMask@Matrix@@SAXAEBV?$FunctionCallbackInfo@VValue@v8@@@Nan@@@Z@4HA 00000001800481da f   Matrix.obj
 0001:000471da       ?dtor$3@?0??SetHeight@VideoCaptureWrap@@SAXAEBV?$FunctionCallbackInfo@VValue@v8@@@Nan@@@Z@4HA 00000001800481da f   VideoCaptureWrap.obj
 0001:000471da       ?dtor$2@?0??PushBack@Matrix@@SAXAEBV?$FunctionCallbackInfo@VValue@v8@@@Nan@@@Z@4HA 00000001800481da f   Matrix.obj
 0001:000471da       ?dtor$3@?0??GetFrameAt@VideoCaptureWrap@@SAXAEBV?$FunctionCallbackInfo@VValue@v8@@@Nan@@@Z@4HA 00000001800481da f   VideoCaptureWrap.obj
 0001:000471da       ?dtor$2@?0??Release@VideoCaptureWrap@@SAXAEBV?$FunctionCallbackInfo@VValue@v8@@@Nan@@@Z@4HA 00000001800481da f   VideoCaptureWrap.obj
 0001:000471da       ?dtor$2@?0??ReadSync@VideoCaptureWrap@@SAXAEBV?$FunctionCallbackInfo@VValue@v8@@@Nan@@@Z@4HA 00000001800481da f   VideoCaptureWrap.obj
 0001:000471da       ?dtor$2@?0??CountNonZero@Matrix@@SAXAEBV?$FunctionCallbackInfo@VValue@v8@@@Nan@@@Z@4HA 00000001800481da f   Matrix.obj
 0001:000471da       ?dtor$2@?0??Put@Matrix@@SAXAEBV?$FunctionCallbackInfo@VValue@v8@@@Nan@@@Z@4HA 00000001800481da f   Matrix.obj
 0001:000471da       ?dtor$2@?0??Empty@Matrix@@SAXAEBV?$FunctionCallbackInfo@VValue@v8@@@Nan@@@Z@4HA 00000001800481da f   Matrix.obj
 0001:000471da       ?dtor$2@?0??GetFrameCount@VideoCaptureWrap@@SAXAEBV?$FunctionCallbackInfo@VValue@v8@@@Nan@@@Z@4HA 00000001800481da f   VideoCaptureWrap.obj
 0001:000471da       ?dtor$2@?0??EqualizeHist@Matrix@@SAXAEBV?$FunctionCallbackInfo@VValue@v8@@@Nan@@@Z@4HA 00000001800481da f   Matrix.obj
 0001:000471da       ?dtor$2@?0??PyrDown@Matrix@@SAXAEBV?$FunctionCallbackInfo@VValue@v8@@@Nan@@@Z@4HA 00000001800481da f   Matrix.obj
 0001:000471da       ?dtor$2@?0??Flip@Matrix@@SAXAEBV?$FunctionCallbackInfo@VValue@v8@@@Nan@@@Z@4HA 00000001800481da f   Matrix.obj
 0001:000471da       ?dtor$2@?0??CornerCount@Contour@@SAXAEBV?$FunctionCallbackInfo@VValue@v8@@@Nan@@@Z@4HA 00000001800481da f   Contours.obj
 0001:000471da       ?dtor$2@?0??Dot@Point@@SAXAEBV?$FunctionCallbackInfo@VValue@v8@@@Nan@@@Z@4HA 00000001800481da f   Point.obj
 0001:000471da       ?dtor$2@?0??PyrUp@Matrix@@SAXAEBV?$FunctionCallbackInfo@VValue@v8@@@Nan@@@Z@4HA 00000001800481da f   Matrix.obj
 0001:000471da       ?dtor$2@?0??GetX@Point@@SAXV?$Local@VString@v8@@@v8@@AEBV?$PropertyCallbackInfo@VValue@v8@@@Nan@@@Z@4HA 00000001800481da f   Point.obj
 0001:000471da       ?dtor$2@?0??Height@Matrix@@SAXAEBV?$FunctionCallbackInfo@VValue@v8@@@Nan@@@Z@4HA 00000001800481da f   Matrix.obj
 0001:000471da       ?dtor$2@?0??GetY@Point@@SAXV?$Local@VString@v8@@@v8@@AEBV?$PropertyCallbackInfo@VValue@v8@@@Nan@@@Z@4HA 00000001800481da f   Point.obj
 0001:000471da       ?dtor$2@?0??Release@Matrix@@SAXAEBV?$FunctionCallbackInfo@VValue@v8@@@Nan@@@Z@4HA 00000001800481da f   Matrix.obj
 0001:000471da       ?dtor$2@?0??Size@Matrix@@SAXAEBV?$FunctionCallbackInfo@VValue@v8@@@Nan@@@Z@4HA 00000001800481da f   Matrix.obj
 0001:000471f0       ?dtor$0@?0??DblGet@Matrix@@SANVMat@cv@@HH@Z@4HA 00000001800481f0 f   Matrix.obj
 0001:00047200       ?dtor$2@?0??Get@Matrix@@SAXAEBV?$FunctionCallbackInfo@VValue@v8@@@Nan@@@Z@4HA 0000000180048200 f   Matrix.obj
 0001:0004720e       ?dtor$0@?0??Get@Matrix@@SAXAEBV?$FunctionCallbackInfo@VValue@v8@@@Nan@@@Z@4HA 000000018004820e f   Matrix.obj
 0001:0004721a       ?dtor$1@?0??Get@Matrix@@SAXAEBV?$FunctionCallbackInfo@VValue@v8@@@Nan@@@Z@4HA 000000018004821a f   Matrix.obj
 0001:00047226       ?dtor$3@?0??Get@Matrix@@SAXAEBV?$FunctionCallbackInfo@VValue@v8@@@Nan@@@Z@4HA 0000000180048226 f   Matrix.obj
 0001:00047240       ?dtor$2@?0??GetData@Matrix@@SAXAEBV?$FunctionCallbackInfo@VValue@v8@@@Nan@@@Z@4HA 0000000180048240 f   Matrix.obj
 0001:0004724e       ?dtor$0@?0??GetData@Matrix@@SAXAEBV?$FunctionCallbackInfo@VValue@v8@@@Nan@@@Z@4HA 000000018004824e f   Matrix.obj
 0001:0004725a       ?dtor$1@?0??GetData@Matrix@@SAXAEBV?$FunctionCallbackInfo@VValue@v8@@@Nan@@@Z@4HA 000000018004825a f   Matrix.obj
 0001:00047266       ?dtor$5@?0??GetData@Matrix@@SAXAEBV?$FunctionCallbackInfo@VValue@v8@@@Nan@@@Z@4HA 0000000180048266 f   Matrix.obj
 0001:00047280       ?dtor$10@?0??Brightness@Matrix@@SAXAEBV?$FunctionCallbackInfo@VValue@v8@@@Nan@@@Z@4HA 0000000180048280 f   Matrix.obj
 0001:0004728e       ?dtor$0@?0??Brightness@Matrix@@SAXAEBV?$FunctionCallbackInfo@VValue@v8@@@Nan@@@Z@4HA 000000018004828e f   Matrix.obj
 0001:0004729a       ?dtor$1@?0??Brightness@Matrix@@SAXAEBV?$FunctionCallbackInfo@VValue@v8@@@Nan@@@Z@4HA 000000018004829a f   Matrix.obj
 0001:000472a6       ?dtor$2@?0??Brightness@Matrix@@SAXAEBV?$FunctionCallbackInfo@VValue@v8@@@Nan@@@Z@4HA 00000001800482a6 f   Matrix.obj
 0001:000472b2       ?dtor$3@?0??Brightness@Matrix@@SAXAEBV?$FunctionCallbackInfo@VValue@v8@@@Nan@@@Z@4HA 00000001800482b2 f   Matrix.obj
 0001:000472be       ?dtor$4@?0??Brightness@Matrix@@SAXAEBV?$FunctionCallbackInfo@VValue@v8@@@Nan@@@Z@4HA 00000001800482be f   Matrix.obj
 0001:000472ca       ?dtor$5@?0??Brightness@Matrix@@SAXAEBV?$FunctionCallbackInfo@VValue@v8@@@Nan@@@Z@4HA 00000001800482ca f   Matrix.obj
 0001:000472d6       ?dtor$11@?0??Brightness@Matrix@@SAXAEBV?$FunctionCallbackInfo@VValue@v8@@@Nan@@@Z@4HA 00000001800482d6 f   Matrix.obj
 0001:000472e6       ?dtor$12@?0??Brightness@Matrix@@SAXAEBV?$FunctionCallbackInfo@VValue@v8@@@Nan@@@Z@4HA 00000001800482e6 f   Matrix.obj
 0001:000472f6       ?dtor$13@?0??Brightness@Matrix@@SAXAEBV?$FunctionCallbackInfo@VValue@v8@@@Nan@@@Z@4HA 00000001800482f6 f   Matrix.obj
 0001:00047309       ?dtor$6@?0??Brightness@Matrix@@SAXAEBV?$FunctionCallbackInfo@VValue@v8@@@Nan@@@Z@4HA 0000000180048309 f   Matrix.obj
 0001:00047315       ?dtor$7@?0??Brightness@Matrix@@SAXAEBV?$FunctionCallbackInfo@VValue@v8@@@Nan@@@Z@4HA 0000000180048315 f   Matrix.obj
 0001:00047321       ?dtor$8@?0??Brightness@Matrix@@SAXAEBV?$FunctionCallbackInfo@VValue@v8@@@Nan@@@Z@4HA 0000000180048321 f   Matrix.obj
 0001:0004732d       ?dtor$9@?0??Brightness@Matrix@@SAXAEBV?$FunctionCallbackInfo@VValue@v8@@@Nan@@@Z@4HA 000000018004832d f   Matrix.obj
 0001:00047339       ?dtor$14@?0??Brightness@Matrix@@SAXAEBV?$FunctionCallbackInfo@VValue@v8@@@Nan@@@Z@4HA 0000000180048339 f   Matrix.obj
 0001:00047349       ?dtor$15@?0??Brightness@Matrix@@SAXAEBV?$FunctionCallbackInfo@VValue@v8@@@Nan@@@Z@4HA 0000000180048349 f   Matrix.obj
 0001:00047359       ?dtor$16@?0??Brightness@Matrix@@SAXAEBV?$FunctionCallbackInfo@VValue@v8@@@Nan@@@Z@4HA 0000000180048359 f   Matrix.obj
 0001:0004736c       ?dtor$17@?0??Brightness@Matrix@@SAXAEBV?$FunctionCallbackInfo@VValue@v8@@@Nan@@@Z@4HA 000000018004836c f   Matrix.obj
 0001:00047380       ?dtor$0@?0???1MatExpr@cv@@QEAA@XZ@4HA 0000000180048380 f   Matrix.obj
 0001:00047390       ?dtor$1@?0???1MatExpr@cv@@QEAA@XZ@4HA 0000000180048390 f   Matrix.obj
 0001:000473a0       ?dtor$2@?0???1MatExpr@cv@@QEAA@XZ@4HA 00000001800483a0 f   Matrix.obj
 0001:000473c0       ?dtor$0@?0??Normalize@Matrix@@SAXAEBV?$FunctionCallbackInfo@VValue@v8@@@Nan@@@Z@4HA 00000001800483c0 f   Matrix.obj
 0001:000473cc       ?dtor$1@?0??Normalize@Matrix@@SAXAEBV?$FunctionCallbackInfo@VValue@v8@@@Nan@@@Z@4HA 00000001800483cc f   Matrix.obj
 0001:000473e0       ?dtor$0@?0??Norm@Matrix@@SAXAEBV?$FunctionCallbackInfo@VValue@v8@@@Nan@@@Z@4HA 00000001800483e0 f   Matrix.obj
 0001:000473f0       ?dtor$2@?0??Reshape@Matrix@@SAXAEBV?$FunctionCallbackInfo@VValue@v8@@@Nan@@@Z@4HA 00000001800483f0 f   Matrix.obj
 0001:000473f0       ?dtor$2@?0??Clone@Matrix@@SAXAEBV?$FunctionCallbackInfo@VValue@v8@@@Nan@@@Z@4HA 00000001800483f0 f   Matrix.obj
 0001:000473fe       ?dtor$0@?0??Clone@Matrix@@SAXAEBV?$FunctionCallbackInfo@VValue@v8@@@Nan@@@Z@4HA 00000001800483fe f   Matrix.obj
 0001:000473fe       ?dtor$0@?0??Reshape@Matrix@@SAXAEBV?$FunctionCallbackInfo@VValue@v8@@@Nan@@@Z@4HA 00000001800483fe f   Matrix.obj
 0001:0004740a       ?dtor$1@?0??Clone@Matrix@@SAXAEBV?$FunctionCallbackInfo@VValue@v8@@@Nan@@@Z@4HA 000000018004840a f   Matrix.obj
 0001:0004740a       ?dtor$1@?0??Reshape@Matrix@@SAXAEBV?$FunctionCallbackInfo@VValue@v8@@@Nan@@@Z@4HA 000000018004840a f   Matrix.obj
 0001:00047416       ?dtor$3@?0??Reshape@Matrix@@SAXAEBV?$FunctionCallbackInfo@VValue@v8@@@Nan@@@Z@4HA 0000000180048416 f   Matrix.obj
 0001:00047416       ?dtor$3@?0??Clone@Matrix@@SAXAEBV?$FunctionCallbackInfo@VValue@v8@@@Nan@@@Z@4HA 0000000180048416 f   Matrix.obj
 0001:00047430       ?dtor$2@?0??Crop@Matrix@@SAXAEBV?$FunctionCallbackInfo@VValue@v8@@@Nan@@@Z@4HA 0000000180048430 f   Matrix.obj
 0001:0004743e       ?dtor$0@?0??Crop@Matrix@@SAXAEBV?$FunctionCallbackInfo@VValue@v8@@@Nan@@@Z@4HA 000000018004843e f   Matrix.obj
 0001:0004744a       ?dtor$1@?0??Crop@Matrix@@SAXAEBV?$FunctionCallbackInfo@VValue@v8@@@Nan@@@Z@4HA 000000018004844a f   Matrix.obj
 0001:00047456       ?dtor$3@?0??Crop@Matrix@@SAXAEBV?$FunctionCallbackInfo@VValue@v8@@@Nan@@@Z@4HA 0000000180048456 f   Matrix.obj
 0001:00047470       ?dtor$2@?0??Row@Matrix@@SAXAEBV?$FunctionCallbackInfo@VValue@v8@@@Nan@@@Z@4HA 0000000180048470 f   Matrix.obj
 0001:00047470       ?dtor$2@?0??Col@Matrix@@SAXAEBV?$FunctionCallbackInfo@VValue@v8@@@Nan@@@Z@4HA 0000000180048470 f   Matrix.obj
 0001:0004747e       ?dtor$0@?0??Row@Matrix@@SAXAEBV?$FunctionCallbackInfo@VValue@v8@@@Nan@@@Z@4HA 000000018004847e f   Matrix.obj
 0001:0004747e       ?dtor$0@?0??Col@Matrix@@SAXAEBV?$FunctionCallbackInfo@VValue@v8@@@Nan@@@Z@4HA 000000018004847e f   Matrix.obj
 0001:0004748a       ?dtor$1@?0??Col@Matrix@@SAXAEBV?$FunctionCallbackInfo@VValue@v8@@@Nan@@@Z@4HA 000000018004848a f   Matrix.obj
 0001:0004748a       ?dtor$1@?0??Row@Matrix@@SAXAEBV?$FunctionCallbackInfo@VValue@v8@@@Nan@@@Z@4HA 000000018004848a f   Matrix.obj
 0001:00047496       ?dtor$3@?0??Row@Matrix@@SAXAEBV?$FunctionCallbackInfo@VValue@v8@@@Nan@@@Z@4HA 0000000180048496 f   Matrix.obj
 0001:00047496       ?dtor$3@?0??Col@Matrix@@SAXAEBV?$FunctionCallbackInfo@VValue@v8@@@Nan@@@Z@4HA 0000000180048496 f   Matrix.obj
 0001:000474b0       ?dtor$1@?0??PixelCol@Matrix@@SAXAEBV?$FunctionCallbackInfo@VValue@v8@@@Nan@@@Z@4HA 00000001800484b0 f   Matrix.obj
 0001:000474b0       ?dtor$1@?0??PixelRow@Matrix@@SAXAEBV?$FunctionCallbackInfo@VValue@v8@@@Nan@@@Z@4HA 00000001800484b0 f   Matrix.obj
 0001:000474be       ?dtor$0@?0??PixelRow@Matrix@@SAXAEBV?$FunctionCallbackInfo@VValue@v8@@@Nan@@@Z@4HA 00000001800484be f   Matrix.obj
 0001:000474be       ?dtor$0@?0??PixelCol@Matrix@@SAXAEBV?$FunctionCallbackInfo@VValue@v8@@@Nan@@@Z@4HA 00000001800484be f   Matrix.obj
 0001:000474ca       ?dtor$2@?0??PixelCol@Matrix@@SAXAEBV?$FunctionCallbackInfo@VValue@v8@@@Nan@@@Z@4HA 00000001800484ca f   Matrix.obj
 0001:000474ca       ?dtor$2@?0??PixelRow@Matrix@@SAXAEBV?$FunctionCallbackInfo@VValue@v8@@@Nan@@@Z@4HA 00000001800484ca f   Matrix.obj
 0001:000474e0       ?dtor$6@?0??ToBuffer@Matrix@@SAXAEBV?$FunctionCallbackInfo@VValue@v8@@@Nan@@@Z@4HA 00000001800484e0 f   Matrix.obj
 0001:000474ee       ?dtor$0@?0??ToBuffer@Matrix@@SAXAEBV?$FunctionCallbackInfo@VValue@v8@@@Nan@@@Z@4HA 00000001800484ee f   Matrix.obj
 0001:000474fa       ?dtor$7@?0??ToBuffer@Matrix@@SAXAEBV?$FunctionCallbackInfo@VValue@v8@@@Nan@@@Z@4HA 00000001800484fa f   Matrix.obj
 0001:00047508       ?dtor$1@?0??ToBuffer@Matrix@@SAXAEBV?$FunctionCallbackInfo@VValue@v8@@@Nan@@@Z@4HA 0000000180048508 f   Matrix.obj
 0001:00047514       ?dtor$2@?0??ToBuffer@Matrix@@SAXAEBV?$FunctionCallbackInfo@VValue@v8@@@Nan@@@Z@4HA 0000000180048514 f   Matrix.obj
 0001:00047520       ?dtor$3@?0??ToBuffer@Matrix@@SAXAEBV?$FunctionCallbackInfo@VValue@v8@@@Nan@@@Z@4HA 0000000180048520 f   Matrix.obj
 0001:0004752e       ?dtor$4@?0??ToBuffer@Matrix@@SAXAEBV?$FunctionCallbackInfo@VValue@v8@@@Nan@@@Z@4HA 000000018004852e f   Matrix.obj
 0001:0004753a       ?dtor$5@?0??ToBuffer@Matrix@@SAXAEBV?$FunctionCallbackInfo@VValue@v8@@@Nan@@@Z@4HA 000000018004853a f   Matrix.obj
 0001:00047546       ?dtor$10@?0??ToBuffer@Matrix@@SAXAEBV?$FunctionCallbackInfo@VValue@v8@@@Nan@@@Z@4HA 0000000180048546 f   Matrix.obj
 0001:00047560       ?dtor$0@?0???0AsyncToBufferWorker@@QEAA@PEAVCallback@Nan@@PEAVMatrix@@V?$basic_string@DU?$char_traits@D@std@@V?$allocator@D@2@@std@@V?$vector@HV?$allocator@H@std@@@5@@Z@4HA 0000000180048560 f   Matrix.obj
 0001:0004756c       ?dtor$1@?0???0AsyncToBufferWorker@@QEAA@PEAVCallback@Nan@@PEAVMatrix@@V?$basic_string@DU?$char_traits@D@std@@V?$allocator@D@2@@std@@V?$vector@HV?$allocator@H@std@@@5@@Z@4HA 000000018004856c f   Matrix.obj
 0001:00047578       ?dtor$2@?0???0AsyncToBufferWorker@@QEAA@PEAVCallback@Nan@@PEAVMatrix@@V?$basic_string@DU?$char_traits@D@std@@V?$allocator@D@2@@std@@V?$vector@HV?$allocator@H@std@@@5@@Z@4HA 0000000180048578 f   Matrix.obj
 0001:00047584       ?dtor$3@?0???0AsyncToBufferWorker@@QEAA@PEAVCallback@Nan@@PEAVMatrix@@V?$basic_string@DU?$char_traits@D@std@@V?$allocator@D@2@@std@@V?$vector@HV?$allocator@H@std@@@5@@Z@4HA 0000000180048584 f   Matrix.obj
 0001:00047597       ?dtor$4@?0???0AsyncToBufferWorker@@QEAA@PEAVCallback@Nan@@PEAVMatrix@@V?$basic_string@DU?$char_traits@D@std@@V?$allocator@D@2@@std@@V?$vector@HV?$allocator@H@std@@@5@@Z@4HA 0000000180048597 f   Matrix.obj
 0001:000475aa       ?dtor$5@?0???0AsyncToBufferWorker@@QEAA@PEAVCallback@Nan@@PEAVMatrix@@V?$basic_string@DU?$char_traits@D@std@@V?$allocator@D@2@@std@@V?$vector@HV?$allocator@H@std@@@5@@Z@4HA 00000001800485aa f   Matrix.obj
 0001:000475c0       ?dtor$0@?0???1AsyncToBufferWorker@@UEAA@XZ@4HA 00000001800485c0 f   Matrix.obj
 0001:000475cc       ?dtor$1@?0???1AsyncToBufferWorker@@UEAA@XZ@4HA 00000001800485cc f   Matrix.obj
 0001:000475df       ?dtor$2@?0???1AsyncToBufferWorker@@UEAA@XZ@4HA 00000001800485df f   Matrix.obj
 0001:000475f2       ?dtor$3@?0???1AsyncToBufferWorker@@UEAA@XZ@4HA 00000001800485f2 f   Matrix.obj
 0001:00047610       ?dtor$0@?0??Execute@AsyncToBufferWorker@@UEAAXXZ@4HA 0000000180048610 f   Matrix.obj
 0001:00047620       ?dtor$2@?0??HandleOKCallback@AsyncDetectMultiScale@@UEAAXXZ@4HA 0000000180048620 f   CascadeClassifierWrap.obj
 0001:00047620       ?dtor$2@?0??HandleOKCallback@AsyncToBufferWorker@@UEAAXXZ@4HA 0000000180048620 f   Matrix.obj
 0001:0004762e       ?dtor$0@?0??HandleOKCallback@AsyncDetectMultiScale@@UEAAXXZ@4HA 000000018004862e f   CascadeClassifierWrap.obj
 0001:0004762e       ?dtor$0@?0??HandleOKCallback@AsyncToBufferWorker@@UEAAXXZ@4HA 000000018004862e f   Matrix.obj
 0001:0004763a       ?dtor$5@?0??HandleOKCallback@AsyncToBufferWorker@@UEAAXXZ@4HA 000000018004863a f   Matrix.obj
 0001:0004763a       ?dtor$3@?0??HandleOKCallback@AsyncDetectMultiScale@@UEAAXXZ@4HA 000000018004863a f   CascadeClassifierWrap.obj
 0001:00047648       ?dtor$1@?0??HandleOKCallback@AsyncDetectMultiScale@@UEAAXXZ@4HA 0000000180048648 f   CascadeClassifierWrap.obj
 0001:00047648       ?dtor$1@?0??HandleOKCallback@AsyncToBufferWorker@@UEAAXXZ@4HA 0000000180048648 f   Matrix.obj
 0001:00047654       ?dtor$7@?0??HandleOKCallback@AsyncToBufferWorker@@UEAAXXZ@4HA 0000000180048654 f   Matrix.obj
 0001:00047654       ?dtor$5@?0??HandleOKCallback@AsyncDetectMultiScale@@UEAAXXZ@4HA 0000000180048654 f   CascadeClassifierWrap.obj
 0001:00047662       ?dtor$8@?0??HandleOKCallback@AsyncToBufferWorker@@UEAAXXZ@4HA 0000000180048662 f   Matrix.obj
 0001:00047662       ?dtor$6@?0??HandleOKCallback@AsyncDetectMultiScale@@UEAAXXZ@4HA 0000000180048662 f   CascadeClassifierWrap.obj
 0001:00047670       ?dtor$0@?0???1TryCatch@Nan@@QEAA@XZ@4HA 0000000180048670 f   Matrix.obj
 0001:00047680       ?dtor$9@?0??ToBufferAsync@Matrix@@SAXAEBV?$FunctionCallbackInfo@VValue@v8@@@Nan@@@Z@4HA 0000000180048680 f   Matrix.obj
 0001:0004768e       ?dtor$0@?0??ToBufferAsync@Matrix@@SAXAEBV?$FunctionCallbackInfo@VValue@v8@@@Nan@@@Z@4HA 000000018004868e f   Matrix.obj
 0001:0004769a       ?dtor$1@?0??ToBufferAsync@Matrix@@SAXAEBV?$FunctionCallbackInfo@VValue@v8@@@Nan@@@Z@4HA 000000018004869a f   Matrix.obj
 0001:000476a6       ?dtor$2@?0??ToBufferAsync@Matrix@@SAXAEBV?$FunctionCallbackInfo@VValue@v8@@@Nan@@@Z@4HA 00000001800486a6 f   Matrix.obj
 0001:000476b2       ?dtor$3@?0??ToBufferAsync@Matrix@@SAXAEBV?$FunctionCallbackInfo@VValue@v8@@@Nan@@@Z@4HA 00000001800486b2 f   Matrix.obj
 0001:000476c0       ?dtor$4@?0??ToBufferAsync@Matrix@@SAXAEBV?$FunctionCallbackInfo@VValue@v8@@@Nan@@@Z@4HA 00000001800486c0 f   Matrix.obj
 0001:000476cc       ?dtor$5@?0??ToBufferAsync@Matrix@@SAXAEBV?$FunctionCallbackInfo@VValue@v8@@@Nan@@@Z@4HA 00000001800486cc f   Matrix.obj
 0001:000476e9       ?dtor$12@?0??ToBufferAsync@Matrix@@SAXAEBV?$FunctionCallbackInfo@VValue@v8@@@Nan@@@Z@4HA 00000001800486e9 f   Matrix.obj
 0001:000476f5       ?dtor$11@?0??ToBufferAsync@Matrix@@SAXAEBV?$FunctionCallbackInfo@VValue@v8@@@Nan@@@Z@4HA 00000001800486f5 f   Matrix.obj
 0001:00047701       ?dtor$6@?0??ToBufferAsync@Matrix@@SAXAEBV?$FunctionCallbackInfo@VValue@v8@@@Nan@@@Z@4HA 0000000180048701 f   Matrix.obj
 0001:0004771e       ?dtor$7@?0??ToBufferAsync@Matrix@@SAXAEBV?$FunctionCallbackInfo@VValue@v8@@@Nan@@@Z@4HA 000000018004871e f   Matrix.obj
 0001:0004772a       ?dtor$8@?0??ToBufferAsync@Matrix@@SAXAEBV?$FunctionCallbackInfo@VValue@v8@@@Nan@@@Z@4HA 000000018004872a f   Matrix.obj
 0001:00047736       ?dtor$13@?0??ToBufferAsync@Matrix@@SAXAEBV?$FunctionCallbackInfo@VValue@v8@@@Nan@@@Z@4HA 0000000180048736 f   Matrix.obj
 0001:00047750       ?dtor$1@?0??Ellipse@Matrix@@SAXAEBV?$FunctionCallbackInfo@VValue@v8@@@Nan@@@Z@4HA 0000000180048750 f   Matrix.obj
 0001:0004775e       ?dtor$0@?0??Ellipse@Matrix@@SAXAEBV?$FunctionCallbackInfo@VValue@v8@@@Nan@@@Z@4HA 000000018004875e f   Matrix.obj
 0001:0004776a       ?dtor$2@?0??Ellipse@Matrix@@SAXAEBV?$FunctionCallbackInfo@VValue@v8@@@Nan@@@Z@4HA 000000018004876a f   Matrix.obj
 0001:00047780       ?dtor$1@?0??Rectangle@Matrix@@SAXAEBV?$FunctionCallbackInfo@VValue@v8@@@Nan@@@Z@4HA 0000000180048780 f   Matrix.obj
 0001:00047780       ?dtor$1@?0??Line@Matrix@@SAXAEBV?$FunctionCallbackInfo@VValue@v8@@@Nan@@@Z@4HA 0000000180048780 f   Matrix.obj
 0001:0004778e       ?dtor$0@?0??Rectangle@Matrix@@SAXAEBV?$FunctionCallbackInfo@VValue@v8@@@Nan@@@Z@4HA 000000018004878e f   Matrix.obj
 0001:0004778e       ?dtor$0@?0??Line@Matrix@@SAXAEBV?$FunctionCallbackInfo@VValue@v8@@@Nan@@@Z@4HA 000000018004878e f   Matrix.obj
 0001:0004779a       ?dtor$2@?0??Line@Matrix@@SAXAEBV?$FunctionCallbackInfo@VValue@v8@@@Nan@@@Z@4HA 000000018004879a f   Matrix.obj
 0001:0004779a       ?dtor$2@?0??Rectangle@Matrix@@SAXAEBV?$FunctionCallbackInfo@VValue@v8@@@Nan@@@Z@4HA 000000018004879a f   Matrix.obj
 0001:000477b0       ?dtor$2@?0??FillPoly@Matrix@@SAXAEBV?$FunctionCallbackInfo@VValue@v8@@@Nan@@@Z@4HA 00000001800487b0 f   Matrix.obj
 0001:000477be       ?dtor$0@?0??FillPoly@Matrix@@SAXAEBV?$FunctionCallbackInfo@VValue@v8@@@Nan@@@Z@4HA 00000001800487be f   Matrix.obj
 0001:000477ca       ?dtor$1@?0??FillPoly@Matrix@@SAXAEBV?$FunctionCallbackInfo@VValue@v8@@@Nan@@@Z@4HA 00000001800487ca f   Matrix.obj
 0001:000477ff       ?dtor$3@?0??FillPoly@Matrix@@SAXAEBV?$FunctionCallbackInfo@VValue@v8@@@Nan@@@Z@4HA 00000001800487ff f   Matrix.obj
 0001:00047810       ?dtor$4@?0??Save@Matrix@@SAXAEBV?$FunctionCallbackInfo@VValue@v8@@@Nan@@@Z@4HA 0000000180048810 f   Matrix.obj
 0001:0004781e       ?dtor$0@?0??Save@Matrix@@SAXAEBV?$FunctionCallbackInfo@VValue@v8@@@Nan@@@Z@4HA 000000018004881e f   Matrix.obj
 0001:0004782a       ?dtor$5@?0??Save@Matrix@@SAXAEBV?$FunctionCallbackInfo@VValue@v8@@@Nan@@@Z@4HA 000000018004882a f   Matrix.obj
 0001:00047838       ?dtor$1@?0??Save@Matrix@@SAXAEBV?$FunctionCallbackInfo@VValue@v8@@@Nan@@@Z@4HA 0000000180048838 f   Matrix.obj
 0001:00047844       ?dtor$2@?0??Save@Matrix@@SAXAEBV?$FunctionCallbackInfo@VValue@v8@@@Nan@@@Z@4HA 0000000180048844 f   Matrix.obj
 0001:00047850       ?dtor$3@?0??Save@Matrix@@SAXAEBV?$FunctionCallbackInfo@VValue@v8@@@Nan@@@Z@4HA 0000000180048850 f   Matrix.obj
 0001:0004785c       ?dtor$6@?0??Save@Matrix@@SAXAEBV?$FunctionCallbackInfo@VValue@v8@@@Nan@@@Z@4HA 000000018004885c f   Matrix.obj
 0001:00047870       ?dtor$0@?0???_GAsyncSaveWorker@@UEAAPEAXI@Z@4HA 0000000180048870 f   Matrix.obj
 0001:00047870       ?dtor$0@?0???0AsyncSaveWorker@@QEAA@PEAVCallback@Nan@@PEAVMatrix@@PEAD@Z@4HA 0000000180048870 f   Matrix.obj
 0001:0004787c       ?dtor$1@?0???0AsyncSaveWorker@@QEAA@PEAVCallback@Nan@@PEAVMatrix@@PEAD@Z@4HA 000000018004887c f   Matrix.obj
 0001:0004787c       ?dtor$1@?0???_GAsyncSaveWorker@@UEAAPEAXI@Z@4HA 000000018004887c f   Matrix.obj
 0001:00047890       ?dtor$0@?0??Execute@AsyncSaveWorker@@UEAAXXZ@4HA 0000000180048890 f   Matrix.obj
 0001:000478a0       ?dtor$2@?0??HandleOKCallback@AsyncVCWorker@@UEAAXXZ@4HA 00000001800488a0 f   VideoCaptureWrap.obj
 0001:000478a0       ?dtor$2@?0??HandleOKCallback@AsyncSaveWorker@@UEAAXXZ@4HA 00000001800488a0 f   Matrix.obj
 0001:000478a0       ?dtor$2@?0??HandleOKCallback@PredictASyncWorker@@UEAAXXZ@4HA 00000001800488a0 f   FaceRecognizer.obj
 0001:000478ae       ?dtor$0@?0??HandleOKCallback@PredictASyncWorker@@UEAAXXZ@4HA 00000001800488ae f   FaceRecognizer.obj
 0001:000478ae       ?dtor$0@?0??HandleOKCallback@AsyncVCWorker@@UEAAXXZ@4HA 00000001800488ae f   VideoCaptureWrap.obj
 0001:000478ae       ?dtor$0@?0??HandleOKCallback@AsyncSaveWorker@@UEAAXXZ@4HA 00000001800488ae f   Matrix.obj
 0001:000478ba       ?dtor$3@?0??HandleOKCallback@AsyncSaveWorker@@UEAAXXZ@4HA 00000001800488ba f   Matrix.obj
 0001:000478ba       ?dtor$3@?0??HandleOKCallback@AsyncVCWorker@@UEAAXXZ@4HA 00000001800488ba f   VideoCaptureWrap.obj
 0001:000478ba       ?dtor$3@?0??HandleOKCallback@PredictASyncWorker@@UEAAXXZ@4HA 00000001800488ba f   FaceRecognizer.obj
 0001:000478c8       ?dtor$1@?0??HandleOKCallback@PredictASyncWorker@@UEAAXXZ@4HA 00000001800488c8 f   FaceRecognizer.obj
 0001:000478c8       ?dtor$1@?0??HandleOKCallback@AsyncSaveWorker@@UEAAXXZ@4HA 00000001800488c8 f   Matrix.obj
 0001:000478c8       ?dtor$1@?0??HandleOKCallback@AsyncVCWorker@@UEAAXXZ@4HA 00000001800488c8 f   VideoCaptureWrap.obj
 0001:000478d4       ?dtor$5@?0??HandleOKCallback@AsyncVCWorker@@UEAAXXZ@4HA 00000001800488d4 f   VideoCaptureWrap.obj
 0001:000478d4       ?dtor$5@?0??HandleOKCallback@AsyncSaveWorker@@UEAAXXZ@4HA 00000001800488d4 f   Matrix.obj
 0001:000478d4       ?dtor$5@?0??HandleOKCallback@PredictASyncWorker@@UEAAXXZ@4HA 00000001800488d4 f   FaceRecognizer.obj
 0001:000478e2       ?dtor$6@?0??HandleOKCallback@PredictASyncWorker@@UEAAXXZ@4HA 00000001800488e2 f   FaceRecognizer.obj
 0001:000478e2       ?dtor$6@?0??HandleOKCallback@AsyncVCWorker@@UEAAXXZ@4HA 00000001800488e2 f   VideoCaptureWrap.obj
 0001:000478e2       ?dtor$6@?0??HandleOKCallback@AsyncSaveWorker@@UEAAXXZ@4HA 00000001800488e2 f   Matrix.obj
 0001:000478f0       ?dtor$4@?0??SaveAsync@Matrix@@SAXAEBV?$FunctionCallbackInfo@VValue@v8@@@Nan@@@Z@4HA 00000001800488f0 f   Matrix.obj
 0001:000478fe       ?dtor$0@?0??SaveAsync@Matrix@@SAXAEBV?$FunctionCallbackInfo@VValue@v8@@@Nan@@@Z@4HA 00000001800488fe f   Matrix.obj
 0001:0004790a       ?dtor$1@?0??SaveAsync@Matrix@@SAXAEBV?$FunctionCallbackInfo@VValue@v8@@@Nan@@@Z@4HA 000000018004890a f   Matrix.obj
 0001:00047916       ?dtor$2@?0??SaveAsync@Matrix@@SAXAEBV?$FunctionCallbackInfo@VValue@v8@@@Nan@@@Z@4HA 0000000180048916 f   Matrix.obj
 0001:00047933       ?dtor$7@?0??SaveAsync@Matrix@@SAXAEBV?$FunctionCallbackInfo@VValue@v8@@@Nan@@@Z@4HA 0000000180048933 f   Matrix.obj
 0001:0004793f       ?dtor$6@?0??SaveAsync@Matrix@@SAXAEBV?$FunctionCallbackInfo@VValue@v8@@@Nan@@@Z@4HA 000000018004893f f   Matrix.obj
 0001:0004794b       ?dtor$3@?0??SaveAsync@Matrix@@SAXAEBV?$FunctionCallbackInfo@VValue@v8@@@Nan@@@Z@4HA 000000018004894b f   Matrix.obj
 0001:00047968       ?dtor$8@?0??SaveAsync@Matrix@@SAXAEBV?$FunctionCallbackInfo@VValue@v8@@@Nan@@@Z@4HA 0000000180048968 f   Matrix.obj
 0001:00047980       ?dtor$4@?0??Eye@Matrix@@SAXAEBV?$FunctionCallbackInfo@VValue@v8@@@Nan@@@Z@4HA 0000000180048980 f   Matrix.obj
 0001:00047980       ?dtor$4@?0??Zeros@Matrix@@SAXAEBV?$FunctionCallbackInfo@VValue@v8@@@Nan@@@Z@4HA 0000000180048980 f   Matrix.obj
 0001:00047980       ?dtor$4@?0??Ones@Matrix@@SAXAEBV?$FunctionCallbackInfo@VValue@v8@@@Nan@@@Z@4HA 0000000180048980 f   Matrix.obj
 0001:0004798e       ?dtor$0@?0??Zeros@Matrix@@SAXAEBV?$FunctionCallbackInfo@VValue@v8@@@Nan@@@Z@4HA 000000018004898e f   Matrix.obj
 0001:0004798e       ?dtor$0@?0??Eye@Matrix@@SAXAEBV?$FunctionCallbackInfo@VValue@v8@@@Nan@@@Z@4HA 000000018004898e f   Matrix.obj
 0001:0004798e       ?dtor$0@?0??Ones@Matrix@@SAXAEBV?$FunctionCallbackInfo@VValue@v8@@@Nan@@@Z@4HA 000000018004898e f   Matrix.obj
 0001:0004799a       ?dtor$1@?0??Ones@Matrix@@SAXAEBV?$FunctionCallbackInfo@VValue@v8@@@Nan@@@Z@4HA 000000018004899a f   Matrix.obj
 0001:0004799a       ?dtor$1@?0??Zeros@Matrix@@SAXAEBV?$FunctionCallbackInfo@VValue@v8@@@Nan@@@Z@4HA 000000018004899a f   Matrix.obj
 0001:0004799a       ?dtor$1@?0??Eye@Matrix@@SAXAEBV?$FunctionCallbackInfo@VValue@v8@@@Nan@@@Z@4HA 000000018004899a f   Matrix.obj
 0001:000479a6       ?dtor$2@?0??Ones@Matrix@@SAXAEBV?$FunctionCallbackInfo@VValue@v8@@@Nan@@@Z@4HA 00000001800489a6 f   Matrix.obj
 0001:000479a6       ?dtor$2@?0??Eye@Matrix@@SAXAEBV?$FunctionCallbackInfo@VValue@v8@@@Nan@@@Z@4HA 00000001800489a6 f   Matrix.obj
 0001:000479a6       ?dtor$2@?0??Zeros@Matrix@@SAXAEBV?$FunctionCallbackInfo@VValue@v8@@@Nan@@@Z@4HA 00000001800489a6 f   Matrix.obj
 0001:000479b2       ?dtor$3@?0??Eye@Matrix@@SAXAEBV?$FunctionCallbackInfo@VValue@v8@@@Nan@@@Z@4HA 00000001800489b2 f   Matrix.obj
 0001:000479b2       ?dtor$3@?0??Ones@Matrix@@SAXAEBV?$FunctionCallbackInfo@VValue@v8@@@Nan@@@Z@4HA 00000001800489b2 f   Matrix.obj
 0001:000479b2       ?dtor$3@?0??Zeros@Matrix@@SAXAEBV?$FunctionCallbackInfo@VValue@v8@@@Nan@@@Z@4HA 00000001800489b2 f   Matrix.obj
 0001:000479be       ?dtor$5@?0??Eye@Matrix@@SAXAEBV?$FunctionCallbackInfo@VValue@v8@@@Nan@@@Z@4HA 00000001800489be f   Matrix.obj
 0001:000479be       ?dtor$5@?0??Ones@Matrix@@SAXAEBV?$FunctionCallbackInfo@VValue@v8@@@Nan@@@Z@4HA 00000001800489be f   Matrix.obj
 0001:000479be       ?dtor$5@?0??Zeros@Matrix@@SAXAEBV?$FunctionCallbackInfo@VValue@v8@@@Nan@@@Z@4HA 00000001800489be f   Matrix.obj
 0001:000479ce       ?dtor$6@?0??Zeros@Matrix@@SAXAEBV?$FunctionCallbackInfo@VValue@v8@@@Nan@@@Z@4HA 00000001800489ce f   Matrix.obj
 0001:000479ce       ?dtor$6@?0??Eye@Matrix@@SAXAEBV?$FunctionCallbackInfo@VValue@v8@@@Nan@@@Z@4HA 00000001800489ce f   Matrix.obj
 0001:000479ce       ?dtor$6@?0??Ones@Matrix@@SAXAEBV?$FunctionCallbackInfo@VValue@v8@@@Nan@@@Z@4HA 00000001800489ce f   Matrix.obj
 0001:000479de       ?dtor$7@?0??Eye@Matrix@@SAXAEBV?$FunctionCallbackInfo@VValue@v8@@@Nan@@@Z@4HA 00000001800489de f   Matrix.obj
 0001:000479de       ?dtor$7@?0??Ones@Matrix@@SAXAEBV?$FunctionCallbackInfo@VValue@v8@@@Nan@@@Z@4HA 00000001800489de f   Matrix.obj
 0001:000479de       ?dtor$7@?0??Zeros@Matrix@@SAXAEBV?$FunctionCallbackInfo@VValue@v8@@@Nan@@@Z@4HA 00000001800489de f   Matrix.obj
 0001:000479f1       ?dtor$8@?0??Ones@Matrix@@SAXAEBV?$FunctionCallbackInfo@VValue@v8@@@Nan@@@Z@4HA 00000001800489f1 f   Matrix.obj
 0001:000479f1       ?dtor$8@?0??Zeros@Matrix@@SAXAEBV?$FunctionCallbackInfo@VValue@v8@@@Nan@@@Z@4HA 00000001800489f1 f   Matrix.obj
 0001:000479f1       ?dtor$8@?0??Eye@Matrix@@SAXAEBV?$FunctionCallbackInfo@VValue@v8@@@Nan@@@Z@4HA 00000001800489f1 f   Matrix.obj
 0001:00047a00       ?dtor$2@?0??ConvertHSVscale@Matrix@@SAXAEBV?$FunctionCallbackInfo@VValue@v8@@@Nan@@@Z@4HA 0000000180048a00 f   Matrix.obj
 0001:00047a00       ?dtor$2@?0??MedianBlur@Matrix@@SAXAEBV?$FunctionCallbackInfo@VValue@v8@@@Nan@@@Z@4HA 0000000180048a00 f   Matrix.obj
 0001:00047a0e       ?dtor$0@?0??MedianBlur@Matrix@@SAXAEBV?$FunctionCallbackInfo@VValue@v8@@@Nan@@@Z@4HA 0000000180048a0e f   Matrix.obj
 0001:00047a0e       ?dtor$0@?0??ConvertHSVscale@Matrix@@SAXAEBV?$FunctionCallbackInfo@VValue@v8@@@Nan@@@Z@4HA 0000000180048a0e f   Matrix.obj
 0001:00047a1a       ?dtor$1@?0??ConvertHSVscale@Matrix@@SAXAEBV?$FunctionCallbackInfo@VValue@v8@@@Nan@@@Z@4HA 0000000180048a1a f   Matrix.obj
 0001:00047a1a       ?dtor$1@?0??MedianBlur@Matrix@@SAXAEBV?$FunctionCallbackInfo@VValue@v8@@@Nan@@@Z@4HA 0000000180048a1a f   Matrix.obj
 0001:00047a26       ?dtor$3@?0??ConvertHSVscale@Matrix@@SAXAEBV?$FunctionCallbackInfo@VValue@v8@@@Nan@@@Z@4HA 0000000180048a26 f   Matrix.obj
 0001:00047a26       ?dtor$3@?0??MedianBlur@Matrix@@SAXAEBV?$FunctionCallbackInfo@VValue@v8@@@Nan@@@Z@4HA 0000000180048a26 f   Matrix.obj
 0001:00047a40       ?dtor$2@?0??GaussianBlur@Matrix@@SAXAEBV?$FunctionCallbackInfo@VValue@v8@@@Nan@@@Z@4HA 0000000180048a40 f   Matrix.obj
 0001:00047a40       ?dtor$2@?0??FitEllipse@Contour@@SAXAEBV?$FunctionCallbackInfo@VValue@v8@@@Nan@@@Z@4HA 0000000180048a40 f   Contours.obj
 0001:00047a4e       ?dtor$0@?0??GaussianBlur@Matrix@@SAXAEBV?$FunctionCallbackInfo@VValue@v8@@@Nan@@@Z@4HA 0000000180048a4e f   Matrix.obj
 0001:00047a4e       ?dtor$0@?0??FitEllipse@Contour@@SAXAEBV?$FunctionCallbackInfo@VValue@v8@@@Nan@@@Z@4HA 0000000180048a4e f   Contours.obj
 0001:00047a5a       ?dtor$1@?0??GaussianBlur@Matrix@@SAXAEBV?$FunctionCallbackInfo@VValue@v8@@@Nan@@@Z@4HA 0000000180048a5a f   Matrix.obj
 0001:00047a5a       ?dtor$1@?0??FitEllipse@Contour@@SAXAEBV?$FunctionCallbackInfo@VValue@v8@@@Nan@@@Z@4HA 0000000180048a5a f   Contours.obj
 0001:00047a66       ?dtor$4@?0??FitEllipse@Contour@@SAXAEBV?$FunctionCallbackInfo@VValue@v8@@@Nan@@@Z@4HA 0000000180048a66 f   Contours.obj
 0001:00047a66       ?dtor$3@?0??GaussianBlur@Matrix@@SAXAEBV?$FunctionCallbackInfo@VValue@v8@@@Nan@@@Z@4HA 0000000180048a66 f   Matrix.obj
 0001:00047a80       ?dtor$2@?0??BilateralFilter@Matrix@@SAXAEBV?$FunctionCallbackInfo@VValue@v8@@@Nan@@@Z@4HA 0000000180048a80 f   Matrix.obj
 0001:00047a8e       ?dtor$0@?0??BilateralFilter@Matrix@@SAXAEBV?$FunctionCallbackInfo@VValue@v8@@@Nan@@@Z@4HA 0000000180048a8e f   Matrix.obj
 0001:00047a9a       ?dtor$1@?0??BilateralFilter@Matrix@@SAXAEBV?$FunctionCallbackInfo@VValue@v8@@@Nan@@@Z@4HA 0000000180048a9a f   Matrix.obj
 0001:00047aa6       ?dtor$3@?0??BilateralFilter@Matrix@@SAXAEBV?$FunctionCallbackInfo@VValue@v8@@@Nan@@@Z@4HA 0000000180048aa6 f   Matrix.obj
 0001:00047ac0       ?dtor$1@?0??SetAccessor@Nan@@YAXV?$Local@VObjectTemplate@v8@@@v8@@V?$Local@VString@v8@@@3@P6AX1AEBV?$PropertyCallbackInfo@VValue@v8@@@1@@ZP6AX1V?$Local@VValue@v8@@@3@AEBV?$PropertyCallbackInfo@X@1@@Z4W4AccessControl@3@W4PropertyAttribute@3@V?$Local@VAccessorSignature@v8@@@3@@Z@4HA 0000000180048ac0 f   Point.obj
 0001:00047ac0       ?dtor$1@?0??Sobel@Matrix@@SAXAEBV?$FunctionCallbackInfo@VValue@v8@@@Nan@@@Z@4HA 0000000180048ac0 f   Matrix.obj
 0001:00047ace       ?dtor$0@?0??Sobel@Matrix@@SAXAEBV?$FunctionCallbackInfo@VValue@v8@@@Nan@@@Z@4HA 0000000180048ace f   Matrix.obj
 0001:00047ace       ?dtor$0@?0??SetAccessor@Nan@@YAXV?$Local@VObjectTemplate@v8@@@v8@@V?$Local@VString@v8@@@3@P6AX1AEBV?$PropertyCallbackInfo@VValue@v8@@@1@@ZP6AX1V?$Local@VValue@v8@@@3@AEBV?$PropertyCallbackInfo@X@1@@Z4W4AccessControl@3@W4PropertyAttribute@3@V?$Local@VAccessorSignature@v8@@@3@@Z@4HA 0000000180048ace f   Point.obj
 0001:00047ada       ?dtor$2@?0??Sobel@Matrix@@SAXAEBV?$FunctionCallbackInfo@VValue@v8@@@Nan@@@Z@4HA 0000000180048ada f   Matrix.obj
 0001:00047ada       ?dtor$3@?0??SetAccessor@Nan@@YAXV?$Local@VObjectTemplate@v8@@@v8@@V?$Local@VString@v8@@@3@P6AX1AEBV?$PropertyCallbackInfo@VValue@v8@@@1@@ZP6AX1V?$Local@VValue@v8@@@3@AEBV?$PropertyCallbackInfo@X@1@@Z4W4AccessControl@3@W4PropertyAttribute@3@V?$Local@VAccessorSignature@v8@@@3@@Z@4HA 0000000180048ada f   Point.obj
 0001:00047af0       ?dtor$2@?0??ROI@Matrix@@SAXAEBV?$FunctionCallbackInfo@VValue@v8@@@Nan@@@Z@4HA 0000000180048af0 f   Matrix.obj
 0001:00047af0       ?dtor$2@?0??GetRotationMatrix2D@Matrix@@SAXAEBV?$FunctionCallbackInfo@VValue@v8@@@Nan@@@Z@4HA 0000000180048af0 f   Matrix.obj
 0001:00047afe       ?dtor$0@?0??ROI@Matrix@@SAXAEBV?$FunctionCallbackInfo@VValue@v8@@@Nan@@@Z@4HA 0000000180048afe f   Matrix.obj
 0001:00047afe       ?dtor$0@?0??GetRotationMatrix2D@Matrix@@SAXAEBV?$FunctionCallbackInfo@VValue@v8@@@Nan@@@Z@4HA 0000000180048afe f   Matrix.obj
 0001:00047b0a       ?dtor$1@?0??GetRotationMatrix2D@Matrix@@SAXAEBV?$FunctionCallbackInfo@VValue@v8@@@Nan@@@Z@4HA 0000000180048b0a f   Matrix.obj
 0001:00047b0a       ?dtor$1@?0??ROI@Matrix@@SAXAEBV?$FunctionCallbackInfo@VValue@v8@@@Nan@@@Z@4HA 0000000180048b0a f   Matrix.obj
 0001:00047b16       ?dtor$3@?0??ROI@Matrix@@SAXAEBV?$FunctionCallbackInfo@VValue@v8@@@Nan@@@Z@4HA 0000000180048b16 f   Matrix.obj
 0001:00047b16       ?dtor$3@?0??GetRotationMatrix2D@Matrix@@SAXAEBV?$FunctionCallbackInfo@VValue@v8@@@Nan@@@Z@4HA 0000000180048b16 f   Matrix.obj
 0001:00047b30       ?dtor$1@?0??AddWeighted@Matrix@@SAXAEBV?$FunctionCallbackInfo@VValue@v8@@@Nan@@@Z@4HA 0000000180048b30 f   Matrix.obj
 0001:00047b3e       ?dtor$0@?0??AddWeighted@Matrix@@SAXAEBV?$FunctionCallbackInfo@VValue@v8@@@Nan@@@Z@4HA 0000000180048b3e f   Matrix.obj
 0001:00047b4a       ?catch$3@?0??AddWeighted@Matrix@@SAXAEBV?$FunctionCallbackInfo@VValue@v8@@@Nan@@@Z@4HA 0000000180048b4a f   Matrix.obj
 0001:00047b57       __catch$?AddWeighted@Matrix@@SAXAEBV?$FunctionCallbackInfo@VValue@v8@@@Nan@@@Z$0 0000000180048b57 f   Matrix.obj
 0001:00047b78       ?dtor$2@?0??AddWeighted@Matrix@@SAXAEBV?$FunctionCallbackInfo@VValue@v8@@@Nan@@@Z@4HA 0000000180048b78 f   Matrix.obj
 0001:00047b90       ?dtor$1@?0??BitwiseAnd@Matrix@@SAXAEBV?$FunctionCallbackInfo@VValue@v8@@@Nan@@@Z@4HA 0000000180048b90 f   Matrix.obj
 0001:00047b90       ?dtor$1@?0??BitwiseXor@Matrix@@SAXAEBV?$FunctionCallbackInfo@VValue@v8@@@Nan@@@Z@4HA 0000000180048b90 f   Matrix.obj
 0001:00047b9e       ?dtor$0@?0??BitwiseAnd@Matrix@@SAXAEBV?$FunctionCallbackInfo@VValue@v8@@@Nan@@@Z@4HA 0000000180048b9e f   Matrix.obj
 0001:00047b9e       ?dtor$0@?0??BitwiseXor@Matrix@@SAXAEBV?$FunctionCallbackInfo@VValue@v8@@@Nan@@@Z@4HA 0000000180048b9e f   Matrix.obj
 0001:00047baa       ?dtor$2@?0??BitwiseAnd@Matrix@@SAXAEBV?$FunctionCallbackInfo@VValue@v8@@@Nan@@@Z@4HA 0000000180048baa f   Matrix.obj
 0001:00047baa       ?dtor$2@?0??BitwiseXor@Matrix@@SAXAEBV?$FunctionCallbackInfo@VValue@v8@@@Nan@@@Z@4HA 0000000180048baa f   Matrix.obj
 0001:00047bc0       ?dtor$1@?0??BitwiseNot@Matrix@@SAXAEBV?$FunctionCallbackInfo@VValue@v8@@@Nan@@@Z@4HA 0000000180048bc0 f   Matrix.obj
 0001:00047bce       ?dtor$0@?0??BitwiseNot@Matrix@@SAXAEBV?$FunctionCallbackInfo@VValue@v8@@@Nan@@@Z@4HA 0000000180048bce f   Matrix.obj
 0001:00047bda       ?dtor$2@?0??BitwiseNot@Matrix@@SAXAEBV?$FunctionCallbackInfo@VValue@v8@@@Nan@@@Z@4HA 0000000180048bda f   Matrix.obj
 0001:00047bf0       ?dtor$1@?0??Moments@Matrix@@SAXAEBV?$FunctionCallbackInfo@VValue@v8@@@Nan@@@Z@4HA 0000000180048bf0 f   Matrix.obj
 0001:00047bfe       ?dtor$0@?0??Moments@Matrix@@SAXAEBV?$FunctionCallbackInfo@VValue@v8@@@Nan@@@Z@4HA 0000000180048bfe f   Matrix.obj
 0001:00047c0a       ?dtor$2@?0??Moments@Matrix@@SAXAEBV?$FunctionCallbackInfo@VValue@v8@@@Nan@@@Z@4HA 0000000180048c0a f   Matrix.obj
 0001:00047c20       ?dtor$2@?0??Erode@Matrix@@SAXAEBV?$FunctionCallbackInfo@VValue@v8@@@Nan@@@Z@4HA 0000000180048c20 f   Matrix.obj
 0001:00047c20       ?dtor$2@?0??Dilate@Matrix@@SAXAEBV?$FunctionCallbackInfo@VValue@v8@@@Nan@@@Z@4HA 0000000180048c20 f   Matrix.obj
 0001:00047c2e       ?dtor$0@?0??Erode@Matrix@@SAXAEBV?$FunctionCallbackInfo@VValue@v8@@@Nan@@@Z@4HA 0000000180048c2e f   Matrix.obj
 0001:00047c2e       ?dtor$0@?0??Dilate@Matrix@@SAXAEBV?$FunctionCallbackInfo@VValue@v8@@@Nan@@@Z@4HA 0000000180048c2e f   Matrix.obj
 0001:00047c3a       ?dtor$1@?0??Dilate@Matrix@@SAXAEBV?$FunctionCallbackInfo@VValue@v8@@@Nan@@@Z@4HA 0000000180048c3a f   Matrix.obj
 0001:00047c3a       ?dtor$1@?0??Erode@Matrix@@SAXAEBV?$FunctionCallbackInfo@VValue@v8@@@Nan@@@Z@4HA 0000000180048c3a f   Matrix.obj
 0001:00047c46       ?dtor$3@?0??Erode@Matrix@@SAXAEBV?$FunctionCallbackInfo@VValue@v8@@@Nan@@@Z@4HA 0000000180048c46 f   Matrix.obj
 0001:00047c46       ?dtor$3@?0??Dilate@Matrix@@SAXAEBV?$FunctionCallbackInfo@VValue@v8@@@Nan@@@Z@4HA 0000000180048c46 f   Matrix.obj
 0001:00047c60       ?dtor$1@?0??FindContours@Matrix@@SAXAEBV?$FunctionCallbackInfo@VValue@v8@@@Nan@@@Z@4HA 0000000180048c60 f   Matrix.obj
 0001:00047c6e       ?dtor$0@?0??FindContours@Matrix@@SAXAEBV?$FunctionCallbackInfo@VValue@v8@@@Nan@@@Z@4HA 0000000180048c6e f   Matrix.obj
 0001:00047c7a       ?dtor$2@?0??FindContours@Matrix@@SAXAEBV?$FunctionCallbackInfo@VValue@v8@@@Nan@@@Z@4HA 0000000180048c7a f   Matrix.obj
 0001:00047c90       ?dtor$1@?0??DrawAllContours@Matrix@@SAXAEBV?$FunctionCallbackInfo@VValue@v8@@@Nan@@@Z@4HA 0000000180048c90 f   Matrix.obj
 0001:00047c90       ?dtor$1@?0??DrawContour@Matrix@@SAXAEBV?$FunctionCallbackInfo@VValue@v8@@@Nan@@@Z@4HA 0000000180048c90 f   Matrix.obj
 0001:00047c9e       ?dtor$0@?0??DrawContour@Matrix@@SAXAEBV?$FunctionCallbackInfo@VValue@v8@@@Nan@@@Z@4HA 0000000180048c9e f   Matrix.obj
 0001:00047c9e       ?dtor$0@?0??DrawAllContours@Matrix@@SAXAEBV?$FunctionCallbackInfo@VValue@v8@@@Nan@@@Z@4HA 0000000180048c9e f   Matrix.obj
 0001:00047caa       ?dtor$2@?0??DrawContour@Matrix@@SAXAEBV?$FunctionCallbackInfo@VValue@v8@@@Nan@@@Z@4HA 0000000180048caa f   Matrix.obj
 0001:00047caa       ?dtor$2@?0??DrawAllContours@Matrix@@SAXAEBV?$FunctionCallbackInfo@VValue@v8@@@Nan@@@Z@4HA 0000000180048caa f   Matrix.obj
 0001:00047cc0       ?dtor$3@?0??GoodFeaturesToTrack@Matrix@@SAXAEBV?$FunctionCallbackInfo@VValue@v8@@@Nan@@@Z@4HA 0000000180048cc0 f   Matrix.obj
 0001:00047cce       ?dtor$0@?0??GoodFeaturesToTrack@Matrix@@SAXAEBV?$FunctionCallbackInfo@VValue@v8@@@Nan@@@Z@4HA 0000000180048cce f   Matrix.obj
 0001:00047cda       ?dtor$1@?0??GoodFeaturesToTrack@Matrix@@SAXAEBV?$FunctionCallbackInfo@VValue@v8@@@Nan@@@Z@4HA 0000000180048cda f   Matrix.obj
 0001:00047ce6       ?dtor$2@?0??GoodFeaturesToTrack@Matrix@@SAXAEBV?$FunctionCallbackInfo@VValue@v8@@@Nan@@@Z@4HA 0000000180048ce6 f   Matrix.obj
 0001:00047cf2       ?dtor$4@?0??GoodFeaturesToTrack@Matrix@@SAXAEBV?$FunctionCallbackInfo@VValue@v8@@@Nan@@@Z@4HA 0000000180048cf2 f   Matrix.obj
 0001:00047d00       ?dtor$3@?0??HoughLinesP@Matrix@@SAXAEBV?$FunctionCallbackInfo@VValue@v8@@@Nan@@@Z@4HA 0000000180048d00 f   Matrix.obj
 0001:00047d0e       ?dtor$0@?0??HoughLinesP@Matrix@@SAXAEBV?$FunctionCallbackInfo@VValue@v8@@@Nan@@@Z@4HA 0000000180048d0e f   Matrix.obj
 0001:00047d1a       ?dtor$1@?0??HoughLinesP@Matrix@@SAXAEBV?$FunctionCallbackInfo@VValue@v8@@@Nan@@@Z@4HA 0000000180048d1a f   Matrix.obj
 0001:00047d26       ?dtor$2@?0??HoughLinesP@Matrix@@SAXAEBV?$FunctionCallbackInfo@VValue@v8@@@Nan@@@Z@4HA 0000000180048d26 f   Matrix.obj
 0001:00047d32       ?dtor$4@?0??HoughLinesP@Matrix@@SAXAEBV?$FunctionCallbackInfo@VValue@v8@@@Nan@@@Z@4HA 0000000180048d32 f   Matrix.obj
 0001:00047d40       ?dtor$3@?0??HoughCircles@Matrix@@SAXAEBV?$FunctionCallbackInfo@VValue@v8@@@Nan@@@Z@4HA 0000000180048d40 f   Matrix.obj
 0001:00047d4e       ?dtor$0@?0??HoughCircles@Matrix@@SAXAEBV?$FunctionCallbackInfo@VValue@v8@@@Nan@@@Z@4HA 0000000180048d4e f   Matrix.obj
 0001:00047d5a       ?dtor$1@?0??HoughCircles@Matrix@@SAXAEBV?$FunctionCallbackInfo@VValue@v8@@@Nan@@@Z@4HA 0000000180048d5a f   Matrix.obj
 0001:00047d66       ?dtor$2@?0??HoughCircles@Matrix@@SAXAEBV?$FunctionCallbackInfo@VValue@v8@@@Nan@@@Z@4HA 0000000180048d66 f   Matrix.obj
 0001:00047d72       ?dtor$4@?0??HoughCircles@Matrix@@SAXAEBV?$FunctionCallbackInfo@VValue@v8@@@Nan@@@Z@4HA 0000000180048d72 f   Matrix.obj
 0001:00047d80       ?dtor$3@?0??Resize@Matrix@@SAXAEBV?$FunctionCallbackInfo@VValue@v8@@@Nan@@@Z@4HA 0000000180048d80 f   Matrix.obj
 0001:00047d8e       ?dtor$0@?0??Resize@Matrix@@SAXAEBV?$FunctionCallbackInfo@VValue@v8@@@Nan@@@Z@4HA 0000000180048d8e f   Matrix.obj
 0001:00047d9a       ?dtor$1@?0??Resize@Matrix@@SAXAEBV?$FunctionCallbackInfo@VValue@v8@@@Nan@@@Z@4HA 0000000180048d9a f   Matrix.obj
 0001:00047da6       ?dtor$4@?0??Resize@Matrix@@SAXAEBV?$FunctionCallbackInfo@VValue@v8@@@Nan@@@Z@4HA 0000000180048da6 f   Matrix.obj
 0001:00047db6       ?dtor$5@?0??Resize@Matrix@@SAXAEBV?$FunctionCallbackInfo@VValue@v8@@@Nan@@@Z@4HA 0000000180048db6 f   Matrix.obj
 0001:00047dc6       ?dtor$6@?0??Resize@Matrix@@SAXAEBV?$FunctionCallbackInfo@VValue@v8@@@Nan@@@Z@4HA 0000000180048dc6 f   Matrix.obj
 0001:00047dd9       ?dtor$7@?0??Resize@Matrix@@SAXAEBV?$FunctionCallbackInfo@VValue@v8@@@Nan@@@Z@4HA 0000000180048dd9 f   Matrix.obj
 0001:00047df0       ?dtor$6@?0??Rotate@Matrix@@SAXAEBV?$FunctionCallbackInfo@VValue@v8@@@Nan@@@Z@4HA 0000000180048df0 f   Matrix.obj
 0001:00047dfe       ?dtor$0@?0??Rotate@Matrix@@SAXAEBV?$FunctionCallbackInfo@VValue@v8@@@Nan@@@Z@4HA 0000000180048dfe f   Matrix.obj
 0001:00047e0a       ?dtor$1@?0??Rotate@Matrix@@SAXAEBV?$FunctionCallbackInfo@VValue@v8@@@Nan@@@Z@4HA 0000000180048e0a f   Matrix.obj
 0001:00047e16       ?dtor$2@?0??Rotate@Matrix@@SAXAEBV?$FunctionCallbackInfo@VValue@v8@@@Nan@@@Z@4HA 0000000180048e16 f   Matrix.obj
 0001:00047e22       ?dtor$4@?0??Rotate@Matrix@@SAXAEBV?$FunctionCallbackInfo@VValue@v8@@@Nan@@@Z@4HA 0000000180048e22 f   Matrix.obj
 0001:00047e2e       ?dtor$9@?0??Rotate@Matrix@@SAXAEBV?$FunctionCallbackInfo@VValue@v8@@@Nan@@@Z@4HA 0000000180048e2e f   Matrix.obj
 0001:00047e3e       ?dtor$10@?0??Rotate@Matrix@@SAXAEBV?$FunctionCallbackInfo@VValue@v8@@@Nan@@@Z@4HA 0000000180048e3e f   Matrix.obj
 0001:00047e4e       ?dtor$11@?0??Rotate@Matrix@@SAXAEBV?$FunctionCallbackInfo@VValue@v8@@@Nan@@@Z@4HA 0000000180048e4e f   Matrix.obj
 0001:00047e61       ?dtor$12@?0??Rotate@Matrix@@SAXAEBV?$FunctionCallbackInfo@VValue@v8@@@Nan@@@Z@4HA 0000000180048e61 f   Matrix.obj
 0001:00047e70       ?dtor$3@?0??WarpAffine@Matrix@@SAXAEBV?$FunctionCallbackInfo@VValue@v8@@@Nan@@@Z@4HA 0000000180048e70 f   Matrix.obj
 0001:00047e7e       ?dtor$0@?0??WarpAffine@Matrix@@SAXAEBV?$FunctionCallbackInfo@VValue@v8@@@Nan@@@Z@4HA 0000000180048e7e f   Matrix.obj
 0001:00047e8a       ?dtor$1@?0??WarpAffine@Matrix@@SAXAEBV?$FunctionCallbackInfo@VValue@v8@@@Nan@@@Z@4HA 0000000180048e8a f   Matrix.obj
 0001:00047e96       ?dtor$4@?0??WarpAffine@Matrix@@SAXAEBV?$FunctionCallbackInfo@VValue@v8@@@Nan@@@Z@4HA 0000000180048e96 f   Matrix.obj
 0001:00047ea6       ?dtor$5@?0??WarpAffine@Matrix@@SAXAEBV?$FunctionCallbackInfo@VValue@v8@@@Nan@@@Z@4HA 0000000180048ea6 f   Matrix.obj
 0001:00047eb6       ?dtor$6@?0??WarpAffine@Matrix@@SAXAEBV?$FunctionCallbackInfo@VValue@v8@@@Nan@@@Z@4HA 0000000180048eb6 f   Matrix.obj
 0001:00047ec9       ?dtor$7@?0??WarpAffine@Matrix@@SAXAEBV?$FunctionCallbackInfo@VValue@v8@@@Nan@@@Z@4HA 0000000180048ec9 f   Matrix.obj
 0001:00047ee0       ?dtor$2@?0??inRange@Matrix@@SAXAEBV?$FunctionCallbackInfo@VValue@v8@@@Nan@@@Z@4HA 0000000180048ee0 f   Matrix.obj
 0001:00047eee       ?dtor$0@?0??inRange@Matrix@@SAXAEBV?$FunctionCallbackInfo@VValue@v8@@@Nan@@@Z@4HA 0000000180048eee f   Matrix.obj
 0001:00047efa       ?dtor$1@?0??inRange@Matrix@@SAXAEBV?$FunctionCallbackInfo@VValue@v8@@@Nan@@@Z@4HA 0000000180048efa f   Matrix.obj
 0001:00047f06       ?dtor$3@?0??inRange@Matrix@@SAXAEBV?$FunctionCallbackInfo@VValue@v8@@@Nan@@@Z@4HA 0000000180048f06 f   Matrix.obj
 0001:00047f20       ?dtor$3@?0??Threshold@Matrix@@SAXAEBV?$FunctionCallbackInfo@VValue@v8@@@Nan@@@Z@4HA 0000000180048f20 f   Matrix.obj
 0001:00047f2e       ?dtor$0@?0??Threshold@Matrix@@SAXAEBV?$FunctionCallbackInfo@VValue@v8@@@Nan@@@Z@4HA 0000000180048f2e f   Matrix.obj
 0001:00047f3a       ?dtor$1@?0??Threshold@Matrix@@SAXAEBV?$FunctionCallbackInfo@VValue@v8@@@Nan@@@Z@4HA 0000000180048f3a f   Matrix.obj
 0001:00047f46       ?dtor$2@?0??Threshold@Matrix@@SAXAEBV?$FunctionCallbackInfo@VValue@v8@@@Nan@@@Z@4HA 0000000180048f46 f   Matrix.obj
 0001:00047f52       ?dtor$6@?0??Threshold@Matrix@@SAXAEBV?$FunctionCallbackInfo@VValue@v8@@@Nan@@@Z@4HA 0000000180048f52 f   Matrix.obj
 0001:00047f60       ?dtor$2@?0??CopyTo@Matrix@@SAXAEBV?$FunctionCallbackInfo@VValue@v8@@@Nan@@@Z@4HA 0000000180048f60 f   Matrix.obj
 0001:00047f6e       ?dtor$0@?0??CopyTo@Matrix@@SAXAEBV?$FunctionCallbackInfo@VValue@v8@@@Nan@@@Z@4HA 0000000180048f6e f   Matrix.obj
 0001:00047f7a       ?dtor$1@?0??CopyTo@Matrix@@SAXAEBV?$FunctionCallbackInfo@VValue@v8@@@Nan@@@Z@4HA 0000000180048f7a f   Matrix.obj
 0001:00047f86       ?dtor$3@?0??CopyTo@Matrix@@SAXAEBV?$FunctionCallbackInfo@VValue@v8@@@Nan@@@Z@4HA 0000000180048f86 f   Matrix.obj
 0001:00047fa0       ?dtor$3@?0??CvtColor@Matrix@@SAXAEBV?$FunctionCallbackInfo@VValue@v8@@@Nan@@@Z@4HA 0000000180048fa0 f   Matrix.obj
 0001:00047fae       ?dtor$0@?0??CvtColor@Matrix@@SAXAEBV?$FunctionCallbackInfo@VValue@v8@@@Nan@@@Z@4HA 0000000180048fae f   Matrix.obj
 0001:00047fba       ?dtor$1@?0??CvtColor@Matrix@@SAXAEBV?$FunctionCallbackInfo@VValue@v8@@@Nan@@@Z@4HA 0000000180048fba f   Matrix.obj
 0001:00047fc8       ?dtor$2@?0??CvtColor@Matrix@@SAXAEBV?$FunctionCallbackInfo@VValue@v8@@@Nan@@@Z@4HA 0000000180048fc8 f   Matrix.obj
 0001:00047fd4       ?dtor$4@?0??CvtColor@Matrix@@SAXAEBV?$FunctionCallbackInfo@VValue@v8@@@Nan@@@Z@4HA 0000000180048fd4 f   Matrix.obj
 0001:00047ff0       ?dtor$3@?0??Split@Matrix@@SAXAEBV?$FunctionCallbackInfo@VValue@v8@@@Nan@@@Z@4HA 0000000180048ff0 f   Matrix.obj
 0001:00047ffe       ?dtor$0@?0??Split@Matrix@@SAXAEBV?$FunctionCallbackInfo@VValue@v8@@@Nan@@@Z@4HA 0000000180048ffe f   Matrix.obj
 0001:0004800a       ?dtor$1@?0??Split@Matrix@@SAXAEBV?$FunctionCallbackInfo@VValue@v8@@@Nan@@@Z@4HA 000000018004900a f   Matrix.obj
 0001:00048016       ?dtor$2@?0??Split@Matrix@@SAXAEBV?$FunctionCallbackInfo@VValue@v8@@@Nan@@@Z@4HA 0000000180049016 f   Matrix.obj
 0001:00048022       ?dtor$4@?0??Split@Matrix@@SAXAEBV?$FunctionCallbackInfo@VValue@v8@@@Nan@@@Z@4HA 0000000180049022 f   Matrix.obj
 0001:00048030       ?dtor$2@?0??Merge@Matrix@@SAXAEBV?$FunctionCallbackInfo@VValue@v8@@@Nan@@@Z@4HA 0000000180049030 f   Matrix.obj
 0001:0004803e       ?dtor$0@?0??Merge@Matrix@@SAXAEBV?$FunctionCallbackInfo@VValue@v8@@@Nan@@@Z@4HA 000000018004903e f   Matrix.obj
 0001:0004804a       ?dtor$1@?0??Merge@Matrix@@SAXAEBV?$FunctionCallbackInfo@VValue@v8@@@Nan@@@Z@4HA 000000018004904a f   Matrix.obj
 0001:00048056       ?dtor$3@?0??Merge@Matrix@@SAXAEBV?$FunctionCallbackInfo@VValue@v8@@@Nan@@@Z@4HA 0000000180049056 f   Matrix.obj
 0001:00048070       ?dtor$1@?0??FloodFill@Matrix@@SAXAEBV?$FunctionCallbackInfo@VValue@v8@@@Nan@@@Z@4HA 0000000180049070 f   Matrix.obj
 0001:0004807e       ?dtor$0@?0??FloodFill@Matrix@@SAXAEBV?$FunctionCallbackInfo@VValue@v8@@@Nan@@@Z@4HA 000000018004907e f   Matrix.obj
 0001:0004808a       ?dtor$2@?0??FloodFill@Matrix@@SAXAEBV?$FunctionCallbackInfo@VValue@v8@@@Nan@@@Z@4HA 000000018004908a f   Matrix.obj
 0001:000480a0       ?dtor$7@?0??TemplateMatches@Matrix@@SAXAEBV?$FunctionCallbackInfo@VValue@v8@@@Nan@@@Z@4HA 00000001800490a0 f   Matrix.obj
 0001:000480ae       ?dtor$0@?0??TemplateMatches@Matrix@@SAXAEBV?$FunctionCallbackInfo@VValue@v8@@@Nan@@@Z@4HA 00000001800490ae f   Matrix.obj
 0001:000480ba       ?dtor$8@?0??TemplateMatches@Matrix@@SAXAEBV?$FunctionCallbackInfo@VValue@v8@@@Nan@@@Z@4HA 00000001800490ba f   Matrix.obj
 0001:000480c6       ?dtor$1@?0??TemplateMatches@Matrix@@SAXAEBV?$FunctionCallbackInfo@VValue@v8@@@Nan@@@Z@4HA 00000001800490c6 f   Matrix.obj
 0001:000480d2       ?dtor$2@?0??TemplateMatches@Matrix@@SAXAEBV?$FunctionCallbackInfo@VValue@v8@@@Nan@@@Z@4HA 00000001800490d2 f   Matrix.obj
 0001:000480de       ?dtor$3@?0??TemplateMatches@Matrix@@SAXAEBV?$FunctionCallbackInfo@VValue@v8@@@Nan@@@Z@4HA 00000001800490de f   Matrix.obj
 0001:000480ea       ?dtor$4@?0??TemplateMatches@Matrix@@SAXAEBV?$FunctionCallbackInfo@VValue@v8@@@Nan@@@Z@4HA 00000001800490ea f   Matrix.obj
 0001:000480f6       ?dtor$5@?0??TemplateMatches@Matrix@@SAXAEBV?$FunctionCallbackInfo@VValue@v8@@@Nan@@@Z@4HA 00000001800490f6 f   Matrix.obj
 0001:00048102       ?dtor$6@?0??TemplateMatches@Matrix@@SAXAEBV?$FunctionCallbackInfo@VValue@v8@@@Nan@@@Z@4HA 0000000180049102 f   Matrix.obj
 0001:0004810e       ?dtor$9@?0??TemplateMatches@Matrix@@SAXAEBV?$FunctionCallbackInfo@VValue@v8@@@Nan@@@Z@4HA 000000018004910e f   Matrix.obj
 0001:0004811e       ?dtor$10@?0??TemplateMatches@Matrix@@SAXAEBV?$FunctionCallbackInfo@VValue@v8@@@Nan@@@Z@4HA 000000018004911e f   Matrix.obj
 0001:0004812e       ?dtor$11@?0??TemplateMatches@Matrix@@SAXAEBV?$FunctionCallbackInfo@VValue@v8@@@Nan@@@Z@4HA 000000018004912e f   Matrix.obj
 0001:00048141       ?dtor$12@?0??TemplateMatches@Matrix@@SAXAEBV?$FunctionCallbackInfo@VValue@v8@@@Nan@@@Z@4HA 0000000180049141 f   Matrix.obj
 0001:0004814d       ?dtor$13@?0??TemplateMatches@Matrix@@SAXAEBV?$FunctionCallbackInfo@VValue@v8@@@Nan@@@Z@4HA 000000018004914d f   Matrix.obj
 0001:00048160       ?dtor$0@?0???1?$Mat_@H@cv@@QEAA@XZ@4HA 0000000180049160 f   Matrix.obj
 0001:00048170       ?dtor$7@?0??MatchTemplate@Matrix@@SAXAEBV?$FunctionCallbackInfo@VValue@v8@@@Nan@@@Z@4HA 0000000180049170 f   Matrix.obj
 0001:0004817e       ?dtor$0@?0??MatchTemplate@Matrix@@SAXAEBV?$FunctionCallbackInfo@VValue@v8@@@Nan@@@Z@4HA 000000018004917e f   Matrix.obj
 0001:0004818a       ?dtor$1@?0??MatchTemplate@Matrix@@SAXAEBV?$FunctionCallbackInfo@VValue@v8@@@Nan@@@Z@4HA 000000018004918a f   Matrix.obj
 0001:00048198       ?dtor$2@?0??MatchTemplate@Matrix@@SAXAEBV?$FunctionCallbackInfo@VValue@v8@@@Nan@@@Z@4HA 0000000180049198 f   Matrix.obj
 0001:000481a4       ?dtor$3@?0??MatchTemplate@Matrix@@SAXAEBV?$FunctionCallbackInfo@VValue@v8@@@Nan@@@Z@4HA 00000001800491a4 f   Matrix.obj
 0001:000481b0       ?dtor$4@?0??MatchTemplate@Matrix@@SAXAEBV?$FunctionCallbackInfo@VValue@v8@@@Nan@@@Z@4HA 00000001800491b0 f   Matrix.obj
 0001:000481bc       ?dtor$5@?0??MatchTemplate@Matrix@@SAXAEBV?$FunctionCallbackInfo@VValue@v8@@@Nan@@@Z@4HA 00000001800491bc f   Matrix.obj
 0001:000481c8       ?dtor$6@?0??MatchTemplate@Matrix@@SAXAEBV?$FunctionCallbackInfo@VValue@v8@@@Nan@@@Z@4HA 00000001800491c8 f   Matrix.obj
 0001:000481d4       ?dtor$8@?0??MatchTemplate@Matrix@@SAXAEBV?$FunctionCallbackInfo@VValue@v8@@@Nan@@@Z@4HA 00000001800491d4 f   Matrix.obj
 0001:000481f0       ?dtor$2@?0??MinMaxLoc@Matrix@@SAXAEBV?$FunctionCallbackInfo@VValue@v8@@@Nan@@@Z@4HA 00000001800491f0 f   Matrix.obj
 0001:000481fe       ?dtor$0@?0??MinMaxLoc@Matrix@@SAXAEBV?$FunctionCallbackInfo@VValue@v8@@@Nan@@@Z@4HA 00000001800491fe f   Matrix.obj
 0001:0004820a       ?dtor$1@?0??MinMaxLoc@Matrix@@SAXAEBV?$FunctionCallbackInfo@VValue@v8@@@Nan@@@Z@4HA 000000018004920a f   Matrix.obj
 0001:00048216       ?dtor$3@?0??MinMaxLoc@Matrix@@SAXAEBV?$FunctionCallbackInfo@VValue@v8@@@Nan@@@Z@4HA 0000000180049216 f   Matrix.obj
 0001:00048230       ?dtor$4@?0??PutText@Matrix@@SAXAEBV?$FunctionCallbackInfo@VValue@v8@@@Nan@@@Z@4HA 0000000180049230 f   Matrix.obj
 0001:0004823e       ?dtor$0@?0??PutText@Matrix@@SAXAEBV?$FunctionCallbackInfo@VValue@v8@@@Nan@@@Z@4HA 000000018004923e f   Matrix.obj
 0001:0004824a       ?dtor$1@?0??PutText@Matrix@@SAXAEBV?$FunctionCallbackInfo@VValue@v8@@@Nan@@@Z@4HA 000000018004924a f   Matrix.obj
 0001:00048256       ?dtor$2@?0??PutText@Matrix@@SAXAEBV?$FunctionCallbackInfo@VValue@v8@@@Nan@@@Z@4HA 0000000180049256 f   Matrix.obj
 0001:00048262       ?dtor$3@?0??PutText@Matrix@@SAXAEBV?$FunctionCallbackInfo@VValue@v8@@@Nan@@@Z@4HA 0000000180049262 f   Matrix.obj
 0001:0004826e       ?dtor$5@?0??PutText@Matrix@@SAXAEBV?$FunctionCallbackInfo@VValue@v8@@@Nan@@@Z@4HA 000000018004926e f   Matrix.obj
 0001:00048280       ?dtor$4@?0??GetPerspectiveTransform@Matrix@@SAXAEBV?$FunctionCallbackInfo@VValue@v8@@@Nan@@@Z@4HA 0000000180049280 f   Matrix.obj
 0001:0004828e       ?dtor$0@?0??GetPerspectiveTransform@Matrix@@SAXAEBV?$FunctionCallbackInfo@VValue@v8@@@Nan@@@Z@4HA 000000018004928e f   Matrix.obj
 0001:0004829a       ?dtor$5@?0??GetPerspectiveTransform@Matrix@@SAXAEBV?$FunctionCallbackInfo@VValue@v8@@@Nan@@@Z@4HA 000000018004929a f   Matrix.obj
 0001:000482b6       ?dtor$1@?0??GetPerspectiveTransform@Matrix@@SAXAEBV?$FunctionCallbackInfo@VValue@v8@@@Nan@@@Z@4HA 00000001800492b6 f   Matrix.obj
 0001:000482c2       ?dtor$6@?0??GetPerspectiveTransform@Matrix@@SAXAEBV?$FunctionCallbackInfo@VValue@v8@@@Nan@@@Z@4HA 00000001800492c2 f   Matrix.obj
 0001:000482de       ?dtor$2@?0??GetPerspectiveTransform@Matrix@@SAXAEBV?$FunctionCallbackInfo@VValue@v8@@@Nan@@@Z@4HA 00000001800492de f   Matrix.obj
 0001:000482ea       ?dtor$3@?0??GetPerspectiveTransform@Matrix@@SAXAEBV?$FunctionCallbackInfo@VValue@v8@@@Nan@@@Z@4HA 00000001800492ea f   Matrix.obj
 0001:000482f6       ?dtor$7@?0??GetPerspectiveTransform@Matrix@@SAXAEBV?$FunctionCallbackInfo@VValue@v8@@@Nan@@@Z@4HA 00000001800492f6 f   Matrix.obj
 0001:00048310       ?dtor$3@?0??WarpPerspective@Matrix@@SAXAEBV?$FunctionCallbackInfo@VValue@v8@@@Nan@@@Z@4HA 0000000180049310 f   Matrix.obj
 0001:0004831e       ?dtor$0@?0??WarpPerspective@Matrix@@SAXAEBV?$FunctionCallbackInfo@VValue@v8@@@Nan@@@Z@4HA 000000018004931e f   Matrix.obj
 0001:0004832a       ?dtor$1@?0??WarpPerspective@Matrix@@SAXAEBV?$FunctionCallbackInfo@VValue@v8@@@Nan@@@Z@4HA 000000018004932a f   Matrix.obj
 0001:00048336       ?dtor$4@?0??WarpPerspective@Matrix@@SAXAEBV?$FunctionCallbackInfo@VValue@v8@@@Nan@@@Z@4HA 0000000180049336 f   Matrix.obj
 0001:00048346       ?dtor$5@?0??WarpPerspective@Matrix@@SAXAEBV?$FunctionCallbackInfo@VValue@v8@@@Nan@@@Z@4HA 0000000180049346 f   Matrix.obj
 0001:00048356       ?dtor$6@?0??WarpPerspective@Matrix@@SAXAEBV?$FunctionCallbackInfo@VValue@v8@@@Nan@@@Z@4HA 0000000180049356 f   Matrix.obj
 0001:00048369       ?dtor$7@?0??WarpPerspective@Matrix@@SAXAEBV?$FunctionCallbackInfo@VValue@v8@@@Nan@@@Z@4HA 0000000180049369 f   Matrix.obj
 0001:00048380       ?dtor$1@?0??Moments@Contour@@SAXAEBV?$FunctionCallbackInfo@VValue@v8@@@Nan@@@Z@4HA 0000000180049380 f   Contours.obj
 0001:00048380       ?dtor$1@?0??SetWithMask@Matrix@@SAXAEBV?$FunctionCallbackInfo@VValue@v8@@@Nan@@@Z@4HA 0000000180049380 f   Matrix.obj
 0001:0004838e       ?dtor$0@?0??Moments@Contour@@SAXAEBV?$FunctionCallbackInfo@VValue@v8@@@Nan@@@Z@4HA 000000018004938e f   Contours.obj
 0001:0004838e       ?dtor$0@?0??SetWithMask@Matrix@@SAXAEBV?$FunctionCallbackInfo@VValue@v8@@@Nan@@@Z@4HA 000000018004938e f   Matrix.obj
 0001:0004839a       ?dtor$2@?0??Moments@Contour@@SAXAEBV?$FunctionCallbackInfo@VValue@v8@@@Nan@@@Z@4HA 000000018004939a f   Contours.obj
 0001:0004839a       ?dtor$2@?0??SetWithMask@Matrix@@SAXAEBV?$FunctionCallbackInfo@VValue@v8@@@Nan@@@Z@4HA 000000018004939a f   Matrix.obj
 0001:000483b0       ?dtor$5@?0??Shift@Matrix@@SAXAEBV?$FunctionCallbackInfo@VValue@v8@@@Nan@@@Z@4HA 00000001800493b0 f   Matrix.obj
 0001:000483be       ?dtor$0@?0??Shift@Matrix@@SAXAEBV?$FunctionCallbackInfo@VValue@v8@@@Nan@@@Z@4HA 00000001800493be f   Matrix.obj
 0001:000483ca       ?dtor$1@?0??Shift@Matrix@@SAXAEBV?$FunctionCallbackInfo@VValue@v8@@@Nan@@@Z@4HA 00000001800493ca f   Matrix.obj
 0001:000483d6       ?dtor$2@?0??Shift@Matrix@@SAXAEBV?$FunctionCallbackInfo@VValue@v8@@@Nan@@@Z@4HA 00000001800493d6 f   Matrix.obj
 0001:000483e2       ?dtor$3@?0??Shift@Matrix@@SAXAEBV?$FunctionCallbackInfo@VValue@v8@@@Nan@@@Z@4HA 00000001800493e2 f   Matrix.obj
 0001:000483ee       ?dtor$6@?0??Shift@Matrix@@SAXAEBV?$FunctionCallbackInfo@VValue@v8@@@Nan@@@Z@4HA 00000001800493ee f   Matrix.obj
 0001:000483fe       ?dtor$7@?0??Shift@Matrix@@SAXAEBV?$FunctionCallbackInfo@VValue@v8@@@Nan@@@Z@4HA 00000001800493fe f   Matrix.obj
 0001:0004840e       ?dtor$8@?0??Shift@Matrix@@SAXAEBV?$FunctionCallbackInfo@VValue@v8@@@Nan@@@Z@4HA 000000018004940e f   Matrix.obj
 0001:00048421       ?dtor$9@?0??Shift@Matrix@@SAXAEBV?$FunctionCallbackInfo@VValue@v8@@@Nan@@@Z@4HA 0000000180049421 f   Matrix.obj
 0001:00048430       ?dtor$0@?0??push_back@?$vector@V?$vector@V?$Point_@H@cv@@V?$allocator@V?$Point_@H@cv@@@std@@@std@@V?$allocator@V?$vector@V?$Point_@H@cv@@V?$allocator@V?$Point_@H@cv@@@std@@@std@@@2@@std@@QEAAXAEBV?$vector@V?$Point_@H@cv@@V?$allocator@V?$Point_@H@cv@@@std@@@2@@Z@4HA 0000000180049430 f   Contours.obj
 0001:00048430       ?dtor$0@?0??push_back@?$vector@VMat@cv@@V?$allocator@VMat@cv@@@std@@@std@@QEAAXAEBVMat@cv@@@Z@4HA 0000000180049430 f   FaceRecognizer.obj
 0001:00048430       ?dtor$0@?0???4?$vector@V?$Point_@H@cv@@V?$allocator@V?$Point_@H@cv@@@std@@@std@@QEAAAEAV01@AEBV01@@Z@4HA 0000000180049430 f   Contours.obj
 0001:00048430       ?dtor$0@?0??push_back@?$vector@V?$Point3_@M@cv@@V?$allocator@V?$Point3_@M@cv@@@std@@@std@@QEAAX$$QEAV?$Point3_@M@cv@@@Z@4HA 0000000180049430 f   Calib3D.obj
 0001:00048430       ?dtor$0@?0??push_back@?$vector@VMat@cv@@V?$allocator@VMat@cv@@@std@@@std@@QEAAX$$QEAVMat@cv@@@Z@4HA 0000000180049430 f   Matrix.obj
 0001:00048430       ?dtor$0@?0??push_back@?$vector@V?$Point_@M@cv@@V?$allocator@V?$Point_@M@cv@@@std@@@std@@QEAAX$$QEAV?$Point_@M@cv@@@Z@4HA 0000000180049430 f   Calib3D.obj
 0001:00048430       ?dtor$0@?0??push_back@?$vector@V?$Vec@H$03@cv@@V?$allocator@V?$Vec@H$03@cv@@@std@@@std@@QEAAX$$QEAV?$Vec@H$03@cv@@@Z@4HA 0000000180049430 f   Contours.obj
 0001:00048430       ?dtor$0@?0??push_back@?$vector@V?$Point_@H@cv@@V?$allocator@V?$Point_@H@cv@@@std@@@std@@QEAAX$$QEAV?$Point_@H@cv@@@Z@4HA 0000000180049430 f   Contours.obj
 0001:0004844c       ?dtor$1@?0??push_back@?$vector@V?$Point_@M@cv@@V?$allocator@V?$Point_@M@cv@@@std@@@std@@QEAAX$$QEAV?$Point_@M@cv@@@Z@4HA 000000018004944c f   Calib3D.obj
 0001:0004844c       ?dtor$1@?0??push_back@?$vector@V?$vector@V?$Point_@H@cv@@V?$allocator@V?$Point_@H@cv@@@std@@@std@@V?$allocator@V?$vector@V?$Point_@H@cv@@V?$allocator@V?$Point_@H@cv@@@std@@@std@@@2@@std@@QEAAXAEBV?$vector@V?$Point_@H@cv@@V?$allocator@V?$Point_@H@cv@@@std@@@2@@Z@4HA 000000018004944c f   Contours.obj
 0001:0004844c       ?dtor$1@?0??push_back@?$vector@V?$Vec@H$03@cv@@V?$allocator@V?$Vec@H$03@cv@@@std@@@std@@QEAAX$$QEAV?$Vec@H$03@cv@@@Z@4HA 000000018004944c f   Contours.obj
 0001:0004844c       ?dtor$1@?0??push_back@?$vector@V?$Point_@H@cv@@V?$allocator@V?$Point_@H@cv@@@std@@@std@@QEAAX$$QEAV?$Point_@H@cv@@@Z@4HA 000000018004944c f   Contours.obj
 0001:0004844c       ?dtor$1@?0??push_back@?$vector@V?$Point3_@M@cv@@V?$allocator@V?$Point3_@M@cv@@@std@@@std@@QEAAX$$QEAV?$Point3_@M@cv@@@Z@4HA 000000018004944c f   Calib3D.obj
 0001:0004844c       ?dtor$1@?0??push_back@?$vector@VMat@cv@@V?$allocator@VMat@cv@@@std@@@std@@QEAAXAEBVMat@cv@@@Z@4HA 000000018004944c f   FaceRecognizer.obj
 0001:0004844c       ?dtor$1@?0??push_back@?$vector@VMat@cv@@V?$allocator@VMat@cv@@@std@@@std@@QEAAX$$QEAVMat@cv@@@Z@4HA 000000018004944c f   Matrix.obj
 0001:0004844c       ?dtor$1@?0???4?$vector@V?$Point_@H@cv@@V?$allocator@V?$Point_@H@cv@@@std@@@std@@QEAAAEAV01@AEBV01@@Z@4HA 000000018004944c f   Contours.obj
 0001:00048470       ?dtor$0@?0??_Reallocate@?$vector@VMat@cv@@V?$allocator@VMat@cv@@@std@@@std@@IEAAX_K@Z@4HA 0000000180049470 f   Matrix.obj
 0001:00048490       ?dtor$0@?0???$_Uninitialized_default_fill_n1@PEAVMat@cv@@_KV?$allocator@VMat@cv@@@std@@@std@@YAXPEAVMat@cv@@_KAEAU?$_Wrap_alloc@V?$allocator@VMat@cv@@@std@@@0@U?$integral_constant@_N$0A@@0@@Z@4HA 0000000180049490 f   Matrix.obj
